gplink-2.2.37 (Jan 22 2024)
Listing File Generated: 2025-1-8  14:48:28
 
 
Address  Value    Disassembly              Source
-------  -----    -----------              ------
                                           ;--------------------------------------------------------
                                           ; external declarations
                                           ;--------------------------------------------------------
                                           	extern	__mullong
                                           	extern	__divulong
                                           	extern	_INDF0bits
                                           	extern	_INDF1bits
                                           	extern	_INDF2bits
                                           	extern	_HIBYTEbits
                                           	extern	_FSR0bits
                                           	extern	_FSR1bits
                                           	extern	_PCLbits
                                           	extern	_PFLAGbits
                                           	extern	_MCRbits
                                           	extern	_INDF3bits
                                           	extern	_INTEbits
                                           	extern	_INTFbits
                                           	extern	_DRVCRbits
                                           	extern	_PFRCCRbits
                                           	extern	_P1KBCRbits
                                           	extern	_PFRCCALbits
                                           	extern	_IOP0bits
                                           	extern	_OEP0bits
                                           	extern	_PUP0bits
                                           	extern	_PDP0bits
                                           	extern	_IOP1bits
                                           	extern	_OEP1bits
                                           	extern	_PUP1bits
                                           	extern	_PDP1bits
                                           	extern	_T0CRbits
                                           	extern	_T0CNTbits
                                           	extern	_T0LOADbits
                                           	extern	_T0DATAbits
                                           	extern	_T1CRbits
                                           	extern	_T1CNTbits
                                           	extern	_T1LOADbits
                                           	extern	_T1DATAbits
                                           	extern	_T2CRbits
                                           	extern	_T2CNTbits
                                           	extern	_T2LOADbits
                                           	extern	_T2DATAbits
                                           	extern	_T3CRbits
                                           	extern	_T3CNTbits
                                           	extern	_T3LOADbits
                                           	extern	_PWM0DRbits
                                           	extern	_PWM1DRbits
                                           	extern	_PWM2DRbits
                                           	extern	_PWMCR0bits
                                           	extern	_PWMCR1bits
                                           	extern	_OSCMRbits
                                           	extern	_LVDCRbits
                                           	extern	_ADCR0bits
                                           	extern	_ADCR1bits
                                           	extern	_ADCR2bits
                                           	extern	_OSADJCRbits
                                           	extern	_ADRHbits
                                           	extern	_ADRLbits
                                           	extern	_ADIOS0bits
                                           	extern	_ADIOS1bits
                                           	extern	_PMODbits
                                           	extern	_PWMCR3bits
                                           	extern	_PWMCR2bits
                                           	extern	_PFRCAUXbits
                                           	extern	_HIRCCALbits
                                           	extern	_INDF0
                                           	extern	_INDF1
                                           	extern	_INDF2
                                           	extern	_HIBYTE
                                           	extern	_FSR0
                                           	extern	_FSR1
                                           	extern	_PCL
                                           	extern	_PFLAG
                                           	extern	_MCR
                                           	extern	_INDF3
                                           	extern	_INTE
                                           	extern	_INTF
                                           	extern	_DRVCR
                                           	extern	_PFRCCR
                                           	extern	_P1KBCR
                                           	extern	_PFRCCAL
                                           	extern	_IOP0
                                           	extern	_OEP0
                                           	extern	_PUP0
                                           	extern	_PDP0
                                           	extern	_IOP1
                                           	extern	_OEP1
                                           	extern	_PUP1
                                           	extern	_PDP1
                                           	extern	_T0CR
                                           	extern	_T0CNT
                                           	extern	_T0LOAD
                                           	extern	_T0DATA
                                           	extern	_T1CR
                                           	extern	_T1CNT
                                           	extern	_T1LOAD
                                           	extern	_T1DATA
                                           	extern	_T2CR
                                           	extern	_T2CNT
                                           	extern	_T2LOAD
                                           	extern	_T2DATA
                                           	extern	_T3CR
                                           	extern	_T3CNT
                                           	extern	_T3LOAD
                                           	extern	_PWM0DR
                                           	extern	_PWM1DR
                                           	extern	_PWM2DR
                                           	extern	_PWMCR0
                                           	extern	_PWMCR1
                                           	extern	_OSCMR
                                           	extern	_LVDCR
                                           	extern	_ADCR0
                                           	extern	_ADCR1
                                           	extern	_ADCR2
                                           	extern	_OSADJCR
                                           	extern	_ADRH
                                           	extern	_ADRL
                                           	extern	_ADIOS0
                                           	extern	_ADIOS1
                                           	extern	_PMOD
                                           	extern	_PWMCR3
                                           	extern	_PWMCR2
                                           	extern	_PFRCAUX
                                           	extern	_HIRCCAL
                                           ;--------------------------------------------------------
                                           ; global declarations
                                           ;--------------------------------------------------------
                                           	global	_delay_ms
                                           	global	_CLR_RAM
                                           	global	_IO_Init
                                           	global	_adc_config
                                           	global	_timer0_pwm_config
                                           	global	_timer1_pwm_config
                                           	global	_timer2_pwm_config
                                           	global	_timer3_config
                                           	global	_key_config
                                           	global	_adc_sel_pin
                                           	global	_adc_get_val
                                           	global	_adc_get_val_once
                                           	global	_Sys_Init
                                           	global	_key_scan
                                           	global	_key_event_handle
                                           	global	_adc_scan_handle
                                           	global	_turn_dir_scan_handle
                                           	global	_shutdown_scan_handle
                                           	global	_low_power_scan_handle
                                           	global	_main
                                           	global	_int_isr
                                           	global	_flag1
                                           	global	_flag2
                                           	global	_key_event
                                           	global	_mode_flag
                                           	global	_key_press_flag
                                           	global	_i
                                           	global	_adc_val
                                           	global	_turn_dir_ms_cnt
                                           	global	_shut_down_ms_cnt
                                           	global	_adc_bat_val
                                           	global	_adc_charging_val
                                           	global	_max_pwm_val
                                           	global	_last_pwm_val
                                           	global	_tmp_val
                                           	global	_tmp_val_l
                                           	global	_tmp_val_cnt
                                           	global	_flag_bat_is_empty
                                           	global	_tmp_bat_val
                                           	global	_over_charging_cnt
                                           	global	_full_charge_cnt
                                           	global	_abuf
                                           	global	_statusbuf
                                           
                                           	global STK06
                                           	global STK05
                                           	global STK04
                                           	global STK03
                                           	global STK02
                                           	global STK01
                                           	global STK00
                                           
                                           sharebank udata_ovr 0x0000
                                           STK06	res 1
                                           STK05	res 1
                                           STK04	res 1
                                           STK03	res 1
                                           STK02	res 1
                                           STK01	res 1
                                           STK00	res 1
                                           
                                           ;--------------------------------------------------------
                                           ; global definitions
                                           ;--------------------------------------------------------
                                           UD_MC32P7351_0	udata
                                           _flag1	res	1
                                           
                                           UD_MC32P7351_1	udata
                                           _flag2	res	1
                                           
                                           UD_MC32P7351_2	udata
                                           _key_event	res	1
                                           
                                           UD_MC32P7351_3	udata
                                           _mode_flag	res	1
                                           
                                           UD_MC32P7351_4	udata
                                           _key_press_flag	res	1
                                           
                                           UD_MC32P7351_5	udata
                                           _i	res	1
                                           
                                           UD_MC32P7351_6	udata
                                           _adc_val	res	2
                                           
                                           UD_MC32P7351_7	udata
                                           _turn_dir_ms_cnt	res	4
                                           
                                           UD_MC32P7351_8	udata
                                           _shut_down_ms_cnt	res	4
                                           
                                           UD_MC32P7351_9	udata
                                           _adc_bat_val	res	4
                                           
                                           UD_MC32P7351_10	udata
                                           _adc_charging_val	res	2
                                           
                                           UD_MC32P7351_11	udata
                                           _max_pwm_val	res	4
                                           
                                           UD_MC32P7351_12	udata
                                           _last_pwm_val	res	2
                                           
                                           UD_MC32P7351_13	udata
                                           _tmp_val	res	2
                                           
                                           UD_MC32P7351_14	udata
                                           _tmp_val_l	res	16
                                           
                                           UD_MC32P7351_15	udata
                                           _tmp_val_cnt	res	1
                                           
                                           UD_MC32P7351_16	udata
                                           _flag_bat_is_empty	res	1
                                           
                                           UD_MC32P7351_17	udata
                                           _tmp_bat_val	res	2
                                           
                                           UD_MC32P7351_18	udata
                                           _over_charging_cnt	res	1
                                           
                                           UD_MC32P7351_19	udata
                                           _full_charge_cnt	res	1
                                           
                                           UD_MC32P7351_20	udata
                                           _abuf	res	1
                                           
                                           UD_MC32P7351_21	udata
                                           _statusbuf	res	1
                                           
                                           ;--------------------------------------------------------
                                           ; absolute symbol definitions
                                           ;--------------------------------------------------------
                                           ;--------------------------------------------------------
                                           ; compiler-defined variables
                                           ;--------------------------------------------------------
                                           UDL_MC32P7351_0	udata
                                           r0x103D	res	1
                                           r0x103C	res	1
                                           r0x103E	res	1
                                           r0x103F	res	1
                                           r0x1040	res	1
                                           r0x1041	res	1
                                           r0x1042	res	1
                                           r0x1043	res	1
                                           r0x1044	res	1
                                           r0x1045	res	1
                                           r0x1046	res	1
                                           r0x1048	res	1
                                           r0x1047	res	1
                                           r0x1049	res	1
                                           r0x104A	res	1
                                           r0x104B	res	1
                                           r0x104C	res	1
                                           r0x104E	res	1
                                           r0x104D	res	1
                                           r0x104F	res	1
                                           r0x1050	res	1
                                           r0x1051	res	1
                                           r0x1052	res	1
                                           r0x1053	res	1
                                           r0x1054	res	1
                                           r0x1055	res	1
                                           r0x1056	res	1
                                           _key_scan_cur_key_id_65536_41	res	1
                                           _key_scan_filter_cnt_65536_41	res	1
                                           _key_scan_filter_key_id_65536_41	res	1
                                           _key_scan_press_cnt_65536_41	res	1
                                           _key_scan_flag_is_key_mode_hold_65536_41	res	1
                                           _key_scan_last_key_id_65536_41	res	1
                                           _adc_scan_handle_cnt_65536_93	res	1
                                           _adc_scan_handle_need_charge_cnt_65536_93	res	1
                                           _int_isr_key_scan_cnt_196608_204	res	1
                                           ;--------------------------------------------------------
                                           ; initialized data
                                           ;--------------------------------------------------------
                                           
                                           ;@Allocation info for local variables in function 'delay_ms'
                                           ;@delay_ms delay_ms                  Allocated to registers ;size:2
                                           ;@delay_ms INDF0bits                 Allocated to registers ;size:1
                                           ;@delay_ms INDF1bits                 Allocated to registers ;size:1
                                           ;@delay_ms INDF2bits                 Allocated to registers ;size:1
                                           ;@delay_ms HIBYTEbits                Allocated to registers ;size:1
                                           ;@delay_ms FSR0bits                  Allocated to registers ;size:1
                                           ;@delay_ms FSR1bits                  Allocated to registers ;size:1
                                           ;@delay_ms PCLbits                   Allocated to registers ;size:1
                                           ;@delay_ms PFLAGbits                 Allocated to registers ;size:1
                                           ;@delay_ms MCRbits                   Allocated to registers ;size:1
                                           ;@delay_ms INDF3bits                 Allocated to registers ;size:1
                                           ;@delay_ms INTEbits                  Allocated to registers ;size:1
                                           ;@delay_ms INTFbits                  Allocated to registers ;size:1
                                           ;@delay_ms DRVCRbits                 Allocated to registers ;size:1
                                           ;@delay_ms PFRCCRbits                Allocated to registers ;size:1
                                           ;@delay_ms P1KBCRbits                Allocated to registers ;size:1
                                           ;@delay_ms PFRCCALbits               Allocated to registers ;size:1
                                           ;@delay_ms IOP0bits                  Allocated to registers ;size:1
                                           ;@delay_ms OEP0bits                  Allocated to registers ;size:1
                                           ;@delay_ms PUP0bits                  Allocated to registers ;size:1
                                           ;@delay_ms PDP0bits                  Allocated to registers ;size:1
                                           ;@delay_ms IOP1bits                  Allocated to registers ;size:1
                                           ;@delay_ms OEP1bits                  Allocated to registers ;size:1
                                           ;@delay_ms PUP1bits                  Allocated to registers ;size:1
                                           ;@delay_ms PDP1bits                  Allocated to registers ;size:1
                                           ;@delay_ms T0CRbits                  Allocated to registers ;size:1
                                           ;@delay_ms T0CNTbits                 Allocated to registers ;size:1
                                           ;@delay_ms T0LOADbits                Allocated to registers ;size:1
                                           ;@delay_ms T0DATAbits                Allocated to registers ;size:1
                                           ;@delay_ms T1CRbits                  Allocated to registers ;size:1
                                           ;@delay_ms T1CNTbits                 Allocated to registers ;size:1
                                           ;@delay_ms T1LOADbits                Allocated to registers ;size:1
                                           ;@delay_ms T1DATAbits                Allocated to registers ;size:1
                                           ;@delay_ms T2CRbits                  Allocated to registers ;size:1
                                           ;@delay_ms T2CNTbits                 Allocated to registers ;size:1
                                           ;@delay_ms T2LOADbits                Allocated to registers ;size:1
                                           ;@delay_ms T2DATAbits                Allocated to registers ;size:1
                                           ;@delay_ms T3CRbits                  Allocated to registers ;size:1
                                           ;@delay_ms T3CNTbits                 Allocated to registers ;size:1
                                           ;@delay_ms T3LOADbits                Allocated to registers ;size:1
                                           ;@delay_ms PWM0DRbits                Allocated to registers ;size:1
                                           ;@delay_ms PWM1DRbits                Allocated to registers ;size:1
                                           ;@delay_ms PWM2DRbits                Allocated to registers ;size:1
                                           ;@delay_ms PWMCR0bits                Allocated to registers ;size:1
                                           ;@delay_ms PWMCR1bits                Allocated to registers ;size:1
                                           ;@delay_ms OSCMRbits                 Allocated to registers ;size:1
                                           ;@delay_ms LVDCRbits                 Allocated to registers ;size:1
                                           ;@delay_ms ADCR0bits                 Allocated to registers ;size:1
                                           ;@delay_ms ADCR1bits                 Allocated to registers ;size:1
                                           ;@delay_ms ADCR2bits                 Allocated to registers ;size:1
                                           ;@delay_ms OSADJCRbits               Allocated to registers ;size:1
                                           ;@delay_ms ADRHbits                  Allocated to registers ;size:1
                                           ;@delay_ms ADRLbits                  Allocated to registers ;size:1
                                           ;@delay_ms ADIOS0bits                Allocated to registers ;size:1
                                           ;@delay_ms ADIOS1bits                Allocated to registers ;size:1
                                           ;@delay_ms PMODbits                  Allocated to registers ;size:1
                                           ;@delay_ms PWMCR3bits                Allocated to registers ;size:1
                                           ;@delay_ms PWMCR2bits                Allocated to registers ;size:1
                                           ;@delay_ms PFRCAUXbits               Allocated to registers ;size:1
                                           ;@delay_ms HIRCCALbits               Allocated to registers ;size:1
                                           ;@delay_ms flag1                     Allocated to registers ;size:1
                                           ;@delay_ms flag2                     Allocated to registers ;size:1
                                           ;@delay_ms key_event                 Allocated to registers ;size:1
                                           ;@delay_ms mode_flag                 Allocated to registers ;size:1
                                           ;@delay_ms key_press_flag            Allocated to registers ;size:1
                                           ;@delay_ms i                         Allocated to registers ;size:1
                                           ;@delay_ms adc_val                   Allocated to registers ;size:2
                                           ;@delay_ms turn_dir_ms_cnt           Allocated to registers ;size:4
                                           ;@delay_ms shut_down_ms_cnt          Allocated to registers ;size:4
                                           ;@delay_ms adc_bat_val               Allocated to registers ;size:4
                                           ;@delay_ms adc_charging_val          Allocated to registers ;size:2
                                           ;@delay_ms max_pwm_val               Allocated to registers ;size:4
                                           ;@delay_ms last_pwm_val              Allocated to registers ;size:2
                                           ;@delay_ms tmp_val                   Allocated to registers ;size:2
                                           ;@delay_ms tmp_val_l                 Allocated to registers ;size:16
                                           ;@delay_ms tmp_val_cnt               Allocated to registers ;size:1
                                           ;@delay_ms flag_bat_is_empty         Allocated to registers ;size:1
                                           ;@delay_ms tmp_bat_val               Allocated to registers ;size:2
                                           ;@delay_ms over_charging_cnt         Allocated to registers ;size:1
                                           ;@delay_ms full_charge_cnt           Allocated to registers ;size:1
                                           ;@delay_ms abuf                      Allocated to registers ;size:1
                                           ;@delay_ms statusbuf                 Allocated to registers ;size:1
                                           ;@delay_ms xms                       Allocated to registers ;size:2
                                           ;@delay_ms i                         Allocated to registers r0x103E r0x103F ;size:2
                                           ;@delay_ms INDF0                     Allocated to registers ;size:1
                                           ;@delay_ms INDF1                     Allocated to registers ;size:1
                                           ;@delay_ms INDF2                     Allocated to registers ;size:1
                                           ;@delay_ms HIBYTE                    Allocated to registers ;size:1
                                           ;@delay_ms FSR0                      Allocated to registers ;size:1
                                           ;@delay_ms FSR1                      Allocated to registers ;size:1
                                           ;@delay_ms PCL                       Allocated to registers ;size:1
                                           ;@delay_ms PFLAG                     Allocated to registers ;size:1
                                           ;@delay_ms MCR                       Allocated to registers ;size:1
                                           ;@delay_ms INDF3                     Allocated to registers ;size:1
                                           ;@delay_ms INTE                      Allocated to registers ;size:1
                                           ;@delay_ms INTF                      Allocated to registers ;size:1
                                           ;@delay_ms DRVCR                     Allocated to registers ;size:1
                                           ;@delay_ms PFRCCR                    Allocated to registers ;size:1
                                           ;@delay_ms P1KBCR                    Allocated to registers ;size:1
                                           ;@delay_ms PFRCCAL                   Allocated to registers ;size:1
                                           ;@delay_ms IOP0                      Allocated to registers ;size:1
                                           ;@delay_ms OEP0                      Allocated to registers ;size:1
                                           ;@delay_ms PUP0                      Allocated to registers ;size:1
                                           ;@delay_ms PDP0                      Allocated to registers ;size:1
                                           ;@delay_ms IOP1                      Allocated to registers ;size:1
                                           ;@delay_ms OEP1                      Allocated to registers ;size:1
                                           ;@delay_ms PUP1                      Allocated to registers ;size:1
                                           ;@delay_ms PDP1                      Allocated to registers ;size:1
                                           ;@delay_ms T0CR                      Allocated to registers ;size:1
                                           ;@delay_ms T0CNT                     Allocated to registers ;size:1
                                           ;@delay_ms T0LOAD                    Allocated to registers ;size:1
                                           ;@delay_ms T0DATA                    Allocated to registers ;size:1
                                           ;@delay_ms T1CR                      Allocated to registers ;size:1
                                           ;@delay_ms T1CNT                     Allocated to registers ;size:1
                                           ;@delay_ms T1LOAD                    Allocated to registers ;size:1
                                           ;@delay_ms T1DATA                    Allocated to registers ;size:1
                                           ;@delay_ms T2CR                      Allocated to registers ;size:1
                                           ;@delay_ms T2CNT                     Allocated to registers ;size:1
                                           ;@delay_ms T2LOAD                    Allocated to registers ;size:1
                                           ;@delay_ms T2DATA                    Allocated to registers ;size:1
                                           ;@delay_ms T3CR                      Allocated to registers ;size:1
                                           ;@delay_ms T3CNT                     Allocated to registers ;size:1
                                           ;@delay_ms T3LOAD                    Allocated to registers ;size:1
                                           ;@delay_ms PWM0DR                    Allocated to registers ;size:1
                                           ;@delay_ms PWM1DR                    Allocated to registers ;size:1
                                           ;@delay_ms PWM2DR                    Allocated to registers ;size:1
                                           ;@delay_ms PWMCR0                    Allocated to registers ;size:1
                                           ;@delay_ms PWMCR1                    Allocated to registers ;size:1
                                           ;@delay_ms OSCMR                     Allocated to registers ;size:1
                                           ;@delay_ms LVDCR                     Allocated to registers ;size:1
                                           ;@delay_ms ADCR0                     Allocated to registers ;size:1
                                           ;@delay_ms ADCR1                     Allocated to registers ;size:1
                                           ;@delay_ms ADCR2                     Allocated to registers ;size:1
                                           ;@delay_ms OSADJCR                   Allocated to registers ;size:1
                                           ;@delay_ms ADRH                      Allocated to registers ;size:1
                                           ;@delay_ms ADRL                      Allocated to registers ;size:1
                                           ;@delay_ms ADIOS0                    Allocated to registers ;size:1
                                           ;@delay_ms ADIOS1                    Allocated to registers ;size:1
                                           ;@delay_ms PMOD                      Allocated to registers ;size:1
                                           ;@delay_ms PWMCR3                    Allocated to registers ;size:1
                                           ;@delay_ms PWMCR2                    Allocated to registers ;size:1
                                           ;@delay_ms PFRCAUX                   Allocated to registers ;size:1
                                           ;@delay_ms HIRCCAL                   Allocated to registers ;size:1
                                           ;@end Allocation info for local variables in function 'delay_ms';
                                           ;@Allocation info for local variables in function 'CLR_RAM'
                                           ;@end Allocation info for local variables in function 'CLR_RAM';
                                           ;@Allocation info for local variables in function 'IO_Init'
                                           ;@end Allocation info for local variables in function 'IO_Init';
                                           ;@Allocation info for local variables in function 'adc_config'
                                           ;@end Allocation info for local variables in function 'adc_config';
                                           ;@Allocation info for local variables in function 'timer0_pwm_config'
                                           ;@end Allocation info for local variables in function 'timer0_pwm_config';
                                           ;@Allocation info for local variables in function 'timer1_pwm_config'
                                           ;@end Allocation info for local variables in function 'timer1_pwm_config';
                                           ;@Allocation info for local variables in function 'timer2_pwm_config'
                                           ;@end Allocation info for local variables in function 'timer2_pwm_config';
                                           ;@Allocation info for local variables in function 'timer3_config'
                                           ;@end Allocation info for local variables in function 'timer3_config';
                                           ;@Allocation info for local variables in function 'key_config'
                                           ;@end Allocation info for local variables in function 'key_config';
                                           ;@Allocation info for local variables in function 'adc_sel_pin'
                                           ;@adc_sel_pin adc_pin                   Allocated to registers r0x1042 ;size:1
                                           ;@end Allocation info for local variables in function 'adc_sel_pin';
                                           ;@Allocation info for local variables in function 'adc_get_val'
                                           ;@adc_get_val i                         Allocated to registers r0x1044 ;size:1
                                           ;@adc_get_val g_temp_value              Allocated to registers r0x1045 r0x1046 ;size:2
                                           ;@adc_get_val g_tmpbuff                 Allocated to registers r0x1040 r0x1041 r0x1047 r0x1049 ;size:4
                                           ;@adc_get_val g_adcmax                  Allocated to registers r0x1040 r0x1041 ;size:2
                                           ;@adc_get_val g_adcmin                  Allocated to registers r0x1042 r0x1043 ;size:2
                                           ;@end Allocation info for local variables in function 'adc_get_val';
                                           ;@Allocation info for local variables in function 'adc_get_val_once'
                                           ;@adc_get_val_once g_temp_value              Allocated to registers r0x103F r0x103E ;size:2
                                           ;@end Allocation info for local variables in function 'adc_get_val_once';
                                           ;@Allocation info for local variables in function 'Sys_Init'
                                           ;@end Allocation info for local variables in function 'Sys_Init';
                                           ;@Allocation info for local variables in function 'key_scan'
                                           ;@key_scan last_key_id               Allocated to registers ;size:1
                                           ;@key_scan press_cnt                 Allocated to registers ;size:1
                                           ;@key_scan filter_cnt                Allocated to registers ;size:1
                                           ;@key_scan filter_key_id             Allocated to registers ;size:1
                                           ;@key_scan cur_key_id                Allocated to registers ;size:1
                                           ;@key_scan flag_is_key_mode_hold     Allocated to registers ;size:1
                                           ;@end Allocation info for local variables in function 'key_scan';
                                           ;@Allocation info for local variables in function 'key_scan'
                                           ;@key_scan last_key_id               Allocated to registers ;size:1
                                           ;@key_scan press_cnt                 Allocated to registers ;size:1
                                           ;@key_scan filter_cnt                Allocated to registers ;size:1
                                           ;@key_scan filter_key_id             Allocated to registers ;size:1
                                           ;@key_scan cur_key_id                Allocated to registers ;size:1
                                           ;@key_scan flag_is_key_mode_hold     Allocated to registers ;size:1
                                           ;@end Allocation info for local variables in function 'key_scan';
                                           ;@Allocation info for local variables in function 'key_event_handle'
                                           ;@end Allocation info for local variables in function 'key_event_handle';
                                           ;@Allocation info for local variables in function 'adc_scan_handle'
                                           ;@adc_scan_handle cnt                       Allocated to registers ;size:1
                                           ;@adc_scan_handle need_charge_cnt           Allocated to registers ;size:1
                                           ;@end Allocation info for local variables in function 'adc_scan_handle';
                                           ;@Allocation info for local variables in function 'turn_dir_scan_handle'
                                           ;@end Allocation info for local variables in function 'turn_dir_scan_handle';
                                           ;@Allocation info for local variables in function 'shutdown_scan_handle'
                                           ;@end Allocation info for local variables in function 'shutdown_scan_handle';
                                           ;@Allocation info for local variables in function 'low_power_scan_handle'
                                           ;@end Allocation info for local variables in function 'low_power_scan_handle';
                                           ;@Allocation info for local variables in function 'main'
                                           ;@end Allocation info for local variables in function 'main';
                                           ;@Allocation info for local variables in function 'int_isr'
                                           ;@int_isr key_scan_cnt              Allocated to registers ;size:1
                                           ;@end Allocation info for local variables in function 'int_isr';
                                           ;@Allocation info for local variables in function 'int_isr'
                                           ;@int_isr key_scan_cnt              Allocated to registers ;size:1
                                           ;@end Allocation info for local variables in function 'int_isr';
                                           
                                           ;--------------------------------------------------------
                                           ; overlayable items in internal ram 
                                           ;--------------------------------------------------------
                                           ;	udata_ovr
                                           ;--------------------------------------------------------
                                           ; reset vector 
                                           ;--------------------------------------------------------
                                           STARTUP	code 0x0000
000000   a034     goto    0x34             	goto	_main
                                           ;--------------------------------------------------------
                                           ; interrupt and initialization code
                                           ;--------------------------------------------------------
                                           c_interrupt	code	0x8
                                           __sdcc_interrupt
                                           ;***
                                           ;  pBlock Stats: dbName = I
                                           ;***
                                           ;entry:  _int_isr	;Function start
                                           ; 0 exit points
                                           ;functions called:
                                           ;   _key_scan
                                           ;   _key_scan
                                           ;2 compiler assigned registers:
                                           ;   r0x1055
                                           ;   r0x1056
                                           ;; Starting pCode block
                                           _int_isr	;Function start
                                           ; 0 exit points
                                           ;	.line	1349; "MC32P7351.c"	__endasm;
                                           	;
000008   5680     movra   0x80             	movra	_abuf;
000009   4587     swapar  0x187            	swapar	_PFLAG;
00000a   5681     movra   0x81             	movra	_statusbuf;
                                           	
                                           ;	.line	1356; "MC32P7351.c"	if (T3IF & T3IE)
00000b   7620     clrr    0x20             	CLRR	r0x1055
00000c   ff8b     jbclr   0x18b, 0x7       	JBCLR	_INTFbits,7
00000d   6620     incr    0x20             	INCR	r0x1055
00000e   7621     clrr    0x21             	CLRR	r0x1056
00000f   ff8a     jbclr   0x18a, 0x7       	JBCLR	_INTEbits,7
000010   6621     incr    0x21             	INCR	r0x1056
000011   5821     movar   0x21             	MOVAR	r0x1056
000012   7a20     andra   0x20             	ANDRA	r0x1055
000013   3c00     movai   0                	MOVAI	0x00
000014   5c20     orar    0x20             	ORAR	r0x1055
000015   f587     jbclr   0x187, 0x2       	JBCLR	PFLAG,2
000016   a02f     goto    0x2f             	GOTO	_00921_DS_
                                           ;	.line	1361; "MC32P7351.c"	key_scan_cnt++;
000017   662a     incr    0x2a             	INCR	_int_isr_key_scan_cnt_196608_204
                                           ;;unsigned compare: left < lit(0xA=10), size=1
                                           ;	.line	1362; "MC32P7351.c"	if (key_scan_cnt >= 10)
000018   3c0a     movai   0xa              	MOVAI	0x0a
000019   482a     rsubar  0x2a             	RSUBAR	_int_isr_key_scan_cnt_196608_204
00001a   e187     jbset   0x187, 0         	JBSET	PFLAG,0
00001b   a01e     goto    0x1e             	GOTO	_00917_DS_
                                           ;;genSkipc:3291: created from rifx:013B5EFC
                                           ;	.line	1364; "MC32P7351.c"	key_scan_cnt = 0;
00001c   762a     clrr    0x2a             	CLRR	_int_isr_key_scan_cnt_196608_204
                                           ;	.line	1365; "MC32P7351.c"	key_scan();
00001d   842c     call    0x42c            	CALL	_key_scan
                                           _00917_DS_
                                           ;	.line	1369; "MC32P7351.c"	if (FLAG_IS_DEVICE_OPEN)
00001e   e076     jbset   0x76, 0          	JBSET	_flag1,0
00001f   a02e     goto    0x2e             	GOTO	_00919_DS_
                                           ;	.line	1371; "MC32P7351.c"	turn_dir_ms_cnt++;  // 会在 turn_dir_scan_handle() 内处理并清零
000020   665c     incr    0x5c             	INCR	_turn_dir_ms_cnt
000021   f587     jbclr   0x187, 0x2       	JBCLR	PFLAG,2
000022   665d     incr    0x5d             	INCR	(_turn_dir_ms_cnt + 1)
000023   f587     jbclr   0x187, 0x2       	JBCLR	PFLAG,2
000024   665e     incr    0x5e             	INCR	(_turn_dir_ms_cnt + 2)
000025   f587     jbclr   0x187, 0x2       	JBCLR	PFLAG,2
000026   665f     incr    0x5f             	INCR	(_turn_dir_ms_cnt + 3)
                                           ;	.line	1372; "MC32P7351.c"	shut_down_ms_cnt++; // 会在 shutdown_scan_handle() 内处理并清零
000027   6660     incr    0x60             	INCR	_shut_down_ms_cnt
000028   f587     jbclr   0x187, 0x2       	JBCLR	PFLAG,2
000029   6661     incr    0x61             	INCR	(_shut_down_ms_cnt + 1)
00002a   f587     jbclr   0x187, 0x2       	JBCLR	PFLAG,2
00002b   6662     incr    0x62             	INCR	(_shut_down_ms_cnt + 2)
00002c   f587     jbclr   0x187, 0x2       	JBCLR	PFLAG,2
00002d   6663     incr    0x63             	INCR	(_shut_down_ms_cnt + 3)
                                           _00919_DS_
                                           ;	.line	1380; "MC32P7351.c"	T3IF = 0;
00002e   df8b     bclr    0x18b, 0x7       	BCLR	_INTFbits,7
                                           _00921_DS_
                                           ;	.line	1388; "MC32P7351.c"	__endasm;
                                           	;
00002f   4481     swapar  0x81             	swapar	_statusbuf;
000030   5787     movra   0x187            	movra	_PFLAG;
000031   4680     swapr   0x80             	swapr	_abuf;
000032   4480     swapar  0x80             	swapar	_abuf;
                                           	
                                           END_OF_INTERRUPT
                                           ;	.line	1389; "MC32P7351.c"	}
000033   000d     retie                    	RETIE	
                                           
                                           ;--------------------------------------------------------
                                           ; code
                                           ;--------------------------------------------------------
                                           code_MC32P7351	code
                                           ;***
                                           ;  pBlock Stats: dbName = M
                                           ;***
                                           ;entry:  _main	;Function start
                                           ; 2 exit points
                                           ;has an exit
                                           ;functions called:
                                           ;   _Sys_Init
                                           ;   _delay_ms
                                           ;   _adc_sel_pin
                                           ;   _adc_get_val
                                           ;   _key_event_handle
                                           ;   _adc_scan_handle
                                           ;   _turn_dir_scan_handle
                                           ;   _shutdown_scan_handle
                                           ;   __mullong
                                           ;   __divulong
                                           ;   __mullong
                                           ;   __mullong
                                           ;   __divulong
                                           ;   __divulong
                                           ;   _delay_ms
                                           ;   _delay_ms
                                           ;   _key_event_handle
                                           ;   _delay_ms
                                           ;   _key_event_handle
                                           ;   _delay_ms
                                           ;   _low_power_scan_handle
                                           ;   _Sys_Init
                                           ;   _delay_ms
                                           ;   _adc_sel_pin
                                           ;   _adc_get_val
                                           ;   _key_event_handle
                                           ;   _adc_scan_handle
                                           ;   _turn_dir_scan_handle
                                           ;   _shutdown_scan_handle
                                           ;   __mullong
                                           ;   __divulong
                                           ;   __mullong
                                           ;   __mullong
                                           ;   __divulong
                                           ;   __divulong
                                           ;   _delay_ms
                                           ;   _delay_ms
                                           ;   _key_event_handle
                                           ;   _delay_ms
                                           ;   _key_event_handle
                                           ;   _delay_ms
                                           ;   _low_power_scan_handle
                                           ;17 compiler assigned registers:
                                           ;   STK00
                                           ;   r0x104B
                                           ;   r0x104C
                                           ;   STK06
                                           ;   STK05
                                           ;   STK04
                                           ;   STK03
                                           ;   STK02
                                           ;   STK01
                                           ;   r0x104D
                                           ;   r0x104E
                                           ;   r0x104F
                                           ;   r0x1050
                                           ;   r0x1051
                                           ;   r0x1052
                                           ;   r0x1053
                                           ;   r0x1054
                                           ;; Starting pCode block
                                           _main	;Function start
                                           ; 2 exit points
                                           ;	.line	1077; "MC32P7351.c"	Sys_Init();
000034   848f     call    0x48f            	CALL	_Sys_Init
                                           ;	.line	1079; "MC32P7351.c"	delay_ms(100); // 等待系统稳定
000035   3c64     movai   0x64             	MOVAI	0x64
000036   5606     movra   0x6              	MOVRA	STK00
000037   3c00     movai   0                	MOVAI	0x00
000038   85ba     call    0x5ba            	CALL	_delay_ms
                                           ;	.line	1084; "MC32P7351.c"	PWM2EC = 1; // 打开控制升压电路的pwm
000039   cda0     bset    0x1a0, 0x6       	BSET	_T2CRbits,6
                                           ;	.line	1085; "MC32P7351.c"	T2DATA = 100;
00003a   3c64     movai   0x64             	MOVAI	0x64
00003b   57a3     movra   0x1a3            	MOVRA	_T2DATA
                                           ;	.line	1086; "MC32P7351.c"	adc_sel_pin(ADC_PIN_P02_AN1); // 切换到检测电池降压后的电压的检测引脚
00003c   3c02     movai   0x2              	MOVAI	0x02
00003d   8556     call    0x556            	CALL	_adc_sel_pin
                                           ;	.line	1087; "MC32P7351.c"	for (i = 0; i < 10; i++)      // 每55ms进入一次，循环内每次间隔约4.8ms
00003e   767b     clrr    0x7b             	CLRR	_i
                                           ;;unsigned compare: left < lit(0xA=10), size=1
                                           _00797_DS_
00003f   3c0a     movai   0xa              	MOVAI	0x0a
000040   487b     rsubar  0x7b             	RSUBAR	_i
000041   f187     jbclr   0x187, 0         	JBCLR	PFLAG,0
000042   a054     goto    0x54             	GOTO	_00744_DS_
                                           ;;genSkipc:3291: created from rifx:013B5EFC
                                           ;	.line	1089; "MC32P7351.c"	adc_val = adc_get_val();
000043   84b9     call    0x4b9            	CALL	_adc_get_val
000044   566d     movra   0x6d             	MOVRA	(_adc_val + 1)
000045   5806     movar   0x6              	MOVAR	STK00
000046   566c     movra   0x6c             	MOVRA	_adc_val
                                           ;;unsigned compare: left < lit(0xFA0=4000), size=2
                                           ;	.line	1090; "MC32P7351.c"	if (adc_val >= ADCDETECT_BAT_FULL + ADCDETECT_BAT_NULL_EX)
000047   3c0f     movai   0xf              	MOVAI	0x0f
000048   486d     rsubar  0x6d             	RSUBAR	(_adc_val + 1)
000049   e587     jbset   0x187, 0x2       	JBSET	PFLAG,2
00004a   a04d     goto    0x4d             	GOTO	_00903_DS_
00004b   3ca0     movai   0xa0             	MOVAI	0xa0
00004c   486c     rsubar  0x6c             	RSUBAR	_adc_val
                                           _00903_DS_
00004d   e187     jbset   0x187, 0         	JBSET	PFLAG,0
00004e   a052     goto    0x52             	GOTO	_00798_DS_
                                           ;;genSkipc:3291: created from rifx:013B5EFC
                                           ;	.line	1092; "MC32P7351.c"	flag_bat_is_empty = 1;
00004f   3c01     movai   0x1              	MOVAI	0x01
000050   567d     movra   0x7d             	MOVRA	_flag_bat_is_empty
                                           ;	.line	1093; "MC32P7351.c"	FLAG_DURING_CHARGING_BAT_IS_NULL = 1; // 标志位置一，在主循环让绿灯快闪
000051   ce76     bset    0x76, 0x7        	BSET	_flag1,7
                                           _00798_DS_
                                           ;	.line	1087; "MC32P7351.c"	for (i = 0; i < 10; i++)      // 每55ms进入一次，循环内每次间隔约4.8ms
000052   667b     incr    0x7b             	INCR	_i
000053   a03f     goto    0x3f             	GOTO	_00797_DS_
                                           _00744_DS_
                                           ;	.line	1096; "MC32P7351.c"	PWM2EC = 0; // 关闭控制升压电路的pwm
000054   dda0     bclr    0x1a0, 0x6       	BCLR	_T2CRbits,6
                                           ;	.line	1097; "MC32P7351.c"	T2DATA = 0;
000055   77a3     clrr    0x1a3            	CLRR	_T2DATA
                                           _00794_DS_
                                           ;	.line	1120; "MC32P7351.c"	key_event_handle(); // 按键事件处理函数，扫描在中断服务函数内执行
000056   83da     call    0x3da            	CALL	_key_event_handle
                                           ;	.line	1121; "MC32P7351.c"	adc_scan_handle();  // 充电扫描和处理函数(约占用89ms)
000057   82e9     call    0x2e9            	CALL	_adc_scan_handle
                                           ;	.line	1123; "MC32P7351.c"	turn_dir_scan_handle();
000058   82bc     call    0x2bc            	CALL	_turn_dir_scan_handle
                                           ;	.line	1124; "MC32P7351.c"	shutdown_scan_handle(); // 自动关机检测和处理函数
000059   829c     call    0x29c            	CALL	_shutdown_scan_handle
                                           ;	.line	1128; "MC32P7351.c"	if (FLAG_IS_IN_CHARGING)
00005a   e476     jbset   0x76, 0x2        	JBSET	_flag1,2
00005b   a22d     goto    0x22d            	GOTO	_00774_DS_
                                           ;	.line	1130; "MC32P7351.c"	last_pwm_val = T2DATA;      // 读出上一次PWM占空比对应的值
00005c   59a3     movar   0x1a3            	MOVAR	_T2DATA
00005d   5670     movra   0x70             	MOVRA	_last_pwm_val
00005e   7671     clrr    0x71             	CLRR	(_last_pwm_val + 1)
                                           ;	.line	1131; "MC32P7351.c"	max_pwm_val = (T2LOAD + 1); // 读出PWM占空比设定的、最大的值
00005f   59a2     movar   0x1a2            	MOVAR	_T2LOAD
000060   5616     movra   0x16             	MOVRA	r0x104B
000061   7617     clrr    0x17             	CLRR	r0x104C
000062   3c01     movai   0x1              	MOVAI	0x01
000063   7c16     addar   0x16             	ADDAR	r0x104B
000064   5668     movra   0x68             	MOVRA	_max_pwm_val
000065   7669     clrr    0x69             	CLRR	(_max_pwm_val + 1)
000066   5269     rlr     0x69             	RLR	(_max_pwm_val + 1)
000067   3c00     movai   0                	MOVAI	0x00
000068   7e69     addra   0x69             	ADDRA	(_max_pwm_val + 1)
000069   766a     clrr    0x6a             	CLRR	(_max_pwm_val + 2)
00006a   766b     clrr    0x6b             	CLRR	(_max_pwm_val + 3)
                                           ;;swapping arguments (AOP_TYPEs 1/3)
                                           ;;unsigned compare: left >= lit(0xB16=2838), size=4
                                           ;	.line	1155; "MC32P7351.c"	if (adc_bat_val <= 2837) // 如果检测电池电压小于 6.5V
00006b   3c00     movai   0                	MOVAI	0x00
00006c   4867     rsubar  0x67             	RSUBAR	(_adc_bat_val + 3)
00006d   e587     jbset   0x187, 0x2       	JBSET	PFLAG,2
00006e   a079     goto    0x79             	GOTO	_00904_DS_
00006f   3c00     movai   0                	MOVAI	0x00
000070   4866     rsubar  0x66             	RSUBAR	(_adc_bat_val + 2)
000071   e587     jbset   0x187, 0x2       	JBSET	PFLAG,2
000072   a079     goto    0x79             	GOTO	_00904_DS_
000073   3c0b     movai   0xb              	MOVAI	0x0b
000074   4865     rsubar  0x65             	RSUBAR	(_adc_bat_val + 1)
000075   e587     jbset   0x187, 0x2       	JBSET	PFLAG,2
000076   a079     goto    0x79             	GOTO	_00904_DS_
000077   3c16     movai   0x16             	MOVAI	0x16
000078   4864     rsubar  0x64             	RSUBAR	_adc_bat_val
                                           _00904_DS_
000079   f187     jbclr   0x187, 0         	JBCLR	PFLAG,0
00007a   a087     goto    0x87             	GOTO	_00755_DS_
                                           ;;genSkipc:3291: created from rifx:013B5EFC
                                           ;	.line	1157; "MC32P7351.c"	tmp_bat_val = (adc_bat_val + 37);
00007b   5864     movar   0x64             	MOVAR	_adc_bat_val
00007c   5616     movra   0x16             	MOVRA	r0x104B
00007d   5865     movar   0x65             	MOVAR	(_adc_bat_val + 1)
00007e   5617     movra   0x17             	MOVRA	r0x104C
00007f   3c25     movai   0x25             	MOVAI	0x25
000080   7c16     addar   0x16             	ADDAR	r0x104B
000081   5674     movra   0x74             	MOVRA	_tmp_bat_val
000082   7675     clrr    0x75             	CLRR	(_tmp_bat_val + 1)
000083   5275     rlr     0x75             	RLR	(_tmp_bat_val + 1)
000084   5817     movar   0x17             	MOVAR	r0x104C
000085   7e75     addra   0x75             	ADDRA	(_tmp_bat_val + 1)
000086   a119     goto    0x119            	GOTO	_00756_DS_
                                           ;;swapping arguments (AOP_TYPEs 1/3)
                                           ;;unsigned compare: left >= lit(0xBF1=3057), size=4
                                           _00755_DS_
                                           ;	.line	1159; "MC32P7351.c"	else if (adc_bat_val <= 3056) // 如果检测电池电压小于 7.0V
000087   3c00     movai   0                	MOVAI	0x00
000088   4867     rsubar  0x67             	RSUBAR	(_adc_bat_val + 3)
000089   e587     jbset   0x187, 0x2       	JBSET	PFLAG,2
00008a   a095     goto    0x95             	GOTO	_00905_DS_
00008b   3c00     movai   0                	MOVAI	0x00
00008c   4866     rsubar  0x66             	RSUBAR	(_adc_bat_val + 2)
00008d   e587     jbset   0x187, 0x2       	JBSET	PFLAG,2
00008e   a095     goto    0x95             	GOTO	_00905_DS_
00008f   3c0b     movai   0xb              	MOVAI	0x0b
000090   4865     rsubar  0x65             	RSUBAR	(_adc_bat_val + 1)
000091   e587     jbset   0x187, 0x2       	JBSET	PFLAG,2
000092   a095     goto    0x95             	GOTO	_00905_DS_
000093   3cf1     movai   0xf1             	MOVAI	0xf1
000094   4864     rsubar  0x64             	RSUBAR	_adc_bat_val
                                           _00905_DS_
000095   f187     jbclr   0x187, 0         	JBCLR	PFLAG,0
000096   a0a3     goto    0xa3             	GOTO	_00752_DS_
                                           ;;genSkipc:3291: created from rifx:013B5EFC
                                           ;	.line	1162; "MC32P7351.c"	tmp_bat_val = (adc_bat_val + 27);
000097   5864     movar   0x64             	MOVAR	_adc_bat_val
000098   5616     movra   0x16             	MOVRA	r0x104B
000099   5865     movar   0x65             	MOVAR	(_adc_bat_val + 1)
00009a   5617     movra   0x17             	MOVRA	r0x104C
00009b   3c1b     movai   0x1b             	MOVAI	0x1b
00009c   7c16     addar   0x16             	ADDAR	r0x104B
00009d   5674     movra   0x74             	MOVRA	_tmp_bat_val
00009e   7675     clrr    0x75             	CLRR	(_tmp_bat_val + 1)
00009f   5275     rlr     0x75             	RLR	(_tmp_bat_val + 1)
0000a0   5817     movar   0x17             	MOVAR	r0x104C
0000a1   7e75     addra   0x75             	ADDRA	(_tmp_bat_val + 1)
0000a2   a119     goto    0x119            	GOTO	_00756_DS_
                                           ;;swapping arguments (AOP_TYPEs 1/3)
                                           ;;unsigned compare: left >= lit(0xC75=3189), size=4
                                           _00752_DS_
                                           ;	.line	1164; "MC32P7351.c"	else if (adc_bat_val <= 3188) // 如果检测电池电压小于 7.3V
0000a3   3c00     movai   0                	MOVAI	0x00
0000a4   4867     rsubar  0x67             	RSUBAR	(_adc_bat_val + 3)
0000a5   e587     jbset   0x187, 0x2       	JBSET	PFLAG,2
0000a6   a0b1     goto    0xb1             	GOTO	_00906_DS_
0000a7   3c00     movai   0                	MOVAI	0x00
0000a8   4866     rsubar  0x66             	RSUBAR	(_adc_bat_val + 2)
0000a9   e587     jbset   0x187, 0x2       	JBSET	PFLAG,2
0000aa   a0b1     goto    0xb1             	GOTO	_00906_DS_
0000ab   3c0c     movai   0xc              	MOVAI	0x0c
0000ac   4865     rsubar  0x65             	RSUBAR	(_adc_bat_val + 1)
0000ad   e587     jbset   0x187, 0x2       	JBSET	PFLAG,2
0000ae   a0b1     goto    0xb1             	GOTO	_00906_DS_
0000af   3c75     movai   0x75             	MOVAI	0x75
0000b0   4864     rsubar  0x64             	RSUBAR	_adc_bat_val
                                           _00906_DS_
0000b1   f187     jbclr   0x187, 0         	JBCLR	PFLAG,0
0000b2   a0bf     goto    0xbf             	GOTO	_00749_DS_
                                           ;;genSkipc:3291: created from rifx:013B5EFC
                                           ;	.line	1167; "MC32P7351.c"	tmp_bat_val = (adc_bat_val + 16);
0000b3   5864     movar   0x64             	MOVAR	_adc_bat_val
0000b4   5616     movra   0x16             	MOVRA	r0x104B
0000b5   5865     movar   0x65             	MOVAR	(_adc_bat_val + 1)
0000b6   5617     movra   0x17             	MOVRA	r0x104C
0000b7   3c10     movai   0x10             	MOVAI	0x10
0000b8   7c16     addar   0x16             	ADDAR	r0x104B
0000b9   5674     movra   0x74             	MOVRA	_tmp_bat_val
0000ba   7675     clrr    0x75             	CLRR	(_tmp_bat_val + 1)
0000bb   5275     rlr     0x75             	RLR	(_tmp_bat_val + 1)
0000bc   5817     movar   0x17             	MOVAR	r0x104C
0000bd   7e75     addra   0x75             	ADDRA	(_tmp_bat_val + 1)
0000be   a119     goto    0x119            	GOTO	_00756_DS_
                                           ;;swapping arguments (AOP_TYPEs 1/3)
                                           ;;unsigned compare: left >= lit(0xCFF=3327), size=4
                                           _00749_DS_
                                           ;	.line	1169; "MC32P7351.c"	else if (adc_bat_val <= 3326) // 如果检测电池电压小于 7.62V
0000bf   3c00     movai   0                	MOVAI	0x00
0000c0   4867     rsubar  0x67             	RSUBAR	(_adc_bat_val + 3)
0000c1   e587     jbset   0x187, 0x2       	JBSET	PFLAG,2
0000c2   a0cd     goto    0xcd             	GOTO	_00907_DS_
0000c3   3c00     movai   0                	MOVAI	0x00
0000c4   4866     rsubar  0x66             	RSUBAR	(_adc_bat_val + 2)
0000c5   e587     jbset   0x187, 0x2       	JBSET	PFLAG,2
0000c6   a0cd     goto    0xcd             	GOTO	_00907_DS_
0000c7   3c0c     movai   0xc              	MOVAI	0x0c
0000c8   4865     rsubar  0x65             	RSUBAR	(_adc_bat_val + 1)
0000c9   e587     jbset   0x187, 0x2       	JBSET	PFLAG,2
0000ca   a0cd     goto    0xcd             	GOTO	_00907_DS_
0000cb   3cff     movai   0xff             	MOVAI	0xff
0000cc   4864     rsubar  0x64             	RSUBAR	_adc_bat_val
                                           _00907_DS_
0000cd   f187     jbclr   0x187, 0         	JBCLR	PFLAG,0
0000ce   a0d4     goto    0xd4             	GOTO	_00746_DS_
                                           ;;genSkipc:3291: created from rifx:013B5EFC
                                           ;	.line	1172; "MC32P7351.c"	tmp_bat_val = (adc_bat_val + 0);
0000cf   5864     movar   0x64             	MOVAR	_adc_bat_val
0000d0   5674     movra   0x74             	MOVRA	_tmp_bat_val
0000d1   5865     movar   0x65             	MOVAR	(_adc_bat_val + 1)
0000d2   5675     movra   0x75             	MOVRA	(_tmp_bat_val + 1)
0000d3   a119     goto    0x119            	GOTO	_00756_DS_
                                           _00746_DS_
                                           ;	.line	1185; "MC32P7351.c"	tmp_bat_val = (u32)adc_bat_val - ((u32)adc_bat_val * 157 / 1000 - 522);
0000d4   5864     movar   0x64             	MOVAR	_adc_bat_val
0000d5   5600     movra   0                	MOVRA	STK06
0000d6   5865     movar   0x65             	MOVAR	(_adc_bat_val + 1)
0000d7   5601     movra   0x1              	MOVRA	STK05
0000d8   5866     movar   0x66             	MOVAR	(_adc_bat_val + 2)
0000d9   5602     movra   0x2              	MOVRA	STK04
0000da   5867     movar   0x67             	MOVAR	(_adc_bat_val + 3)
0000db   5603     movra   0x3              	MOVRA	STK03
0000dc   3c9d     movai   0x9d             	MOVAI	0x9d
0000dd   5604     movra   0x4              	MOVRA	STK02
0000de   3c00     movai   0                	MOVAI	0x00
0000df   5605     movra   0x5              	MOVRA	STK01
0000e0   3c00     movai   0                	MOVAI	0x00
0000e1   5606     movra   0x6              	MOVRA	STK00
0000e2   3c00     movai   0                	MOVAI	0x00
0000e3   85da     call    0x5da            	CALL	__mullong
0000e4   5619     movra   0x19             	MOVRA	r0x104D
0000e5   5806     movar   0x6              	MOVAR	STK00
0000e6   5618     movra   0x18             	MOVRA	r0x104E
0000e7   5805     movar   0x5              	MOVAR	STK01
0000e8   5617     movra   0x17             	MOVRA	r0x104C
0000e9   5804     movar   0x4              	MOVAR	STK02
0000ea   5616     movra   0x16             	MOVRA	r0x104B
0000eb   3ce8     movai   0xe8             	MOVAI	0xe8
0000ec   5600     movra   0                	MOVRA	STK06
0000ed   3c03     movai   0x3              	MOVAI	0x03
0000ee   5601     movra   0x1              	MOVRA	STK05
0000ef   3c00     movai   0                	MOVAI	0x00
0000f0   5602     movra   0x2              	MOVRA	STK04
0000f1   3c00     movai   0                	MOVAI	0x00
0000f2   5603     movra   0x3              	MOVRA	STK03
0000f3   5816     movar   0x16             	MOVAR	r0x104B
0000f4   5604     movra   0x4              	MOVRA	STK02
0000f5   5817     movar   0x17             	MOVAR	r0x104C
0000f6   5605     movra   0x5              	MOVRA	STK01
0000f7   5818     movar   0x18             	MOVAR	r0x104E
0000f8   5606     movra   0x6              	MOVRA	STK00
0000f9   5819     movar   0x19             	MOVAR	r0x104D
0000fa   8665     call    0x665            	CALL	__divulong
0000fb   5619     movra   0x19             	MOVRA	r0x104D
0000fc   5806     movar   0x6              	MOVAR	STK00
0000fd   5618     movra   0x18             	MOVRA	r0x104E
0000fe   5805     movar   0x5              	MOVAR	STK01
0000ff   561b     movra   0x1b             	MOVRA	r0x1050
000100   5617     movra   0x17             	MOVRA	r0x104C
000101   5804     movar   0x4              	MOVAR	STK02
000102   561a     movra   0x1a             	MOVRA	r0x104F
000103   5616     movra   0x16             	MOVRA	r0x104B
                                           ;;124	MOVAR	r0x104B
                                           ;;125	MOVAR	r0x104C
000104   3cf6     movai   0xf6             	MOVAI	0xf6
000105   7c1a     addar   0x1a             	ADDAR	r0x104F
000106   5616     movra   0x16             	MOVRA	r0x104B
000107   3cfd     movai   0xfd             	MOVAI	0xfd
000108   5617     movra   0x17             	MOVRA	r0x104C
000109   581b     movar   0x1b             	MOVAR	r0x1050
00010a   f187     jbclr   0x187, 0         	JBCLR	PFLAG,0
00010b   601b     jzar    0x1b             	JZAR	r0x1050
00010c   7e17     addra   0x17             	ADDRA	r0x104C
00010d   5864     movar   0x64             	MOVAR	_adc_bat_val
00010e   561a     movra   0x1a             	MOVRA	r0x104F
00010f   5865     movar   0x65             	MOVAR	(_adc_bat_val + 1)
000110   561b     movra   0x1b             	MOVRA	r0x1050
000111   5816     movar   0x16             	MOVAR	r0x104B
000112   481a     rsubar  0x1a             	RSUBAR	r0x104F
000113   5674     movra   0x74             	MOVRA	_tmp_bat_val
000114   5817     movar   0x17             	MOVAR	r0x104C
000115   e187     jbset   0x187, 0         	JBSET	PFLAG,0
000116   6417     incar   0x17             	INCAR	r0x104C
000117   481b     rsubar  0x1b             	RSUBAR	r0x1050
000118   5675     movra   0x75             	MOVRA	(_tmp_bat_val + 1)
                                           _00756_DS_
                                           ;	.line	1207; "MC32P7351.c"	tmp_bat_val += 55;
000119   3c37     movai   0x37             	MOVAI	0x37
00011a   7e74     addra   0x74             	ADDRA	_tmp_bat_val
00011b   f187     jbclr   0x187, 0         	JBCLR	PFLAG,0
00011c   6675     incr    0x75             	INCR	(_tmp_bat_val + 1)
                                           ;	.line	1253; "MC32P7351.c"	tmp_val = max_pwm_val - (adc_charging_val * max_pwm_val * 94 / 147) / tmp_bat_val;
00011d   586e     movar   0x6e             	MOVAR	_adc_charging_val
00011e   5616     movra   0x16             	MOVRA	r0x104B
00011f   586f     movar   0x6f             	MOVAR	(_adc_charging_val + 1)
000120   5617     movra   0x17             	MOVRA	r0x104C
000121   761a     clrr    0x1a             	CLRR	r0x104F
000122   761b     clrr    0x1b             	CLRR	r0x1050
000123   5868     movar   0x68             	MOVAR	_max_pwm_val
000124   5600     movra   0                	MOVRA	STK06
000125   5869     movar   0x69             	MOVAR	(_max_pwm_val + 1)
000126   5601     movra   0x1              	MOVRA	STK05
000127   586a     movar   0x6a             	MOVAR	(_max_pwm_val + 2)
000128   5602     movra   0x2              	MOVRA	STK04
000129   586b     movar   0x6b             	MOVAR	(_max_pwm_val + 3)
00012a   5603     movra   0x3              	MOVRA	STK03
00012b   5816     movar   0x16             	MOVAR	r0x104B
00012c   5604     movra   0x4              	MOVRA	STK02
00012d   5817     movar   0x17             	MOVAR	r0x104C
00012e   5605     movra   0x5              	MOVRA	STK01
00012f   3c00     movai   0                	MOVAI	0x00
000130   5606     movra   0x6              	MOVRA	STK00
000131   3c00     movai   0                	MOVAI	0x00
000132   85da     call    0x5da            	CALL	__mullong
000133   561b     movra   0x1b             	MOVRA	r0x1050
000134   5806     movar   0x6              	MOVAR	STK00
000135   561a     movra   0x1a             	MOVRA	r0x104F
000136   5805     movar   0x5              	MOVAR	STK01
000137   5617     movra   0x17             	MOVRA	r0x104C
000138   5804     movar   0x4              	MOVAR	STK02
000139   5616     movra   0x16             	MOVRA	r0x104B
00013a   5816     movar   0x16             	MOVAR	r0x104B
00013b   5600     movra   0                	MOVRA	STK06
00013c   5817     movar   0x17             	MOVAR	r0x104C
00013d   5601     movra   0x1              	MOVRA	STK05
00013e   581a     movar   0x1a             	MOVAR	r0x104F
00013f   5602     movra   0x2              	MOVRA	STK04
000140   581b     movar   0x1b             	MOVAR	r0x1050
000141   5603     movra   0x3              	MOVRA	STK03
000142   3c5e     movai   0x5e             	MOVAI	0x5e
000143   5604     movra   0x4              	MOVRA	STK02
000144   3c00     movai   0                	MOVAI	0x00
000145   5605     movra   0x5              	MOVRA	STK01
000146   3c00     movai   0                	MOVAI	0x00
000147   5606     movra   0x6              	MOVRA	STK00
000148   3c00     movai   0                	MOVAI	0x00
000149   85da     call    0x5da            	CALL	__mullong
00014a   561b     movra   0x1b             	MOVRA	r0x1050
00014b   5806     movar   0x6              	MOVAR	STK00
00014c   561a     movra   0x1a             	MOVRA	r0x104F
00014d   5805     movar   0x5              	MOVAR	STK01
00014e   5617     movra   0x17             	MOVRA	r0x104C
00014f   5804     movar   0x4              	MOVAR	STK02
000150   5616     movra   0x16             	MOVRA	r0x104B
000151   3c93     movai   0x93             	MOVAI	0x93
000152   5600     movra   0                	MOVRA	STK06
000153   3c00     movai   0                	MOVAI	0x00
000154   5601     movra   0x1              	MOVRA	STK05
000155   3c00     movai   0                	MOVAI	0x00
000156   5602     movra   0x2              	MOVRA	STK04
000157   3c00     movai   0                	MOVAI	0x00
000158   5603     movra   0x3              	MOVRA	STK03
000159   5816     movar   0x16             	MOVAR	r0x104B
00015a   5604     movra   0x4              	MOVRA	STK02
00015b   5817     movar   0x17             	MOVAR	r0x104C
00015c   5605     movra   0x5              	MOVRA	STK01
00015d   581a     movar   0x1a             	MOVAR	r0x104F
00015e   5606     movra   0x6              	MOVRA	STK00
00015f   581b     movar   0x1b             	MOVAR	r0x1050
000160   8665     call    0x665            	CALL	__divulong
000161   561b     movra   0x1b             	MOVRA	r0x1050
000162   5806     movar   0x6              	MOVAR	STK00
000163   561a     movra   0x1a             	MOVRA	r0x104F
000164   5805     movar   0x5              	MOVAR	STK01
000165   5617     movra   0x17             	MOVRA	r0x104C
000166   5804     movar   0x4              	MOVAR	STK02
000167   5616     movra   0x16             	MOVRA	r0x104B
000168   5874     movar   0x74             	MOVAR	_tmp_bat_val
000169   561c     movra   0x1c             	MOVRA	r0x1051
00016a   5875     movar   0x75             	MOVAR	(_tmp_bat_val + 1)
00016b   561d     movra   0x1d             	MOVRA	r0x1052
00016c   761e     clrr    0x1e             	CLRR	r0x1053
00016d   761f     clrr    0x1f             	CLRR	r0x1054
00016e   581c     movar   0x1c             	MOVAR	r0x1051
00016f   5600     movra   0                	MOVRA	STK06
000170   581d     movar   0x1d             	MOVAR	r0x1052
000171   5601     movra   0x1              	MOVRA	STK05
000172   3c00     movai   0                	MOVAI	0x00
000173   5602     movra   0x2              	MOVRA	STK04
000174   3c00     movai   0                	MOVAI	0x00
000175   5603     movra   0x3              	MOVRA	STK03
000176   5816     movar   0x16             	MOVAR	r0x104B
000177   5604     movra   0x4              	MOVRA	STK02
000178   5817     movar   0x17             	MOVAR	r0x104C
000179   5605     movra   0x5              	MOVRA	STK01
00017a   581a     movar   0x1a             	MOVAR	r0x104F
00017b   5606     movra   0x6              	MOVRA	STK00
00017c   581b     movar   0x1b             	MOVAR	r0x1050
00017d   8665     call    0x665            	CALL	__divulong
00017e   561b     movra   0x1b             	MOVRA	r0x1050
00017f   5806     movar   0x6              	MOVAR	STK00
000180   561a     movra   0x1a             	MOVRA	r0x104F
000181   5805     movar   0x5              	MOVAR	STK01
000182   561f     movra   0x1f             	MOVRA	r0x1054
000183   5617     movra   0x17             	MOVRA	r0x104C
000184   5804     movar   0x4              	MOVAR	STK02
000185   561e     movra   0x1e             	MOVRA	r0x1053
000186   5616     movra   0x16             	MOVRA	r0x104B
000187   5868     movar   0x68             	MOVAR	_max_pwm_val
000188   561c     movra   0x1c             	MOVRA	r0x1051
000189   5869     movar   0x69             	MOVAR	(_max_pwm_val + 1)
00018a   561d     movra   0x1d             	MOVRA	r0x1052
                                           ;;121	MOVAR	r0x104B
                                           ;;122	MOVAR	r0x104C
00018b   581e     movar   0x1e             	MOVAR	r0x1053
00018c   481c     rsubar  0x1c             	RSUBAR	r0x1051
00018d   5672     movra   0x72             	MOVRA	_tmp_val
00018e   581f     movar   0x1f             	MOVAR	r0x1054
00018f   e187     jbset   0x187, 0         	JBSET	PFLAG,0
000190   641f     incar   0x1f             	INCAR	r0x1054
000191   481d     rsubar  0x1d             	RSUBAR	r0x1052
000192   5673     movra   0x73             	MOVRA	(_tmp_val + 1)
                                           ;	.line	1255; "MC32P7351.c"	if (tmp_val >= max_pwm_val)
000193   5872     movar   0x72             	MOVAR	_tmp_val
000194   5616     movra   0x16             	MOVRA	r0x104B
000195   5873     movar   0x73             	MOVAR	(_tmp_val + 1)
000196   5617     movra   0x17             	MOVRA	r0x104C
000197   761a     clrr    0x1a             	CLRR	r0x104F
000198   761b     clrr    0x1b             	CLRR	r0x1050
000199   586b     movar   0x6b             	MOVAR	(_max_pwm_val + 3)
00019a   481b     rsubar  0x1b             	RSUBAR	r0x1050
00019b   e587     jbset   0x187, 0x2       	JBSET	PFLAG,2
00019c   a1a7     goto    0x1a7            	GOTO	_00908_DS_
00019d   586a     movar   0x6a             	MOVAR	(_max_pwm_val + 2)
00019e   481a     rsubar  0x1a             	RSUBAR	r0x104F
00019f   e587     jbset   0x187, 0x2       	JBSET	PFLAG,2
0001a0   a1a7     goto    0x1a7            	GOTO	_00908_DS_
0001a1   5869     movar   0x69             	MOVAR	(_max_pwm_val + 1)
0001a2   4817     rsubar  0x17             	RSUBAR	r0x104C
0001a3   e587     jbset   0x187, 0x2       	JBSET	PFLAG,2
0001a4   a1a7     goto    0x1a7            	GOTO	_00908_DS_
0001a5   5868     movar   0x68             	MOVAR	_max_pwm_val
0001a6   4816     rsubar  0x16             	RSUBAR	r0x104B
                                           _00908_DS_
0001a7   e187     jbset   0x187, 0         	JBSET	PFLAG,0
0001a8   a1ab     goto    0x1ab            	GOTO	_00758_DS_
                                           ;;genSkipc:3291: created from rifx:013B5EFC
                                           ;	.line	1258; "MC32P7351.c"	tmp_val = 0;
0001a9   7672     clrr    0x72             	CLRR	_tmp_val
0001aa   7673     clrr    0x73             	CLRR	(_tmp_val + 1)
                                           _00758_DS_
                                           ;	.line	1262; "MC32P7351.c"	tmp_val_cnt++;
0001ab   667c     incr    0x7c             	INCR	_tmp_val_cnt
                                           ;	.line	1263; "MC32P7351.c"	tmp_val_cnt &= 0x07;
0001ac   3c07     movai   0x7              	MOVAI	0x07
0001ad   7a7c     andra   0x7c             	ANDRA	_tmp_val_cnt
                                           ;	.line	1264; "MC32P7351.c"	tmp_val_l[tmp_val_cnt] = (tmp_val_l[tmp_val_cnt] + tmp_val) >> 1;
0001ae   d187     bclr    0x187, 0         	BCLR	PFLAG,0
0001af   507c     rlar    0x7c             	RLAR	_tmp_val_cnt
0001b0   5616     movra   0x16             	MOVRA	r0x104B
0001b1   5816     movar   0x16             	MOVAR	r0x104B
0001b2   3f3c     addai   0x3c             	ADDAI	(_tmp_val_l + 0)
0001b3   5616     movra   0x16             	MOVRA	r0x104B
0001b4   3c00     movai   0                	MOVAI	high (_tmp_val_l + 0)
0001b5   f187     jbclr   0x187, 0         	JBCLR	PFLAG,0
0001b6   3f01     addai   0x1              	ADDAI	0x01
0001b7   5617     movra   0x17             	MOVRA	r0x104C
0001b8   d187     bclr    0x187, 0         	BCLR	PFLAG,0
0001b9   507c     rlar    0x7c             	RLAR	_tmp_val_cnt
0001ba   561a     movra   0x1a             	MOVRA	r0x104F
0001bb   581a     movar   0x1a             	MOVAR	r0x104F
0001bc   3f3c     addai   0x3c             	ADDAI	(_tmp_val_l + 0)
0001bd   561a     movra   0x1a             	MOVRA	r0x104F
0001be   3c00     movai   0                	MOVAI	high (_tmp_val_l + 0)
0001bf   f187     jbclr   0x187, 0         	JBCLR	PFLAG,0
0001c0   3f01     addai   0x1              	ADDAI	0x01
0001c1   561b     movra   0x1b             	MOVRA	r0x1050
0001c2   581a     movar   0x1a             	MOVAR	r0x104F
0001c3   5784     movra   0x184            	MOVRA	FSR0
0001c4   581b     movar   0x1b             	MOVAR	r0x1050
0001c5   5785     movra   0x185            	MOVRA	FSR1
0001c6   5982     movar   0x182            	MOVAR	INDF2
0001c7   561c     movra   0x1c             	MOVRA	r0x1051
0001c8   6784     incr    0x184            	INCR	FSR0
0001c9   f587     jbclr   0x187, 0x2       	JBCLR	PFLAG,2
0001ca   6785     incr    0x185            	INCR	FSR1
0001cb   5982     movar   0x182            	MOVAR	INDF2
0001cc   561b     movra   0x1b             	MOVRA	r0x1050
0001cd   561d     movra   0x1d             	MOVRA	r0x1052
0001ce   5872     movar   0x72             	MOVAR	_tmp_val
0001cf   7c1c     addar   0x1c             	ADDAR	r0x1051
0001d0   561a     movra   0x1a             	MOVRA	r0x104F
                                           ;;123	MOVAR	r0x1052
0001d1   5873     movar   0x73             	MOVAR	(_tmp_val + 1)
0001d2   f187     jbclr   0x187, 0         	JBCLR	PFLAG,0
0001d3   6073     jzar    0x73             	JZAR	(_tmp_val + 1)
0001d4   7e1b     addra   0x1b             	ADDRA	r0x1050
                                           ;;shiftRight_Left2ResultLit:5339: shCount=1, size=2, sign=0, same=0, offr=0
0001d5   d187     bclr    0x187, 0         	BCLR	PFLAG,0
0001d6   4c1b     rrar    0x1b             	RRAR	r0x1050
0001d7   561d     movra   0x1d             	MOVRA	r0x1052
0001d8   4c1a     rrar    0x1a             	RRAR	r0x104F
0001d9   561c     movra   0x1c             	MOVRA	r0x1051
0001da   5816     movar   0x16             	MOVAR	r0x104B
0001db   5784     movra   0x184            	MOVRA	FSR0
0001dc   5817     movar   0x17             	MOVAR	r0x104C
0001dd   5785     movra   0x185            	MOVRA	FSR1
0001de   581c     movar   0x1c             	MOVAR	r0x1051
0001df   5782     movra   0x182            	MOVRA	INDF2
0001e0   6784     incr    0x184            	INCR	FSR0
0001e1   f587     jbclr   0x187, 0x2       	JBCLR	PFLAG,2
0001e2   6785     incr    0x185            	INCR	FSR1
0001e3   581d     movar   0x1d             	MOVAR	r0x1052
0001e4   5782     movra   0x182            	MOVRA	INDF2
                                           ;	.line	1265; "MC32P7351.c"	tmp_val = 0;
0001e5   7672     clrr    0x72             	CLRR	_tmp_val
0001e6   7673     clrr    0x73             	CLRR	(_tmp_val + 1)
                                           ;	.line	1266; "MC32P7351.c"	for (i = 0; i < 8; i++)
0001e7   767b     clrr    0x7b             	CLRR	_i
                                           ;;unsigned compare: left < lit(0x8=8), size=1
                                           _00800_DS_
0001e8   3c08     movai   0x8              	MOVAI	0x08
0001e9   487b     rsubar  0x7b             	RSUBAR	_i
0001ea   f187     jbclr   0x187, 0         	JBCLR	PFLAG,0
0001eb   a209     goto    0x209            	GOTO	_00759_DS_
                                           ;;genSkipc:3291: created from rifx:013B5EFC
                                           ;	.line	1268; "MC32P7351.c"	tmp_val += tmp_val_l[i];
0001ec   d187     bclr    0x187, 0         	BCLR	PFLAG,0
0001ed   507b     rlar    0x7b             	RLAR	_i
0001ee   5616     movra   0x16             	MOVRA	r0x104B
0001ef   5816     movar   0x16             	MOVAR	r0x104B
0001f0   3f3c     addai   0x3c             	ADDAI	(_tmp_val_l + 0)
0001f1   5616     movra   0x16             	MOVRA	r0x104B
0001f2   3c00     movai   0                	MOVAI	high (_tmp_val_l + 0)
0001f3   f187     jbclr   0x187, 0         	JBCLR	PFLAG,0
0001f4   3f01     addai   0x1              	ADDAI	0x01
0001f5   5617     movra   0x17             	MOVRA	r0x104C
0001f6   5816     movar   0x16             	MOVAR	r0x104B
0001f7   5784     movra   0x184            	MOVRA	FSR0
0001f8   5817     movar   0x17             	MOVAR	r0x104C
0001f9   5785     movra   0x185            	MOVRA	FSR1
0001fa   5982     movar   0x182            	MOVAR	INDF2
0001fb   561a     movra   0x1a             	MOVRA	r0x104F
0001fc   6784     incr    0x184            	INCR	FSR0
0001fd   f587     jbclr   0x187, 0x2       	JBCLR	PFLAG,2
0001fe   6785     incr    0x185            	INCR	FSR1
0001ff   5982     movar   0x182            	MOVAR	INDF2
000200   561b     movra   0x1b             	MOVRA	r0x1050
000201   581a     movar   0x1a             	MOVAR	r0x104F
000202   7e72     addra   0x72             	ADDRA	_tmp_val
000203   581b     movar   0x1b             	MOVAR	r0x1050
000204   f187     jbclr   0x187, 0         	JBCLR	PFLAG,0
000205   601b     jzar    0x1b             	JZAR	r0x1050
000206   7e73     addra   0x73             	ADDRA	(_tmp_val + 1)
                                           ;	.line	1266; "MC32P7351.c"	for (i = 0; i < 8; i++)
000207   667b     incr    0x7b             	INCR	_i
000208   a1e8     goto    0x1e8            	GOTO	_00800_DS_
                                           ;;shiftRight_Left2ResultLit:5339: shCount=1, size=2, sign=0, same=1, offr=0
                                           _00759_DS_
                                           ;	.line	1270; "MC32P7351.c"	tmp_val >>= 3;
000209   d187     bclr    0x187, 0         	BCLR	PFLAG,0
00020a   4e73     rrr     0x73             	RRR	(_tmp_val + 1)
00020b   4e72     rrr     0x72             	RRR	_tmp_val
                                           ;;shiftRight_Left2ResultLit:5339: shCount=1, size=2, sign=0, same=1, offr=0
00020c   d187     bclr    0x187, 0         	BCLR	PFLAG,0
00020d   4e73     rrr     0x73             	RRR	(_tmp_val + 1)
00020e   4e72     rrr     0x72             	RRR	_tmp_val
                                           ;;shiftRight_Left2ResultLit:5339: shCount=1, size=2, sign=0, same=1, offr=0
00020f   d187     bclr    0x187, 0         	BCLR	PFLAG,0
000210   4e73     rrr     0x73             	RRR	(_tmp_val + 1)
000211   4e72     rrr     0x72             	RRR	_tmp_val
                                           ;	.line	1272; "MC32P7351.c"	if (tmp_val > last_pwm_val)
000212   5873     movar   0x73             	MOVAR	(_tmp_val + 1)
000213   4871     rsubar  0x71             	RSUBAR	(_last_pwm_val + 1)
000214   e587     jbset   0x187, 0x2       	JBSET	PFLAG,2
000215   a218     goto    0x218            	GOTO	_00910_DS_
000216   5872     movar   0x72             	MOVAR	_tmp_val
000217   4870     rsubar  0x70             	RSUBAR	_last_pwm_val
                                           _00910_DS_
000218   f187     jbclr   0x187, 0         	JBCLR	PFLAG,0
000219   a21e     goto    0x21e            	GOTO	_00763_DS_
                                           ;;genSkipc:3291: created from rifx:013B5EFC
                                           ;	.line	1274; "MC32P7351.c"	last_pwm_val = last_pwm_val + 1;
00021a   6670     incr    0x70             	INCR	_last_pwm_val
00021b   f587     jbclr   0x187, 0x2       	JBCLR	PFLAG,2
00021c   6671     incr    0x71             	INCR	(_last_pwm_val + 1)
00021d   a22a     goto    0x22a            	GOTO	_00764_DS_
                                           _00763_DS_
                                           ;	.line	1276; "MC32P7351.c"	else if (tmp_val < last_pwm_val)
00021e   5871     movar   0x71             	MOVAR	(_last_pwm_val + 1)
00021f   4873     rsubar  0x73             	RSUBAR	(_tmp_val + 1)
000220   e587     jbset   0x187, 0x2       	JBSET	PFLAG,2
000221   a224     goto    0x224            	GOTO	_00911_DS_
000222   5870     movar   0x70             	MOVAR	_last_pwm_val
000223   4872     rsubar  0x72             	RSUBAR	_tmp_val
                                           _00911_DS_
000224   f187     jbclr   0x187, 0         	JBCLR	PFLAG,0
000225   a22a     goto    0x22a            	GOTO	_00764_DS_
                                           ;;genSkipc:3291: created from rifx:013B5EFC
                                           ;	.line	1278; "MC32P7351.c"	last_pwm_val = last_pwm_val - 1;
000226   3cff     movai   0xff             	MOVAI	0xff
000227   7e70     addra   0x70             	ADDRA	_last_pwm_val
000228   e187     jbset   0x187, 0         	JBSET	PFLAG,0
000229   6e71     decr    0x71             	DECR	(_last_pwm_val + 1)
                                           _00764_DS_
                                           ;	.line	1281; "MC32P7351.c"	T2DATA = last_pwm_val;
00022a   5870     movar   0x70             	MOVAR	_last_pwm_val
00022b   57a3     movra   0x1a3            	MOVRA	_T2DATA
00022c   a239     goto    0x239            	GOTO	_00775_DS_
                                           _00774_DS_
                                           ;	.line	1285; "MC32P7351.c"	if (FLAG_DURING_CHARGING_BAT_IS_NULL)
00022d   ee76     jbset   0x76, 0x7        	JBSET	_flag1,7
00022e   a239     goto    0x239            	GOTO	_00775_DS_
                                           ;	.line	1288; "MC32P7351.c"	LED_FULL_CHARGE_ON();
00022f   d790     bclr    0x190, 0x3       	BCLR	_IOP0bits,3
                                           ;	.line	1289; "MC32P7351.c"	delay_ms(200);
000230   3cc8     movai   0xc8             	MOVAI	0xc8
000231   5606     movra   0x6              	MOVRA	STK00
000232   3c00     movai   0                	MOVAI	0x00
000233   85ba     call    0x5ba            	CALL	_delay_ms
                                           ;	.line	1290; "MC32P7351.c"	LED_FULL_CHARGE_OFF();
000234   c790     bset    0x190, 0x3       	BSET	_IOP0bits,3
                                           ;	.line	1291; "MC32P7351.c"	delay_ms(200);
000235   3cc8     movai   0xc8             	MOVAI	0xc8
000236   5606     movra   0x6              	MOVRA	STK00
000237   3c00     movai   0                	MOVAI	0x00
000238   85ba     call    0x5ba            	CALL	_delay_ms
                                           _00775_DS_
                                           ;	.line	1295; "MC32P7351.c"	if (flag_is_low_battery && FLAG_IS_DEVICE_OPEN)
000239   e477     jbset   0x77, 0x2        	JBSET	_flag2,2
00023a   a258     goto    0x258            	GOTO	_00788_DS_
00023b   e076     jbset   0x76, 0          	JBSET	_flag1,0
00023c   a258     goto    0x258            	GOTO	_00788_DS_
                                           ;	.line	1297; "MC32P7351.c"	LED_WORKING_OFF();
00023d   c994     bset    0x194, 0x4       	BSET	_IOP1bits,4
                                           ;	.line	1300; "MC32P7351.c"	LED_CHARGING_ON();
00023e   d990     bclr    0x190, 0x4       	BCLR	_IOP0bits,4
                                           ;	.line	1302; "MC32P7351.c"	for (i = 0; i < 20; i++)
00023f   767b     clrr    0x7b             	CLRR	_i
                                           ;;unsigned compare: left < lit(0x14=20), size=1
                                           _00803_DS_
000240   3c14     movai   0x14             	MOVAI	0x14
000241   487b     rsubar  0x7b             	RSUBAR	_i
000242   f187     jbclr   0x187, 0         	JBCLR	PFLAG,0
000243   a24b     goto    0x24b            	GOTO	_00783_DS_
                                           ;;genSkipc:3291: created from rifx:013B5EFC
                                           ;	.line	1305; "MC32P7351.c"	key_event_handle();
000244   83da     call    0x3da            	CALL	_key_event_handle
                                           ;	.line	1306; "MC32P7351.c"	delay_ms(10);
000245   3c0a     movai   0xa              	MOVAI	0x0a
000246   5606     movra   0x6              	MOVRA	STK00
000247   3c00     movai   0                	MOVAI	0x00
000248   85ba     call    0x5ba            	CALL	_delay_ms
                                           ;	.line	1302; "MC32P7351.c"	for (i = 0; i < 20; i++)
000249   667b     incr    0x7b             	INCR	_i
00024a   a240     goto    0x240            	GOTO	_00803_DS_
                                           _00783_DS_
                                           ;	.line	1309; "MC32P7351.c"	LED_CHARGING_OFF();
00024b   c990     bset    0x190, 0x4       	BSET	_IOP0bits,4
                                           ;	.line	1311; "MC32P7351.c"	for (i = 0; i < 20; i++)
00024c   767b     clrr    0x7b             	CLRR	_i
                                           ;;unsigned compare: left < lit(0x14=20), size=1
                                           _00806_DS_
00024d   3c14     movai   0x14             	MOVAI	0x14
00024e   487b     rsubar  0x7b             	RSUBAR	_i
00024f   f187     jbclr   0x187, 0         	JBCLR	PFLAG,0
000250   a258     goto    0x258            	GOTO	_00788_DS_
                                           ;;genSkipc:3291: created from rifx:013B5EFC
                                           ;	.line	1314; "MC32P7351.c"	key_event_handle();
000251   83da     call    0x3da            	CALL	_key_event_handle
                                           ;	.line	1315; "MC32P7351.c"	delay_ms(10);
000252   3c0a     movai   0xa              	MOVAI	0x0a
000253   5606     movra   0x6              	MOVRA	STK00
000254   3c00     movai   0                	MOVAI	0x00
000255   85ba     call    0x5ba            	CALL	_delay_ms
                                           ;	.line	1311; "MC32P7351.c"	for (i = 0; i < 20; i++)
000256   667b     incr    0x7b             	INCR	_i
000257   a24d     goto    0x24d            	GOTO	_00806_DS_
                                           _00788_DS_
                                           ;	.line	1319; "MC32P7351.c"	if (FLAG_IS_DEVICE_OPEN && FLAG_IS_IN_CHARGING)
000258   e076     jbset   0x76, 0          	JBSET	_flag1,0
000259   a25d     goto    0x25d            	GOTO	_00791_DS_
00025a   e476     jbset   0x76, 0x2        	JBSET	_flag1,2
00025b   a25d     goto    0x25d            	GOTO	_00791_DS_
                                           ;	.line	1322; "MC32P7351.c"	flag_is_low_battery = 0;
00025c   d477     bclr    0x77, 0x2        	BCLR	_flag2,2
                                           _00791_DS_
                                           ;	.line	1325; "MC32P7351.c"	low_power_scan_handle();
00025d   8261     call    0x261            	CALL	_low_power_scan_handle
                                           ;	.line	1332; "MC32P7351.c"	__endasm;
                                           	;
00025e   000e     clrwdt                   	CLRWDT;
                                           	
00025f   a056     goto    0x56             	GOTO	_00794_DS_
                                           ;	.line	1335; "MC32P7351.c"	}
000260   000c     return                   	RETURN	
                                           ; exit point of _main
                                           
                                           ;***
                                           ;  pBlock Stats: dbName = C
                                           ;***
                                           ;entry:  _low_power_scan_handle	;Function start
                                           ; 2 exit points
                                           ;has an exit
                                           ;functions called:
                                           ;   _CLR_RAM
                                           ;   _adc_config
                                           ;   _adc_sel_pin
                                           ;   _adc_get_val_once
                                           ;   _Sys_Init
                                           ;   _delay_ms
                                           ;   _CLR_RAM
                                           ;   _adc_config
                                           ;   _adc_sel_pin
                                           ;   _adc_get_val_once
                                           ;   _Sys_Init
                                           ;   _delay_ms
                                           ;1 compiler assigned register :
                                           ;   STK00
                                           ;; Starting pCode block
                                           _low_power_scan_handle	;Function start
                                           ; 2 exit points
                                           ;	.line	977; "MC32P7351.c"	if (FLAG_DURING_CHARGING_BAT_IS_NULL ||
000261   fe76     jbclr   0x76, 0x7        	JBCLR	_flag1,7
000262   a269     goto    0x269            	GOTO	_00706_DS_
                                           ;	.line	978; "MC32P7351.c"	FLAG_IS_DEVICE_OPEN || // 如果设备已经启动，不进入低功耗
000263   f076     jbclr   0x76, 0          	JBCLR	_flag1,0
000264   a269     goto    0x269            	GOTO	_00706_DS_
                                           ;	.line	979; "MC32P7351.c"	FLAG_IS_IN_CHARGING || // 如果正在充电，不进入低功耗，因为还需要输出PWM来控制充电
000265   f476     jbclr   0x76, 0x2        	JBCLR	_flag1,2
000266   a269     goto    0x269            	GOTO	_00706_DS_
                                           ;	.line	980; "MC32P7351.c"	0 == P01D)             // 如果检测到 开关/模式 按键按下，不进入低功耗(交给按键事件处理函数来判断是否要开机)
000267   f390     jbclr   0x190, 0x1       	JBCLR	_IOP0bits,1
000268   a26a     goto    0x26a            	GOTO	_00711_DS_
                                           _00706_DS_
                                           ;	.line	982; "MC32P7351.c"	return;
000269   a29b     goto    0x29b            	GOTO	_00715_DS_
                                           _00711_DS_
                                           ;	.line	1000; "MC32P7351.c"	GIE = 0;  // 禁用所有中断
00026a   df88     bclr    0x188, 0x7       	BCLR	_MCRbits,7
                                           ;	.line	1001; "MC32P7351.c"	T0EN = 0; // 关闭定时器和PWM输出
00026b   df98     bclr    0x198, 0x7       	BCLR	_T0CRbits,7
                                           ;	.line	1002; "MC32P7351.c"	T1EN = 0;
00026c   df9c     bclr    0x19c, 0x7       	BCLR	_T1CRbits,7
                                           ;	.line	1003; "MC32P7351.c"	T2EN = 0;
00026d   dfa0     bclr    0x1a0, 0x7       	BCLR	_T2CRbits,7
                                           ;	.line	1004; "MC32P7351.c"	T3EN = 0;
00026e   dfa4     bclr    0x1a4, 0x7       	BCLR	_T3CRbits,7
                                           ;	.line	1006; "MC32P7351.c"	PWM0EC = 0;
00026f   dd98     bclr    0x198, 0x6       	BCLR	_T0CRbits,6
                                           ;	.line	1007; "MC32P7351.c"	PWM1EC = 0;
000270   dd9c     bclr    0x19c, 0x6       	BCLR	_T1CRbits,6
                                           ;	.line	1008; "MC32P7351.c"	PWM2EC = 0;
000271   dda0     bclr    0x1a0, 0x6       	BCLR	_T2CRbits,6
                                           ;	.line	1009; "MC32P7351.c"	T2DATA = 0;
000272   77a3     clrr    0x1a3            	CLRR	_T2DATA
                                           ;	.line	1010; "MC32P7351.c"	ADEN = 0; // 不使能ad
000273   d1b0     bclr    0x1b0, 0         	BCLR	_ADCR0bits,0
                                           ;	.line	1013; "MC32P7351.c"	P14OE = 0;
000274   d995     bclr    0x195, 0x4       	BCLR	_OEP1bits,4
                                           ;	.line	1014; "MC32P7351.c"	P04OE = 0;
000275   d991     bclr    0x191, 0x4       	BCLR	_OEP0bits,4
                                           ;	.line	1015; "MC32P7351.c"	P03OE = 0;
000276   d791     bclr    0x191, 0x3       	BCLR	_OEP0bits,3
                                           ;	.line	1018; "MC32P7351.c"	P01PU = 1;
000277   c392     bset    0x192, 0x1       	BSET	_PUP0bits,1
                                           ;	.line	1019; "MC32P7351.c"	P01OE = 0;
000278   d391     bclr    0x191, 0x1       	BCLR	_OEP0bits,1
                                           ;	.line	1022; "MC32P7351.c"	P00PD = 1;
000279   c193     bset    0x193, 0         	BSET	_PDP0bits,0
                                           ;	.line	1023; "MC32P7351.c"	P00OE = 0;
00027a   d191     bclr    0x191, 0         	BCLR	_OEP0bits,0
                                           ;	.line	1025; "MC32P7351.c"	HFEN = 0; // 关闭高速时钟
00027b   d1ae     bclr    0x1ae, 0         	BCLR	_OSCMRbits,0
                                           ;	.line	1026; "MC32P7351.c"	LFEN = 1;
00027c   c3ae     bset    0x1ae, 0x1       	BSET	_OSCMRbits,1
                                           ;	.line	1029; "MC32P7351.c"	Nop();
00027d   0000     nop                      	nop	
                                           ;	.line	1030; "MC32P7351.c"	Nop();
00027e   0000     nop                      	nop	
                                           ;	.line	1031; "MC32P7351.c"	Stop();
00027f   000b     stop                     	stop	
                                           ;	.line	1032; "MC32P7351.c"	Nop();
000280   0000     nop                      	nop	
                                           ;	.line	1033; "MC32P7351.c"	Nop();
000281   0000     nop                      	nop	
                                           ;	.line	1035; "MC32P7351.c"	HFEN = 1; // 开启高速时钟
000282   c1ae     bset    0x1ae, 0         	BSET	_OSCMRbits,0
                                           ;	.line	1037; "MC32P7351.c"	CLR_RAM();
000283   85ae     call    0x5ae            	CALL	_CLR_RAM
                                           ;	.line	1039; "MC32P7351.c"	adc_config();
000284   8592     call    0x592            	CALL	_adc_config
                                           ;	.line	1040; "MC32P7351.c"	adc_sel_pin(ADC_PIN_P00_AN0);
000285   3c01     movai   0x1              	MOVAI	0x01
000286   8556     call    0x556            	CALL	_adc_sel_pin
                                           ;	.line	1041; "MC32P7351.c"	adc_val = adc_get_val_once();
000287   849d     call    0x49d            	CALL	_adc_get_val_once
000288   566d     movra   0x6d             	MOVRA	(_adc_val + 1)
000289   5806     movar   0x6              	MOVAR	STK00
00028a   566c     movra   0x6c             	MOVRA	_adc_val
                                           ;;unsigned compare: left < lit(0x800=2048), size=2
                                           ;	.line	1043; "MC32P7351.c"	if (adc_val < ADCDETECT_CHARING_THRESHOLD && P01D)
00028b   3c08     movai   0x8              	MOVAI	0x08
00028c   486d     rsubar  0x6d             	RSUBAR	(_adc_val + 1)
00028d   e587     jbset   0x187, 0x2       	JBSET	PFLAG,2
00028e   a291     goto    0x291            	GOTO	_00737_DS_
00028f   3c00     movai   0                	MOVAI	0x00
000290   486c     rsubar  0x6c             	RSUBAR	_adc_val
                                           _00737_DS_
000291   f187     jbclr   0x187, 0         	JBCLR	PFLAG,0
000292   a295     goto    0x295            	GOTO	_00713_DS_
                                           ;;genSkipc:3291: created from rifx:013B5EFC
000293   f390     jbclr   0x190, 0x1       	JBCLR	_IOP0bits,1
000294   a26a     goto    0x26a            	GOTO	_00711_DS_
                                           _00713_DS_
                                           ;	.line	1069; "MC32P7351.c"	Sys_Init();
000295   848f     call    0x48f            	CALL	_Sys_Init
                                           ;	.line	1070; "MC32P7351.c"	GIE = 1;
000296   cf88     bset    0x188, 0x7       	BSET	_MCRbits,7
                                           ;	.line	1072; "MC32P7351.c"	delay_ms(100); // 等待系统稳定
000297   3c64     movai   0x64             	MOVAI	0x64
000298   5606     movra   0x6              	MOVRA	STK00
000299   3c00     movai   0                	MOVAI	0x00
00029a   85ba     call    0x5ba            	CALL	_delay_ms
                                           _00715_DS_
                                           ;	.line	1073; "MC32P7351.c"	}
00029b   000c     return                   	RETURN	
                                           ; exit point of _low_power_scan_handle
                                           
                                           ;***
                                           ;  pBlock Stats: dbName = C
                                           ;***
                                           ;entry:  _shutdown_scan_handle	;Function start
                                           ; 2 exit points
                                           ;has an exit
                                           ;; Starting pCode block
                                           _shutdown_scan_handle	;Function start
                                           ; 2 exit points
                                           ;	.line	948; "MC32P7351.c"	if (FLAG_IS_DEVICE_OPEN)
00029c   e076     jbset   0x76, 0          	JBSET	_flag1,0
00029d   a2b7     goto    0x2b7            	GOTO	_00689_DS_
                                           ;;unsigned compare: left < lit(0xDBBA0=900000), size=4
                                           ;	.line	952; "MC32P7351.c"	if (shut_down_ms_cnt >= 900000)
00029e   3c00     movai   0                	MOVAI	0x00
00029f   4863     rsubar  0x63             	RSUBAR	(_shut_down_ms_cnt + 3)
0002a0   e587     jbset   0x187, 0x2       	JBSET	PFLAG,2
0002a1   a2ac     goto    0x2ac            	GOTO	_00701_DS_
0002a2   3c0d     movai   0xd              	MOVAI	0x0d
0002a3   4862     rsubar  0x62             	RSUBAR	(_shut_down_ms_cnt + 2)
0002a4   e587     jbset   0x187, 0x2       	JBSET	PFLAG,2
0002a5   a2ac     goto    0x2ac            	GOTO	_00701_DS_
0002a6   3cbb     movai   0xbb             	MOVAI	0xbb
0002a7   4861     rsubar  0x61             	RSUBAR	(_shut_down_ms_cnt + 1)
0002a8   e587     jbset   0x187, 0x2       	JBSET	PFLAG,2
0002a9   a2ac     goto    0x2ac            	GOTO	_00701_DS_
0002aa   3ca0     movai   0xa0             	MOVAI	0xa0
0002ab   4860     rsubar  0x60             	RSUBAR	_shut_down_ms_cnt
                                           _00701_DS_
0002ac   e187     jbset   0x187, 0         	JBSET	PFLAG,0
0002ad   a2bb     goto    0x2bb            	GOTO	_00691_DS_
                                           ;;genSkipc:3291: created from rifx:013B5EFC
                                           ;	.line	956; "MC32P7351.c"	LED_WORKING_OFF(); // 关闭电源指示灯
0002ae   c994     bset    0x194, 0x4       	BSET	_IOP1bits,4
                                           ;	.line	957; "MC32P7351.c"	HEATING_OFF();     // 关闭加热
0002af   d594     bclr    0x194, 0x2       	BCLR	_IOP1bits,2
                                           ;	.line	958; "MC32P7351.c"	FLAG_IS_HEATING = 0;
0002b0   d276     bclr    0x76, 0x1        	BCLR	_flag1,1
                                           ;	.line	959; "MC32P7351.c"	mode_flag = MODE_3; // 下一次切换模式时，会变成 MODE_1
0002b1   3c02     movai   0x2              	MOVAI	0x02
0002b2   5679     movra   0x79             	MOVRA	_mode_flag
                                           ;	.line	961; "MC32P7351.c"	PWM0EC = 0;
0002b3   dd98     bclr    0x198, 0x6       	BCLR	_T0CRbits,6
                                           ;	.line	962; "MC32P7351.c"	PWM1EC = 0;
0002b4   dd9c     bclr    0x19c, 0x6       	BCLR	_T1CRbits,6
                                           ;	.line	964; "MC32P7351.c"	FLAG_IS_DEVICE_OPEN = 0;
0002b5   d076     bclr    0x76, 0          	BCLR	_flag1,0
0002b6   a2bb     goto    0x2bb            	GOTO	_00691_DS_
                                           _00689_DS_
                                           ;	.line	970; "MC32P7351.c"	shut_down_ms_cnt = 0;
0002b7   7660     clrr    0x60             	CLRR	_shut_down_ms_cnt
0002b8   7661     clrr    0x61             	CLRR	(_shut_down_ms_cnt + 1)
0002b9   7662     clrr    0x62             	CLRR	(_shut_down_ms_cnt + 2)
0002ba   7663     clrr    0x63             	CLRR	(_shut_down_ms_cnt + 3)
                                           _00691_DS_
                                           ;	.line	972; "MC32P7351.c"	}
0002bb   000c     return                   	RETURN	
                                           ; exit point of _shutdown_scan_handle
                                           
                                           ;***
                                           ;  pBlock Stats: dbName = C
                                           ;***
                                           ;entry:  _turn_dir_scan_handle	;Function start
                                           ; 2 exit points
                                           ;has an exit
                                           ;functions called:
                                           ;   _delay_ms
                                           ;   _delay_ms
                                           ;   _delay_ms
                                           ;   _delay_ms
                                           ;1 compiler assigned register :
                                           ;   STK00
                                           ;; Starting pCode block
                                           _turn_dir_scan_handle	;Function start
                                           ; 2 exit points
                                           ;	.line	912; "MC32P7351.c"	if (FLAG_IS_DEVICE_OPEN)
0002bc   e076     jbset   0x76, 0          	JBSET	_flag1,0
0002bd   a2e4     goto    0x2e4            	GOTO	_00659_DS_
                                           ;;unsigned compare: left < lit(0x1D4C0=120000), size=4
                                           ;	.line	916; "MC32P7351.c"	if (turn_dir_ms_cnt >= (120000)) // 原本设定是2min
0002be   3c00     movai   0                	MOVAI	0x00
0002bf   485f     rsubar  0x5f             	RSUBAR	(_turn_dir_ms_cnt + 3)
0002c0   e587     jbset   0x187, 0x2       	JBSET	PFLAG,2
0002c1   a2cc     goto    0x2cc            	GOTO	_00675_DS_
0002c2   3c01     movai   0x1              	MOVAI	0x01
0002c3   485e     rsubar  0x5e             	RSUBAR	(_turn_dir_ms_cnt + 2)
0002c4   e587     jbset   0x187, 0x2       	JBSET	PFLAG,2
0002c5   a2cc     goto    0x2cc            	GOTO	_00675_DS_
0002c6   3cd4     movai   0xd4             	MOVAI	0xd4
0002c7   485d     rsubar  0x5d             	RSUBAR	(_turn_dir_ms_cnt + 1)
0002c8   e587     jbset   0x187, 0x2       	JBSET	PFLAG,2
0002c9   a2cc     goto    0x2cc            	GOTO	_00675_DS_
0002ca   3cc0     movai   0xc0             	MOVAI	0xc0
0002cb   485c     rsubar  0x5c             	RSUBAR	_turn_dir_ms_cnt
                                           _00675_DS_
0002cc   e187     jbset   0x187, 0         	JBSET	PFLAG,0
0002cd   a2e8     goto    0x2e8            	GOTO	_00661_DS_
                                           ;;genSkipc:3291: created from rifx:013B5EFC
                                           ;	.line	919; "MC32P7351.c"	if (0 == FLAG_DIR)
0002ce   f676     jbclr   0x76, 0x3        	JBCLR	_flag1,3
0002cf   a2d8     goto    0x2d8            	GOTO	_00654_DS_
                                           ;	.line	922; "MC32P7351.c"	PWM0EC = 0; // 关闭驱动正转的pwm
0002d0   dd98     bclr    0x198, 0x6       	BCLR	_T0CRbits,6
                                           ;	.line	923; "MC32P7351.c"	delay_ms(500);
0002d1   3cf4     movai   0xf4             	MOVAI	0xf4
0002d2   5606     movra   0x6              	MOVRA	STK00
0002d3   3c01     movai   0x1              	MOVAI	0x01
0002d4   85ba     call    0x5ba            	CALL	_delay_ms
                                           ;	.line	924; "MC32P7351.c"	PWM1EC = 1;   // 打开驱动反转的pwm
0002d5   cd9c     bset    0x19c, 0x6       	BSET	_T1CRbits,6
                                           ;	.line	925; "MC32P7351.c"	FLAG_DIR = 1; // 表示当前为反转
0002d6   c676     bset    0x76, 0x3        	BSET	_flag1,3
0002d7   a2df     goto    0x2df            	GOTO	_00655_DS_
                                           _00654_DS_
                                           ;	.line	930; "MC32P7351.c"	PWM1EC = 0; // 关闭驱动反转的pwm
0002d8   dd9c     bclr    0x19c, 0x6       	BCLR	_T1CRbits,6
                                           ;	.line	931; "MC32P7351.c"	delay_ms(500);
0002d9   3cf4     movai   0xf4             	MOVAI	0xf4
0002da   5606     movra   0x6              	MOVRA	STK00
0002db   3c01     movai   0x1              	MOVAI	0x01
0002dc   85ba     call    0x5ba            	CALL	_delay_ms
                                           ;	.line	932; "MC32P7351.c"	PWM0EC = 1;   // 打开驱动正转的pwm
0002dd   cd98     bset    0x198, 0x6       	BSET	_T0CRbits,6
                                           ;	.line	933; "MC32P7351.c"	FLAG_DIR = 0; // 表示当前为正转
0002de   d676     bclr    0x76, 0x3        	BCLR	_flag1,3
                                           _00655_DS_
                                           ;	.line	936; "MC32P7351.c"	turn_dir_ms_cnt = 0;
0002df   765c     clrr    0x5c             	CLRR	_turn_dir_ms_cnt
0002e0   765d     clrr    0x5d             	CLRR	(_turn_dir_ms_cnt + 1)
0002e1   765e     clrr    0x5e             	CLRR	(_turn_dir_ms_cnt + 2)
0002e2   765f     clrr    0x5f             	CLRR	(_turn_dir_ms_cnt + 3)
0002e3   a2e8     goto    0x2e8            	GOTO	_00661_DS_
                                           _00659_DS_
                                           ;	.line	941; "MC32P7351.c"	turn_dir_ms_cnt = 0; // 设备未运行时，清空计数值
0002e4   765c     clrr    0x5c             	CLRR	_turn_dir_ms_cnt
0002e5   765d     clrr    0x5d             	CLRR	(_turn_dir_ms_cnt + 1)
0002e6   765e     clrr    0x5e             	CLRR	(_turn_dir_ms_cnt + 2)
0002e7   765f     clrr    0x5f             	CLRR	(_turn_dir_ms_cnt + 3)
                                           _00661_DS_
                                           ;	.line	943; "MC32P7351.c"	}
0002e8   000c     return                   	RETURN	
                                           ; exit point of _turn_dir_scan_handle
                                           
                                           ;***
                                           ;  pBlock Stats: dbName = C
                                           ;***
                                           ;entry:  _adc_scan_handle	;Function start
                                           ; 2 exit points
                                           ;has an exit
                                           ;functions called:
                                           ;   _adc_sel_pin
                                           ;   _adc_get_val
                                           ;   _key_event_handle
                                           ;   _adc_sel_pin
                                           ;   _adc_get_val
                                           ;   _key_event_handle
                                           ;   _adc_sel_pin
                                           ;   _adc_get_val
                                           ;   _key_event_handle
                                           ;   _adc_sel_pin
                                           ;   _adc_get_val
                                           ;   _key_event_handle
                                           ;1 compiler assigned register :
                                           ;   STK00
                                           ;; Starting pCode block
                                           _adc_scan_handle	;Function start
                                           ; 2 exit points
                                           ;	.line	684; "MC32P7351.c"	volatile u8 cnt = 0;             // 计数值，用于检测电池是否满电，也是用于检测是否插入/拔出充电器的计数值
0002e9   7628     clrr    0x28             	CLRR	_adc_scan_handle_cnt_65536_93
                                           ;	.line	685; "MC32P7351.c"	volatile u8 need_charge_cnt = 0; // 计数值，用于检测是否要快速充电
0002ea   7629     clrr    0x29             	CLRR	_adc_scan_handle_need_charge_cnt_65536_93
                                           ;	.line	687; "MC32P7351.c"	adc_bat_val = 0;
0002eb   7664     clrr    0x64             	CLRR	_adc_bat_val
0002ec   7665     clrr    0x65             	CLRR	(_adc_bat_val + 1)
0002ed   7666     clrr    0x66             	CLRR	(_adc_bat_val + 2)
0002ee   7667     clrr    0x67             	CLRR	(_adc_bat_val + 3)
                                           ;	.line	688; "MC32P7351.c"	adc_charging_val = 0;
0002ef   766e     clrr    0x6e             	CLRR	_adc_charging_val
0002f0   766f     clrr    0x6f             	CLRR	(_adc_charging_val + 1)
                                           ;	.line	690; "MC32P7351.c"	adc_sel_pin(ADC_PIN_P02_AN1); // 切换到检测电池降压后的电压的检测引脚
0002f1   3c02     movai   0x2              	MOVAI	0x02
0002f2   8556     call    0x556            	CALL	_adc_sel_pin
                                           ;	.line	691; "MC32P7351.c"	for (i = 0; i < 10; i++)      //  // 每55ms进入一次，循环内每次间隔约4.8ms
0002f3   767b     clrr    0x7b             	CLRR	_i
                                           ;;unsigned compare: left < lit(0xA=10), size=1
                                           _00502_DS_
0002f4   3c0a     movai   0xa              	MOVAI	0x0a
0002f5   487b     rsubar  0x7b             	RSUBAR	_i
0002f6   f187     jbclr   0x187, 0         	JBCLR	PFLAG,0
0002f7   a378     goto    0x378            	GOTO	_00458_DS_
                                           ;;genSkipc:3291: created from rifx:013B5EFC
                                           ;	.line	693; "MC32P7351.c"	adc_val = adc_get_val();
0002f8   84b9     call    0x4b9            	CALL	_adc_get_val
0002f9   566d     movra   0x6d             	MOVRA	(_adc_val + 1)
0002fa   5806     movar   0x6              	MOVAR	STK00
0002fb   566c     movra   0x6c             	MOVRA	_adc_val
                                           ;	.line	695; "MC32P7351.c"	if (i == 0)
0002fc   3c00     movai   0                	MOVAI	0x00
0002fd   5c7b     orar    0x7b             	ORAR	_i
0002fe   e587     jbset   0x187, 0x2       	JBSET	PFLAG,2
0002ff   a306     goto    0x306            	GOTO	_00411_DS_
                                           ;	.line	697; "MC32P7351.c"	adc_bat_val = adc_val;
000300   586c     movar   0x6c             	MOVAR	_adc_val
000301   5664     movra   0x64             	MOVRA	_adc_bat_val
000302   586d     movar   0x6d             	MOVAR	(_adc_val + 1)
000303   5665     movra   0x65             	MOVRA	(_adc_bat_val + 1)
000304   7666     clrr    0x66             	CLRR	(_adc_bat_val + 2)
000305   7667     clrr    0x67             	CLRR	(_adc_bat_val + 3)
                                           _00411_DS_
                                           ;	.line	700; "MC32P7351.c"	if (FLAG_IS_IN_CHARGING)
000306   e476     jbset   0x76, 0x2        	JBSET	_flag1,2
000307   a352     goto    0x352            	GOTO	_00456_DS_
                                           ;;unsigned compare: left < lit(0xFA0=4000), size=2
                                           ;	.line	703; "MC32P7351.c"	if (adc_val >= ADCDETECT_BAT_FULL + ADCDETECT_BAT_NULL_EX)
000308   3c0f     movai   0xf              	MOVAI	0x0f
000309   486d     rsubar  0x6d             	RSUBAR	(_adc_val + 1)
00030a   e587     jbset   0x187, 0x2       	JBSET	PFLAG,2
00030b   a30e     goto    0x30e            	GOTO	_00634_DS_
00030c   3ca0     movai   0xa0             	MOVAI	0xa0
00030d   486c     rsubar  0x6c             	RSUBAR	_adc_val
                                           _00634_DS_
00030e   e187     jbset   0x187, 0         	JBSET	PFLAG,0
00030f   a312     goto    0x312            	GOTO	_00413_DS_
                                           ;;genSkipc:3291: created from rifx:013B5EFC
                                           ;	.line	706; "MC32P7351.c"	T2DATA = 0;
000310   77a3     clrr    0x1a3            	CLRR	_T2DATA
                                           ;	.line	707; "MC32P7351.c"	over_charging_cnt++;
000311   667e     incr    0x7e             	INCR	_over_charging_cnt
                                           ;;unsigned compare: left < lit(0xE88=3720), size=2
                                           _00413_DS_
                                           ;	.line	710; "MC32P7351.c"	if (adc_val >= ADCDETECT_BAT_FULL) // 检测电池是否满电
000312   3c0e     movai   0xe              	MOVAI	0x0e
000313   486d     rsubar  0x6d             	RSUBAR	(_adc_val + 1)
000314   e587     jbset   0x187, 0x2       	JBSET	PFLAG,2
000315   a318     goto    0x318            	GOTO	_00635_DS_
000316   3c88     movai   0x88             	MOVAI	0x88
000317   486c     rsubar  0x6c             	RSUBAR	_adc_val
                                           _00635_DS_
000318   e187     jbset   0x187, 0         	JBSET	PFLAG,0
000319   a31c     goto    0x31c            	GOTO	_00417_DS_
                                           ;;genSkipc:3291: created from rifx:013B5EFC
                                           ;	.line	712; "MC32P7351.c"	cnt++;
00031a   6628     incr    0x28             	INCR	_adc_scan_handle_cnt_65536_93
00031b   a325     goto    0x325            	GOTO	_00418_DS_
                                           ;;unsigned compare: left < lit(0xD90=3472), size=2
                                           _00417_DS_
                                           ;	.line	714; "MC32P7351.c"	else if (adc_val < ADCDETECT_BAT_WILL_FULL) // 检测是否要快速充电
00031c   3c0d     movai   0xd              	MOVAI	0x0d
00031d   486d     rsubar  0x6d             	RSUBAR	(_adc_val + 1)
00031e   e587     jbset   0x187, 0x2       	JBSET	PFLAG,2
00031f   a322     goto    0x322            	GOTO	_00636_DS_
000320   3c90     movai   0x90             	MOVAI	0x90
000321   486c     rsubar  0x6c             	RSUBAR	_adc_val
                                           _00636_DS_
000322   f187     jbclr   0x187, 0         	JBCLR	PFLAG,0
000323   a325     goto    0x325            	GOTO	_00418_DS_
                                           ;;genSkipc:3291: created from rifx:013B5EFC
                                           ;	.line	716; "MC32P7351.c"	need_charge_cnt++;
000324   6629     incr    0x29             	INCR	_adc_scan_handle_need_charge_cnt_65536_93
                                           _00418_DS_
                                           ;	.line	719; "MC32P7351.c"	if (flag_bat_is_empty)
000325   3c00     movai   0                	MOVAI	0x00
000326   5c7d     orar    0x7d             	ORAR	_flag_bat_is_empty
000327   f587     jbclr   0x187, 0x2       	JBCLR	PFLAG,2
000328   a32f     goto    0x32f            	GOTO	_00444_DS_
                                           ;	.line	723; "MC32P7351.c"	LED_CHARGING_OFF(); // 关闭充电指示灯
000329   c990     bset    0x190, 0x4       	BSET	_IOP0bits,4
                                           ;	.line	724; "MC32P7351.c"	PWM2EC = 0;         // 关闭控制升压电路的pwm（建议是，插上充钱器时，不关闭控制升压电路的PWM，但是在测试时，充电一侧会严重发热）
00032a   dda0     bclr    0x1a0, 0x6       	BCLR	_T2CRbits,6
                                           ;	.line	725; "MC32P7351.c"	T2DATA = 0;
00032b   77a3     clrr    0x1a3            	CLRR	_T2DATA
                                           ;	.line	726; "MC32P7351.c"	FLAG_BAT_IS_NEED_CHARGE = 0;
00032c   d876     bclr    0x76, 0x4        	BCLR	_flag1,4
                                           ;	.line	727; "MC32P7351.c"	FLAG_DURING_CHARGING_BAT_IS_NULL = 1; // 标志位置一，在主循环让绿灯快闪
00032d   ce76     bset    0x76, 0x7        	BSET	_flag1,7
                                           ;	.line	729; "MC32P7351.c"	break;
00032e   a378     goto    0x378            	GOTO	_00458_DS_
                                           ;;unsigned compare: left < lit(0x8=8), size=1
                                           _00444_DS_
                                           ;	.line	731; "MC32P7351.c"	else if (cnt >= 8 || over_charging_cnt >= 8)
00032f   3c08     movai   0x8              	MOVAI	0x08
000330   4828     rsubar  0x28             	RSUBAR	_adc_scan_handle_cnt_65536_93
000331   f187     jbclr   0x187, 0         	JBCLR	PFLAG,0
000332   a337     goto    0x337            	GOTO	_00439_DS_
                                           ;;genSkipc:3291: created from rifx:013B5EFC
                                           ;;unsigned compare: left < lit(0x8=8), size=1
000333   3c08     movai   0x8              	MOVAI	0x08
000334   487e     rsubar  0x7e             	RSUBAR	_over_charging_cnt
000335   e187     jbset   0x187, 0         	JBSET	PFLAG,0
000336   a34a     goto    0x34a            	GOTO	_00440_DS_
                                           ;;genSkipc:3291: created from rifx:013B5EFC
                                           _00439_DS_
                                           ;	.line	734; "MC32P7351.c"	full_charge_cnt++;
000337   667f     incr    0x7f             	INCR	_full_charge_cnt
                                           ;;unsigned compare: left < lit(0x64=100), size=1
                                           ;	.line	735; "MC32P7351.c"	if (full_charge_cnt >= 100 || over_charging_cnt >= 8) // 5.5s或者是连续触发了若干次过充保护
000338   3c64     movai   0x64             	MOVAI	0x64
000339   487f     rsubar  0x7f             	RSUBAR	_full_charge_cnt
00033a   f187     jbclr   0x187, 0         	JBCLR	PFLAG,0
00033b   a340     goto    0x340            	GOTO	_00431_DS_
                                           ;;genSkipc:3291: created from rifx:013B5EFC
                                           ;;unsigned compare: left < lit(0x8=8), size=1
00033c   3c08     movai   0x8              	MOVAI	0x08
00033d   487e     rsubar  0x7e             	RSUBAR	_over_charging_cnt
00033e   e187     jbset   0x187, 0         	JBSET	PFLAG,0
00033f   a375     goto    0x375            	GOTO	_00457_DS_
                                           ;;genSkipc:3291: created from rifx:013B5EFC
                                           _00431_DS_
                                           ;	.line	737; "MC32P7351.c"	full_charge_cnt = 0; //
000340   767f     clrr    0x7f             	CLRR	_full_charge_cnt
                                           ;	.line	739; "MC32P7351.c"	if (FLAG_IS_DEVICE_OPEN)
000341   f076     jbclr   0x76, 0          	JBCLR	_flag1,0
000342   a345     goto    0x345            	GOTO	_00430_DS_
                                           ;	.line	745; "MC32P7351.c"	LED_CHARGING_OFF(); // 关闭充电指示灯
000343   c990     bset    0x190, 0x4       	BSET	_IOP0bits,4
                                           ;	.line	747; "MC32P7351.c"	LED_FULL_CHARGE_ON(); // 开启电池充满电的指示灯
000344   d790     bclr    0x190, 0x3       	BCLR	_IOP0bits,3
                                           _00430_DS_
                                           ;	.line	750; "MC32P7351.c"	PWM2EC = 0; // 关闭控制升压电路的pwm
000345   dda0     bclr    0x1a0, 0x6       	BCLR	_T2CRbits,6
                                           ;	.line	751; "MC32P7351.c"	T2DATA = 0;
000346   77a3     clrr    0x1a3            	CLRR	_T2DATA
                                           ;	.line	753; "MC32P7351.c"	FLAG_BAT_IS_NEED_CHARGE = 0;
000347   d876     bclr    0x76, 0x4        	BCLR	_flag1,4
                                           ;	.line	754; "MC32P7351.c"	FLAG_BAT_IS_FULL = 1;
000348   ca76     bset    0x76, 0x5        	BSET	_flag1,5
                                           ;	.line	755; "MC32P7351.c"	break;
000349   a378     goto    0x378            	GOTO	_00458_DS_
                                           ;;unsigned compare: left < lit(0x8=8), size=1
                                           _00440_DS_
                                           ;	.line	758; "MC32P7351.c"	else if (need_charge_cnt >= 8)
00034a   3c08     movai   0x8              	MOVAI	0x08
00034b   4829     rsubar  0x29             	RSUBAR	_adc_scan_handle_need_charge_cnt_65536_93
00034c   e187     jbset   0x187, 0         	JBSET	PFLAG,0
00034d   a375     goto    0x375            	GOTO	_00457_DS_
                                           ;;genSkipc:3291: created from rifx:013B5EFC
                                           ;	.line	762; "MC32P7351.c"	LED_FULL_CHARGE_OFF(); // 关闭充满电的指示灯
00034e   c790     bset    0x190, 0x3       	BSET	_IOP0bits,3
                                           ;	.line	763; "MC32P7351.c"	FLAG_BAT_IS_NEED_CHARGE = 1;
00034f   c876     bset    0x76, 0x4        	BSET	_flag1,4
                                           ;	.line	764; "MC32P7351.c"	FLAG_BAT_IS_FULL = 0;
000350   da76     bclr    0x76, 0x5        	BCLR	_flag1,5
                                           ;	.line	765; "MC32P7351.c"	break;
000351   a378     goto    0x378            	GOTO	_00458_DS_
                                           _00456_DS_
                                           ;	.line	771; "MC32P7351.c"	if (flag_bat_is_empty == 0 && adc_val <= ADCDETECT_BAT_FULL - ((ADCDETECT_BAT_FULL - ADCDETECT_BAT_WILL_FULL) / 2))
000352   3c00     movai   0                	MOVAI	0x00
000353   5c7d     orar    0x7d             	ORAR	_flag_bat_is_empty
000354   e587     jbset   0x187, 0x2       	JBSET	PFLAG,2
000355   a35f     goto    0x35f            	GOTO	_00447_DS_
                                           ;;swapping arguments (AOP_TYPEs 1/3)
                                           ;;unsigned compare: left >= lit(0xE0D=3597), size=2
000356   3c0e     movai   0xe              	MOVAI	0x0e
000357   486d     rsubar  0x6d             	RSUBAR	(_adc_val + 1)
000358   e587     jbset   0x187, 0x2       	JBSET	PFLAG,2
000359   a35c     goto    0x35c            	GOTO	_00642_DS_
00035a   3c0d     movai   0xd              	MOVAI	0x0d
00035b   486c     rsubar  0x6c             	RSUBAR	_adc_val
                                           _00642_DS_
00035c   f187     jbclr   0x187, 0         	JBCLR	PFLAG,0
00035d   a35f     goto    0x35f            	GOTO	_00447_DS_
                                           ;;genSkipc:3291: created from rifx:013B5EFC
                                           ;	.line	773; "MC32P7351.c"	cnt++;
00035e   6628     incr    0x28             	INCR	_adc_scan_handle_cnt_65536_93
                                           ;;unsigned compare: left < lit(0x8=8), size=1
                                           _00447_DS_
                                           ;	.line	776; "MC32P7351.c"	if (cnt >= 8)
00035f   3c08     movai   0x8              	MOVAI	0x08
000360   4828     rsubar  0x28             	RSUBAR	_adc_scan_handle_cnt_65536_93
000361   e187     jbset   0x187, 0         	JBSET	PFLAG,0
000362   a366     goto    0x366            	GOTO	_00450_DS_
                                           ;;genSkipc:3291: created from rifx:013B5EFC
                                           ;	.line	779; "MC32P7351.c"	FLAG_BAT_IS_NEED_CHARGE = 1;
000363   c876     bset    0x76, 0x4        	BSET	_flag1,4
                                           ;	.line	780; "MC32P7351.c"	FLAG_BAT_IS_FULL = 0;
000364   da76     bclr    0x76, 0x5        	BCLR	_flag1,5
                                           ;	.line	781; "MC32P7351.c"	break;
000365   a378     goto    0x378            	GOTO	_00458_DS_
                                           _00450_DS_
                                           ;	.line	785; "MC32P7351.c"	if (flag_bat_is_empty == 0 &&
000366   3c00     movai   0                	MOVAI	0x00
000367   5c7d     orar    0x7d             	ORAR	_flag_bat_is_empty
000368   e587     jbset   0x187, 0x2       	JBSET	PFLAG,2
000369   a375     goto    0x375            	GOTO	_00457_DS_
                                           ;	.line	786; "MC32P7351.c"	FLAG_IS_DEVICE_OPEN &&
00036a   e076     jbset   0x76, 0          	JBSET	_flag1,0
00036b   a375     goto    0x375            	GOTO	_00457_DS_
                                           ;;unsigned compare: left < lit(0xBEF=3055), size=2
                                           ;	.line	787; "MC32P7351.c"	adc_val < LOW_BATTERY_AD_VAL)
00036c   3c0b     movai   0xb              	MOVAI	0x0b
00036d   486d     rsubar  0x6d             	RSUBAR	(_adc_val + 1)
00036e   e587     jbset   0x187, 0x2       	JBSET	PFLAG,2
00036f   a372     goto    0x372            	GOTO	_00644_DS_
000370   3cef     movai   0xef             	MOVAI	0xef
000371   486c     rsubar  0x6c             	RSUBAR	_adc_val
                                           _00644_DS_
000372   f187     jbclr   0x187, 0         	JBCLR	PFLAG,0
000373   a375     goto    0x375            	GOTO	_00457_DS_
                                           ;;genSkipc:3291: created from rifx:013B5EFC
                                           ;	.line	789; "MC32P7351.c"	flag_is_low_battery = 1;
000374   c477     bset    0x77, 0x2        	BSET	_flag2,2
                                           _00457_DS_
                                           ;	.line	794; "MC32P7351.c"	key_event_handle();
000375   83da     call    0x3da            	CALL	_key_event_handle
                                           ;	.line	691; "MC32P7351.c"	for (i = 0; i < 10; i++)      //  // 每55ms进入一次，循环内每次间隔约4.8ms
000376   667b     incr    0x7b             	INCR	_i
000377   a2f4     goto    0x2f4            	GOTO	_00502_DS_
                                           _00458_DS_
                                           ;	.line	797; "MC32P7351.c"	cnt = 0;
000378   7628     clrr    0x28             	CLRR	_adc_scan_handle_cnt_65536_93
                                           ;	.line	798; "MC32P7351.c"	adc_sel_pin(ADC_PIN_P00_AN0); // 切换到检测充电的电压检测引脚(检测到的充电电压 == USB-C口电压 / 2)
000379   3c01     movai   0x1              	MOVAI	0x01
00037a   8556     call    0x556            	CALL	_adc_sel_pin
                                           ;	.line	799; "MC32P7351.c"	for (i = 0; i < 10; i++)
00037b   767b     clrr    0x7b             	CLRR	_i
                                           ;;unsigned compare: left < lit(0xA=10), size=1
                                           _00505_DS_
00037c   3c0a     movai   0xa              	MOVAI	0x0a
00037d   487b     rsubar  0x7b             	RSUBAR	_i
00037e   f187     jbclr   0x187, 0         	JBCLR	PFLAG,0
00037f   a3d9     goto    0x3d9            	GOTO	_00507_DS_
                                           ;;genSkipc:3291: created from rifx:013B5EFC
                                           ;	.line	801; "MC32P7351.c"	adc_val = adc_get_val();
000380   84b9     call    0x4b9            	CALL	_adc_get_val
000381   566d     movra   0x6d             	MOVRA	(_adc_val + 1)
000382   5806     movar   0x6              	MOVAR	STK00
000383   566c     movra   0x6c             	MOVRA	_adc_val
                                           ;	.line	802; "MC32P7351.c"	if (flag_bat_is_empty) // 如果电池为空
000384   3c00     movai   0                	MOVAI	0x00
000385   5c7d     orar    0x7d             	ORAR	_flag_bat_is_empty
000386   f587     jbclr   0x187, 0x2       	JBCLR	PFLAG,2
000387   a38c     goto    0x38c            	GOTO	_00460_DS_
                                           ;	.line	804; "MC32P7351.c"	adc_val = 4095; // 防止进入下面的if (adc_val < ADCDETECT_CHARING_THRESHOLD)
000388   3cff     movai   0xff             	MOVAI	0xff
000389   566c     movra   0x6c             	MOVRA	_adc_val
00038a   3c0f     movai   0xf              	MOVAI	0x0f
00038b   566d     movra   0x6d             	MOVRA	(_adc_val + 1)
                                           _00460_DS_
                                           ;	.line	807; "MC32P7351.c"	if (adc_charging_val != 0)
00038c   586e     movar   0x6e             	MOVAR	_adc_charging_val
00038d   5c6f     orar    0x6f             	ORAR	(_adc_charging_val + 1)
00038e   f587     jbclr   0x187, 0x2       	JBCLR	PFLAG,2
00038f   a39a     goto    0x39a            	GOTO	_00462_DS_
                                           ;	.line	809; "MC32P7351.c"	adc_charging_val += adc_val;
000390   586c     movar   0x6c             	MOVAR	_adc_val
000391   7e6e     addra   0x6e             	ADDRA	_adc_charging_val
000392   586d     movar   0x6d             	MOVAR	(_adc_val + 1)
000393   f187     jbclr   0x187, 0         	JBCLR	PFLAG,0
000394   606d     jzar    0x6d             	JZAR	(_adc_val + 1)
000395   7e6f     addra   0x6f             	ADDRA	(_adc_charging_val + 1)
                                           ;;shiftRight_Left2ResultLit:5339: shCount=1, size=2, sign=0, same=1, offr=0
                                           ;	.line	810; "MC32P7351.c"	adc_charging_val /= 2;
000396   d187     bclr    0x187, 0         	BCLR	PFLAG,0
000397   4e6f     rrr     0x6f             	RRR	(_adc_charging_val + 1)
000398   4e6e     rrr     0x6e             	RRR	_adc_charging_val
000399   a3a0     goto    0x3a0            	GOTO	_00463_DS_
                                           _00462_DS_
                                           ;	.line	814; "MC32P7351.c"	adc_charging_val += adc_val;
00039a   586c     movar   0x6c             	MOVAR	_adc_val
00039b   7e6e     addra   0x6e             	ADDRA	_adc_charging_val
00039c   586d     movar   0x6d             	MOVAR	(_adc_val + 1)
00039d   f187     jbclr   0x187, 0         	JBCLR	PFLAG,0
00039e   606d     jzar    0x6d             	JZAR	(_adc_val + 1)
00039f   7e6f     addra   0x6f             	ADDRA	(_adc_charging_val + 1)
                                           _00463_DS_
                                           ;	.line	817; "MC32P7351.c"	if (FLAG_IS_IN_CHARGING)
0003a0   e476     jbset   0x76, 0x2        	JBSET	_flag1,2
0003a1   a3bd     goto    0x3bd            	GOTO	_00498_DS_
                                           ;;unsigned compare: left < lit(0x800=2048), size=2
                                           ;	.line	820; "MC32P7351.c"	if (adc_val < ADCDETECT_CHARING_THRESHOLD)
0003a2   3c08     movai   0x8              	MOVAI	0x08
0003a3   486d     rsubar  0x6d             	RSUBAR	(_adc_val + 1)
0003a4   e587     jbset   0x187, 0x2       	JBSET	PFLAG,2
0003a5   a3a8     goto    0x3a8            	GOTO	_00646_DS_
0003a6   3c00     movai   0                	MOVAI	0x00
0003a7   486c     rsubar  0x6c             	RSUBAR	_adc_val
                                           _00646_DS_
0003a8   f187     jbclr   0x187, 0         	JBCLR	PFLAG,0
0003a9   a3ab     goto    0x3ab            	GOTO	_00465_DS_
                                           ;;genSkipc:3291: created from rifx:013B5EFC
                                           ;	.line	822; "MC32P7351.c"	cnt++;
0003aa   6628     incr    0x28             	INCR	_adc_scan_handle_cnt_65536_93
                                           ;;unsigned compare: left < lit(0x8=8), size=1
                                           _00465_DS_
                                           ;	.line	825; "MC32P7351.c"	if (cnt >= 8)
0003ab   3c08     movai   0x8              	MOVAI	0x08
0003ac   4828     rsubar  0x28             	RSUBAR	_adc_scan_handle_cnt_65536_93
0003ad   e187     jbset   0x187, 0         	JBSET	PFLAG,0
0003ae   a3b6     goto    0x3b6            	GOTO	_00473_DS_
                                           ;;genSkipc:3291: created from rifx:013B5EFC
                                           ;	.line	828; "MC32P7351.c"	LED_CHARGING_OFF(); // 关闭充电指示灯
0003af   c990     bset    0x190, 0x4       	BSET	_IOP0bits,4
                                           ;	.line	829; "MC32P7351.c"	PWM2EC = 0;         // 关闭控制升压电路的pwm
0003b0   dda0     bclr    0x1a0, 0x6       	BCLR	_T2CRbits,6
                                           ;	.line	830; "MC32P7351.c"	T2DATA = 0;
0003b1   77a3     clrr    0x1a3            	CLRR	_T2DATA
                                           ;	.line	831; "MC32P7351.c"	LED_FULL_CHARGE_OFF(); // 关闭电池充满电的指示灯
0003b2   c790     bset    0x190, 0x3       	BSET	_IOP0bits,3
                                           ;	.line	833; "MC32P7351.c"	FLAG_IS_IN_CHARGING = 0;
0003b3   d476     bclr    0x76, 0x2        	BCLR	_flag1,2
                                           ;	.line	834; "MC32P7351.c"	FLAG_DURING_CHARGING_BAT_IS_NULL = 0; // 清空该标志位，因为已经不在充电的情况下
0003b4   de76     bclr    0x76, 0x7        	BCLR	_flag1,7
                                           ;	.line	835; "MC32P7351.c"	break;
0003b5   a3d9     goto    0x3d9            	GOTO	_00507_DS_
                                           _00473_DS_
                                           ;	.line	838; "MC32P7351.c"	if (FLAG_IS_DEVICE_OPEN)
0003b6   f076     jbclr   0x76, 0          	JBCLR	_flag1,0
0003b7   a3d6     goto    0x3d6            	GOTO	_00499_DS_
                                           ;	.line	844; "MC32P7351.c"	if (FLAG_BAT_IS_FULL)
0003b8   fa76     jbclr   0x76, 0x5        	JBCLR	_flag1,5
0003b9   a3d6     goto    0x3d6            	GOTO	_00499_DS_
                                           ;	.line	850; "MC32P7351.c"	LED_FULL_CHARGE_OFF();
0003ba   c790     bset    0x190, 0x3       	BSET	_IOP0bits,3
                                           ;	.line	851; "MC32P7351.c"	LED_CHARGING_ON();
0003bb   d990     bclr    0x190, 0x4       	BCLR	_IOP0bits,4
0003bc   a3d6     goto    0x3d6            	GOTO	_00499_DS_
                                           _00498_DS_
                                           ;	.line	858; "MC32P7351.c"	if (flag_bat_is_empty == 0 && adc_val >= ADCDETECT_CHARING_THRESHOLD)
0003bd   3c00     movai   0                	MOVAI	0x00
0003be   5c7d     orar    0x7d             	ORAR	_flag_bat_is_empty
0003bf   e587     jbset   0x187, 0x2       	JBSET	PFLAG,2
0003c0   a3ca     goto    0x3ca            	GOTO	_00487_DS_
                                           ;;unsigned compare: left < lit(0x800=2048), size=2
0003c1   3c08     movai   0x8              	MOVAI	0x08
0003c2   486d     rsubar  0x6d             	RSUBAR	(_adc_val + 1)
0003c3   e587     jbset   0x187, 0x2       	JBSET	PFLAG,2
0003c4   a3c7     goto    0x3c7            	GOTO	_00648_DS_
0003c5   3c00     movai   0                	MOVAI	0x00
0003c6   486c     rsubar  0x6c             	RSUBAR	_adc_val
                                           _00648_DS_
0003c7   e187     jbset   0x187, 0         	JBSET	PFLAG,0
0003c8   a3ca     goto    0x3ca            	GOTO	_00487_DS_
                                           ;;genSkipc:3291: created from rifx:013B5EFC
                                           ;	.line	860; "MC32P7351.c"	cnt++;
0003c9   6628     incr    0x28             	INCR	_adc_scan_handle_cnt_65536_93
                                           ;;unsigned compare: left < lit(0x8=8), size=1
                                           _00487_DS_
                                           ;	.line	884; "MC32P7351.c"	if (cnt >= 8)
0003ca   3c08     movai   0x8              	MOVAI	0x08
0003cb   4828     rsubar  0x28             	RSUBAR	_adc_scan_handle_cnt_65536_93
0003cc   e187     jbset   0x187, 0         	JBSET	PFLAG,0
0003cd   a3d6     goto    0x3d6            	GOTO	_00499_DS_
                                           ;;genSkipc:3291: created from rifx:013B5EFC
                                           ;	.line	887; "MC32P7351.c"	full_charge_cnt = 0;
0003ce   767f     clrr    0x7f             	CLRR	_full_charge_cnt
                                           ;	.line	888; "MC32P7351.c"	over_charging_cnt = 0;
0003cf   767e     clrr    0x7e             	CLRR	_over_charging_cnt
                                           ;	.line	890; "MC32P7351.c"	if (FLAG_IS_DEVICE_OPEN)
0003d0   f076     jbclr   0x76, 0          	JBCLR	_flag1,0
0003d1   a3d3     goto    0x3d3            	GOTO	_00494_DS_
                                           ;	.line	896; "MC32P7351.c"	LED_CHARGING_ON(); // 开启充电指示灯
0003d2   d990     bclr    0x190, 0x4       	BCLR	_IOP0bits,4
                                           _00494_DS_
                                           ;	.line	899; "MC32P7351.c"	PWM2EC = 1; // 开启控制升压电路的pwm
0003d3   cda0     bset    0x1a0, 0x6       	BSET	_T2CRbits,6
                                           ;	.line	900; "MC32P7351.c"	FLAG_IS_IN_CHARGING = 1;
0003d4   c476     bset    0x76, 0x2        	BSET	_flag1,2
                                           ;	.line	901; "MC32P7351.c"	break;
0003d5   a3d9     goto    0x3d9            	GOTO	_00507_DS_
                                           _00499_DS_
                                           ;	.line	906; "MC32P7351.c"	key_event_handle();
0003d6   83da     call    0x3da            	CALL	_key_event_handle
                                           ;	.line	799; "MC32P7351.c"	for (i = 0; i < 10; i++)
0003d7   667b     incr    0x7b             	INCR	_i
0003d8   a37c     goto    0x37c            	GOTO	_00505_DS_
                                           _00507_DS_
                                           ;	.line	908; "MC32P7351.c"	}
0003d9   000c     return                   	RETURN	
                                           ; exit point of _adc_scan_handle
                                           
                                           ;***
                                           ;  pBlock Stats: dbName = C
                                           ;***
                                           ;entry:  _key_event_handle	;Function start
                                           ; 2 exit points
                                           ;has an exit
                                           ;; Starting pCode block
                                           _key_event_handle	;Function start
                                           ; 2 exit points
                                           ;	.line	429; "MC32P7351.c"	if (FLAG_IS_DEVICE_OPEN)
0003da   e076     jbset   0x76, 0          	JBSET	_flag1,0
0003db   a41c     goto    0x41c            	GOTO	_00404_DS_
                                           ;	.line	432; "MC32P7351.c"	if (KEY_EVENT_MODE_HOLD == key_event)
0003dc   5878     movar   0x78             	MOVAR	_key_event
0003dd   3903     xorai   0x3              	XORAI	0x03
0003de   e587     jbset   0x187, 0x2       	JBSET	PFLAG,2
0003df   a3ec     goto    0x3ec            	GOTO	_00390_DS_
                                           ;	.line	434; "MC32P7351.c"	LED_WORKING_OFF(); // 关闭电源指示灯
0003e0   c994     bset    0x194, 0x4       	BSET	_IOP1bits,4
                                           ;	.line	435; "MC32P7351.c"	HEATING_OFF();     // 关闭加热
0003e1   d594     bclr    0x194, 0x2       	BCLR	_IOP1bits,2
                                           ;	.line	436; "MC32P7351.c"	FLAG_IS_DEVICE_OPEN = 0;
0003e2   d076     bclr    0x76, 0          	BCLR	_flag1,0
                                           ;	.line	437; "MC32P7351.c"	FLAG_IS_HEATING = 0;
0003e3   d276     bclr    0x76, 0x1        	BCLR	_flag1,1
                                           ;	.line	439; "MC32P7351.c"	if (flag_is_low_battery)
0003e4   e477     jbset   0x77, 0x2        	JBSET	_flag2,2
0003e5   a3e8     goto    0x3e8            	GOTO	_00366_DS_
                                           ;	.line	442; "MC32P7351.c"	LED_CHARGING_OFF(); // 关闭用于报警的LED
0003e6   c990     bset    0x190, 0x4       	BSET	_IOP0bits,4
                                           ;	.line	443; "MC32P7351.c"	flag_is_low_battery = 0;
0003e7   d477     bclr    0x77, 0x2        	BCLR	_flag2,2
                                           _00366_DS_
                                           ;	.line	446; "MC32P7351.c"	mode_flag = MODE_1; // 下一次切换模式时，会变成 MODE_2
0003e8   7679     clrr    0x79             	CLRR	_mode_flag
                                           ;	.line	449; "MC32P7351.c"	PWM0EC = 0;
0003e9   dd98     bclr    0x198, 0x6       	BCLR	_T0CRbits,6
                                           ;	.line	450; "MC32P7351.c"	PWM1EC = 0;
0003ea   dd9c     bclr    0x19c, 0x6       	BCLR	_T1CRbits,6
0003eb   a42a     goto    0x42a            	GOTO	_00405_DS_
                                           _00390_DS_
                                           ;	.line	452; "MC32P7351.c"	else if (KEY_EVENT_MODE_PRESS == key_event)
0003ec   5878     movar   0x78             	MOVAR	_key_event
0003ed   3902     xorai   0x2              	XORAI	0x02
0003ee   e587     jbset   0x187, 0x2       	JBSET	PFLAG,2
0003ef   a410     goto    0x410            	GOTO	_00387_DS_
                                           ;	.line	454; "MC32P7351.c"	if (MODE_1 == mode_flag)
0003f0   3c00     movai   0                	MOVAI	0x00
0003f1   5c79     orar    0x79             	ORAR	_mode_flag
0003f2   e587     jbset   0x187, 0x2       	JBSET	PFLAG,2
0003f3   a3fb     goto    0x3fb            	GOTO	_00373_DS_
                                           ;	.line	457; "MC32P7351.c"	T0DATA = 115;
0003f4   3c73     movai   0x73             	MOVAI	0x73
0003f5   579b     movra   0x19b            	MOVRA	_T0DATA
                                           ;	.line	458; "MC32P7351.c"	T1DATA = 115; // 89.9%占空比
0003f6   3c73     movai   0x73             	MOVAI	0x73
0003f7   579f     movra   0x19f            	MOVRA	_T1DATA
                                           ;	.line	460; "MC32P7351.c"	mode_flag = MODE_2;
0003f8   3c01     movai   0x1              	MOVAI	0x01
0003f9   5679     movra   0x79             	MOVRA	_mode_flag
0003fa   a42a     goto    0x42a            	GOTO	_00405_DS_
                                           _00373_DS_
                                           ;	.line	462; "MC32P7351.c"	else if (MODE_2 == mode_flag)
0003fb   5879     movar   0x79             	MOVAR	_mode_flag
0003fc   3901     xorai   0x1              	XORAI	0x01
0003fd   e587     jbset   0x187, 0x2       	JBSET	PFLAG,2
0003fe   a406     goto    0x406            	GOTO	_00370_DS_
                                           ;	.line	465; "MC32P7351.c"	T0DATA = 255;
0003ff   3cff     movai   0xff             	MOVAI	0xff
000400   579b     movra   0x19b            	MOVRA	_T0DATA
                                           ;	.line	466; "MC32P7351.c"	T1DATA = 255; // 100%占空比（确保大于TxLOAD的值就可以）
000401   3cff     movai   0xff             	MOVAI	0xff
000402   579f     movra   0x19f            	MOVRA	_T1DATA
                                           ;	.line	468; "MC32P7351.c"	mode_flag = MODE_3;
000403   3c02     movai   0x2              	MOVAI	0x02
000404   5679     movra   0x79             	MOVRA	_mode_flag
000405   a42a     goto    0x42a            	GOTO	_00405_DS_
                                           _00370_DS_
                                           ;	.line	470; "MC32P7351.c"	else if (MODE_3 == mode_flag)
000406   5879     movar   0x79             	MOVAR	_mode_flag
000407   3902     xorai   0x2              	XORAI	0x02
000408   e587     jbset   0x187, 0x2       	JBSET	PFLAG,2
000409   a42a     goto    0x42a            	GOTO	_00405_DS_
                                           ;	.line	473; "MC32P7351.c"	T0DATA = 103;
00040a   3c67     movai   0x67             	MOVAI	0x67
00040b   579b     movra   0x19b            	MOVRA	_T0DATA
                                           ;	.line	474; "MC32P7351.c"	T1DATA = 103; // 80.5%占空比
00040c   3c67     movai   0x67             	MOVAI	0x67
00040d   579f     movra   0x19f            	MOVRA	_T1DATA
                                           ;	.line	475; "MC32P7351.c"	mode_flag = MODE_1;
00040e   7679     clrr    0x79             	CLRR	_mode_flag
00040f   a42a     goto    0x42a            	GOTO	_00405_DS_
                                           _00387_DS_
                                           ;	.line	478; "MC32P7351.c"	else if (KEY_EVENT_HEAT_PRESS == key_event)
000410   5878     movar   0x78             	MOVAR	_key_event
000411   3901     xorai   0x1              	XORAI	0x01
000412   e587     jbset   0x187, 0x2       	JBSET	PFLAG,2
000413   a42a     goto    0x42a            	GOTO	_00405_DS_
                                           ;	.line	480; "MC32P7351.c"	if (0 == FLAG_IS_HEATING)
000414   f276     jbclr   0x76, 0x1        	JBCLR	_flag1,1
000415   a419     goto    0x419            	GOTO	_00378_DS_
                                           ;	.line	482; "MC32P7351.c"	HEATING_ON(); // 打开加热
000416   c594     bset    0x194, 0x2       	BSET	_IOP1bits,2
                                           ;	.line	483; "MC32P7351.c"	FLAG_IS_HEATING = 1;
000417   c276     bset    0x76, 0x1        	BSET	_flag1,1
000418   a42a     goto    0x42a            	GOTO	_00405_DS_
                                           _00378_DS_
                                           ;	.line	487; "MC32P7351.c"	HEATING_OFF(); // 关闭加热
000419   d594     bclr    0x194, 0x2       	BCLR	_IOP1bits,2
                                           ;	.line	488; "MC32P7351.c"	FLAG_IS_HEATING = 0;
00041a   d276     bclr    0x76, 0x1        	BCLR	_flag1,1
00041b   a42a     goto    0x42a            	GOTO	_00405_DS_
                                           _00404_DS_
                                           ;	.line	495; "MC32P7351.c"	if (KEY_EVENT_MODE_HOLD == key_event)
00041c   5878     movar   0x78             	MOVAR	_key_event
00041d   3903     xorai   0x3              	XORAI	0x03
00041e   e587     jbset   0x187, 0x2       	JBSET	PFLAG,2
00041f   a42a     goto    0x42a            	GOTO	_00405_DS_
                                           ;	.line	497; "MC32P7351.c"	LED_FULL_CHARGE_OFF(); // 关闭满电指示灯
000420   c790     bset    0x190, 0x3       	BSET	_IOP0bits,3
                                           ;	.line	498; "MC32P7351.c"	LED_CHARGING_OFF();    // 关闭充电指示灯
000421   c990     bset    0x190, 0x4       	BSET	_IOP0bits,4
                                           ;	.line	499; "MC32P7351.c"	LED_WORKING_ON();      // 打开电源指示灯
000422   d994     bclr    0x194, 0x4       	BCLR	_IOP1bits,4
                                           ;	.line	500; "MC32P7351.c"	FLAG_IS_DEVICE_OPEN = 1;
000423   c076     bset    0x76, 0          	BSET	_flag1,0
                                           ;	.line	505; "MC32P7351.c"	T0DATA = 103;
000424   3c67     movai   0x67             	MOVAI	0x67
000425   579b     movra   0x19b            	MOVRA	_T0DATA
                                           ;	.line	506; "MC32P7351.c"	T1DATA = 103;       // 约为 80.5%
000426   3c67     movai   0x67             	MOVAI	0x67
000427   579f     movra   0x19f            	MOVRA	_T1DATA
                                           ;	.line	507; "MC32P7351.c"	mode_flag = MODE_1; // 下一次切换模式时，会变成 MODE_2
000428   7679     clrr    0x79             	CLRR	_mode_flag
                                           ;	.line	510; "MC32P7351.c"	PWM0EC = 1;
000429   cd98     bset    0x198, 0x6       	BSET	_T0CRbits,6
                                           _00405_DS_
                                           ;	.line	515; "MC32P7351.c"	key_event = KEY_EVENT_NONE;
00042a   7678     clrr    0x78             	CLRR	_key_event
                                           ;	.line	516; "MC32P7351.c"	}
00042b   000c     return                   	RETURN	
                                           ; exit point of _key_event_handle
                                           
                                           ;***
                                           ;  pBlock Stats: dbName = C
                                           ;***
                                           ;entry:  _key_scan	;Function start
                                           ; 2 exit points
                                           ;has an exit
                                           ;; Starting pCode block
                                           _key_scan	;Function start
                                           ; 2 exit points
                                           ;	.line	318; "MC32P7351.c"	volatile u8 cur_key_id = KEY_ID_NONE;
00042c   7622     clrr    0x22             	CLRR	_key_scan_cur_key_id_65536_41
                                           ;	.line	322; "MC32P7351.c"	if (0 == KEY_MODE_PIN)
00042d   f390     jbclr   0x190, 0x1       	JBCLR	_IOP0bits,1
00042e   a432     goto    0x432            	GOTO	_00240_DS_
                                           ;	.line	324; "MC32P7351.c"	cur_key_id = KEY_ID_MODE;
00042f   3c01     movai   0x1              	MOVAI	0x01
000430   5622     movra   0x22             	MOVRA	_key_scan_cur_key_id_65536_41
000431   a436     goto    0x436            	GOTO	_00241_DS_
                                           _00240_DS_
                                           ;	.line	326; "MC32P7351.c"	else if (0 == KEY_HEAT_PIN)
000432   f394     jbclr   0x194, 0x1       	JBCLR	_IOP1bits,1
000433   a436     goto    0x436            	GOTO	_00241_DS_
                                           ;	.line	328; "MC32P7351.c"	cur_key_id = KEY_ID_HEAT;
000434   3c02     movai   0x2              	MOVAI	0x02
000435   5622     movra   0x22             	MOVRA	_key_scan_cur_key_id_65536_41
                                           _00241_DS_
                                           ;	.line	331; "MC32P7351.c"	if (cur_key_id != filter_key_id)
000436   5824     movar   0x24             	MOVAR	_key_scan_filter_key_id_65536_41
000437   4022     xorar   0x22             	XORAR	_key_scan_cur_key_id_65536_41
000438   e587     jbset   0x187, 0x2       	JBSET	PFLAG,2
000439   a43b     goto    0x43b            	GOTO	_00349_DS_
00043a   a43f     goto    0x43f            	GOTO	_00243_DS_
                                           _00349_DS_
                                           ;	.line	334; "MC32P7351.c"	filter_cnt = 0;
00043b   7623     clrr    0x23             	CLRR	_key_scan_filter_cnt_65536_41
                                           ;	.line	335; "MC32P7351.c"	filter_key_id = cur_key_id;
00043c   5822     movar   0x22             	MOVAR	_key_scan_cur_key_id_65536_41
00043d   5624     movra   0x24             	MOVRA	_key_scan_filter_key_id_65536_41
                                           ;	.line	336; "MC32P7351.c"	return;
00043e   a48e     goto    0x48e            	GOTO	_00279_DS_
                                           ;;unsigned compare: left < lit(0x3=3), size=1
                                           _00243_DS_
                                           ;	.line	339; "MC32P7351.c"	if (filter_cnt < KEY_FILTER_TIMES)
00043f   3c03     movai   0x3              	MOVAI	0x03
000440   4823     rsubar  0x23             	RSUBAR	_key_scan_filter_cnt_65536_41
000441   f187     jbclr   0x187, 0         	JBCLR	PFLAG,0
000442   a445     goto    0x445            	GOTO	_00245_DS_
                                           ;;genSkipc:3291: created from rifx:013B5EFC
                                           ;	.line	343; "MC32P7351.c"	filter_cnt++;
000443   6623     incr    0x23             	INCR	_key_scan_filter_cnt_65536_41
                                           ;	.line	344; "MC32P7351.c"	return;
000444   a48e     goto    0x48e            	GOTO	_00279_DS_
                                           _00245_DS_
                                           ;	.line	349; "MC32P7351.c"	if (last_key_id != cur_key_id)
000445   5822     movar   0x22             	MOVAR	_key_scan_cur_key_id_65536_41
000446   4027     xorar   0x27             	XORAR	_key_scan_last_key_id_65536_41
000447   e587     jbset   0x187, 0x2       	JBSET	PFLAG,2
000448   a44a     goto    0x44a            	GOTO	_00351_DS_
000449   a468     goto    0x468            	GOTO	_00277_DS_
                                           _00351_DS_
                                           ;	.line	351; "MC32P7351.c"	if (last_key_id == KEY_ID_NONE)
00044a   3c00     movai   0                	MOVAI	0x00
00044b   5c27     orar    0x27             	ORAR	_key_scan_last_key_id_65536_41
00044c   e587     jbset   0x187, 0x2       	JBSET	PFLAG,2
00044d   a450     goto    0x450            	GOTO	_00257_DS_
                                           ;	.line	354; "MC32P7351.c"	press_cnt = 0;
00044e   7625     clrr    0x25             	CLRR	_key_scan_press_cnt_65536_41
00044f   a48c     goto    0x48c            	GOTO	_00278_DS_
                                           _00257_DS_
                                           ;	.line	356; "MC32P7351.c"	else if (cur_key_id == KEY_ID_NONE)
000450   3c00     movai   0                	MOVAI	0x00
000451   5c22     orar    0x22             	ORAR	_key_scan_cur_key_id_65536_41
000452   e587     jbset   0x187, 0x2       	JBSET	PFLAG,2
000453   a48c     goto    0x48c            	GOTO	_00278_DS_
                                           ;;unsigned compare: left < lit(0x4B=75), size=1
                                           ;	.line	359; "MC32P7351.c"	if (press_cnt < 75)
000454   3c4b     movai   0x4b             	MOVAI	0x4b
000455   4825     rsubar  0x25             	RSUBAR	_key_scan_press_cnt_65536_41
000456   f187     jbclr   0x187, 0         	JBCLR	PFLAG,0
000457   a466     goto    0x466            	GOTO	_00252_DS_
                                           ;;genSkipc:3291: created from rifx:013B5EFC
                                           ;	.line	362; "MC32P7351.c"	if (KEY_ID_MODE == last_key_id)
000458   5827     movar   0x27             	MOVAR	_key_scan_last_key_id_65536_41
000459   3901     xorai   0x1              	XORAI	0x01
00045a   e587     jbset   0x187, 0x2       	JBSET	PFLAG,2
00045b   a45f     goto    0x45f            	GOTO	_00249_DS_
                                           ;	.line	365; "MC32P7351.c"	key_event = KEY_EVENT_MODE_PRESS;
00045c   3c02     movai   0x2              	MOVAI	0x02
00045d   5678     movra   0x78             	MOVRA	_key_event
00045e   a48c     goto    0x48c            	GOTO	_00278_DS_
                                           _00249_DS_
                                           ;	.line	371; "MC32P7351.c"	else if (KEY_ID_HEAT == last_key_id)
00045f   5827     movar   0x27             	MOVAR	_key_scan_last_key_id_65536_41
000460   3902     xorai   0x2              	XORAI	0x02
000461   e587     jbset   0x187, 0x2       	JBSET	PFLAG,2
000462   a48c     goto    0x48c            	GOTO	_00278_DS_
                                           ;	.line	374; "MC32P7351.c"	key_event = KEY_EVENT_HEAT_PRESS;
000463   3c01     movai   0x1              	MOVAI	0x01
000464   5678     movra   0x78             	MOVRA	_key_event
000465   a48c     goto    0x48c            	GOTO	_00278_DS_
                                           _00252_DS_
                                           ;	.line	382; "MC32P7351.c"	flag_is_key_mode_hold = 0;
000466   7626     clrr    0x26             	CLRR	_key_scan_flag_is_key_mode_hold_65536_41
000467   a48c     goto    0x48c            	GOTO	_00278_DS_
                                           _00277_DS_
                                           ;	.line	386; "MC32P7351.c"	else if (cur_key_id != KEY_ID_NONE)
000468   3c00     movai   0                	MOVAI	0x00
000469   5c22     orar    0x22             	ORAR	_key_scan_cur_key_id_65536_41
00046a   f587     jbclr   0x187, 0x2       	JBCLR	PFLAG,2
00046b   a48c     goto    0x48c            	GOTO	_00278_DS_
                                           ;;unsigned compare: left < lit(0xFF=255), size=1
                                           ;	.line	389; "MC32P7351.c"	if (press_cnt < 255)
00046c   3cff     movai   0xff             	MOVAI	0xff
00046d   4825     rsubar  0x25             	RSUBAR	_key_scan_press_cnt_65536_41
00046e   f187     jbclr   0x187, 0         	JBCLR	PFLAG,0
00046f   a471     goto    0x471            	GOTO	_00260_DS_
                                           ;;genSkipc:3291: created from rifx:013B5EFC
                                           ;	.line	390; "MC32P7351.c"	press_cnt++;
000470   6625     incr    0x25             	INCR	_key_scan_press_cnt_65536_41
                                           _00260_DS_
                                           ;	.line	392; "MC32P7351.c"	if (FLAG_IS_DEVICE_OPEN)
000471   e076     jbset   0x76, 0          	JBSET	_flag1,0
000472   a480     goto    0x480            	GOTO	_00272_DS_
                                           ;;unsigned compare: left < lit(0xC8=200), size=1
                                           ;	.line	394; "MC32P7351.c"	if (press_cnt >= 200) // 2000ms
000473   3cc8     movai   0xc8             	MOVAI	0xc8
000474   4825     rsubar  0x25             	RSUBAR	_key_scan_press_cnt_65536_41
000475   e187     jbset   0x187, 0         	JBSET	PFLAG,0
000476   a48c     goto    0x48c            	GOTO	_00278_DS_
                                           ;;genSkipc:3291: created from rifx:013B5EFC
                                           ;	.line	396; "MC32P7351.c"	if (flag_is_key_mode_hold)
000477   3c00     movai   0                	MOVAI	0x00
000478   5c26     orar    0x26             	ORAR	_key_scan_flag_is_key_mode_hold_65536_41
000479   e587     jbset   0x187, 0x2       	JBSET	PFLAG,2
00047a   a48c     goto    0x48c            	GOTO	_00278_DS_
                                           ;	.line	401; "MC32P7351.c"	key_event = KEY_EVENT_MODE_HOLD;
00047b   3c03     movai   0x3              	MOVAI	0x03
00047c   5678     movra   0x78             	MOVRA	_key_event
                                           ;	.line	402; "MC32P7351.c"	flag_is_key_mode_hold = 1;
00047d   3c01     movai   0x1              	MOVAI	0x01
00047e   5626     movra   0x26             	MOVRA	_key_scan_flag_is_key_mode_hold_65536_41
00047f   a48c     goto    0x48c            	GOTO	_00278_DS_
                                           ;;unsigned compare: left < lit(0x64=100), size=1
                                           _00272_DS_
                                           ;	.line	409; "MC32P7351.c"	if (press_cnt >= 100) // 1000ms加上看门狗唤醒的1024ms
000480   3c64     movai   0x64             	MOVAI	0x64
000481   4825     rsubar  0x25             	RSUBAR	_key_scan_press_cnt_65536_41
000482   e187     jbset   0x187, 0         	JBSET	PFLAG,0
000483   a48c     goto    0x48c            	GOTO	_00278_DS_
                                           ;;genSkipc:3291: created from rifx:013B5EFC
                                           ;	.line	411; "MC32P7351.c"	if (flag_is_key_mode_hold)
000484   3c00     movai   0                	MOVAI	0x00
000485   5c26     orar    0x26             	ORAR	_key_scan_flag_is_key_mode_hold_65536_41
000486   e587     jbset   0x187, 0x2       	JBSET	PFLAG,2
000487   a48c     goto    0x48c            	GOTO	_00278_DS_
                                           ;	.line	416; "MC32P7351.c"	key_event = KEY_EVENT_MODE_HOLD;
000488   3c03     movai   0x3              	MOVAI	0x03
000489   5678     movra   0x78             	MOVRA	_key_event
                                           ;	.line	417; "MC32P7351.c"	flag_is_key_mode_hold = 1;
00048a   3c01     movai   0x1              	MOVAI	0x01
00048b   5626     movra   0x26             	MOVRA	_key_scan_flag_is_key_mode_hold_65536_41
                                           _00278_DS_
                                           ;	.line	423; "MC32P7351.c"	last_key_id = cur_key_id;
00048c   5822     movar   0x22             	MOVAR	_key_scan_cur_key_id_65536_41
00048d   5627     movra   0x27             	MOVRA	_key_scan_last_key_id_65536_41
                                           _00279_DS_
                                           ;	.line	424; "MC32P7351.c"	}
00048e   000c     return                   	RETURN	
                                           ; exit point of _key_scan
                                           
                                           ;***
                                           ;  pBlock Stats: dbName = C
                                           ;***
                                           ;entry:  _Sys_Init	;Function start
                                           ; 2 exit points
                                           ;has an exit
                                           ;functions called:
                                           ;   _CLR_RAM
                                           ;   _IO_Init
                                           ;   _timer0_pwm_config
                                           ;   _timer1_pwm_config
                                           ;   _timer2_pwm_config
                                           ;   _timer3_config
                                           ;   _key_config
                                           ;   _adc_config
                                           ;   _CLR_RAM
                                           ;   _IO_Init
                                           ;   _timer0_pwm_config
                                           ;   _timer1_pwm_config
                                           ;   _timer2_pwm_config
                                           ;   _timer3_config
                                           ;   _key_config
                                           ;   _adc_config
                                           ;; Starting pCode block
                                           _Sys_Init	;Function start
                                           ; 2 exit points
                                           ;	.line	272; "MC32P7351.c"	GIE = 0;
00048f   df88     bclr    0x188, 0x7       	BCLR	_MCRbits,7
                                           ;	.line	273; "MC32P7351.c"	CLR_RAM();
000490   85ae     call    0x5ae            	CALL	_CLR_RAM
                                           ;	.line	274; "MC32P7351.c"	IO_Init();
000491   859e     call    0x59e            	CALL	_IO_Init
                                           ;	.line	276; "MC32P7351.c"	timer0_pwm_config();
000492   858a     call    0x58a            	CALL	_timer0_pwm_config
                                           ;	.line	277; "MC32P7351.c"	timer1_pwm_config();
000493   8582     call    0x582            	CALL	_timer1_pwm_config
                                           ;	.line	278; "MC32P7351.c"	timer2_pwm_config();
000494   8578     call    0x578            	CALL	_timer2_pwm_config
                                           ;	.line	280; "MC32P7351.c"	timer3_config();
000495   8572     call    0x572            	CALL	_timer3_config
                                           ;	.line	282; "MC32P7351.c"	key_config();
000496   856d     call    0x56d            	CALL	_key_config
                                           ;	.line	283; "MC32P7351.c"	adc_config();
000497   8592     call    0x592            	CALL	_adc_config
                                           ;	.line	286; "MC32P7351.c"	LED_WORKING_OFF();
000498   c994     bset    0x194, 0x4       	BSET	_IOP1bits,4
                                           ;	.line	287; "MC32P7351.c"	LED_FULL_CHARGE_OFF();
000499   c790     bset    0x190, 0x3       	BSET	_IOP0bits,3
                                           ;	.line	288; "MC32P7351.c"	LED_CHARGING_OFF();
00049a   c990     bset    0x190, 0x4       	BSET	_IOP0bits,4
                                           ;	.line	290; "MC32P7351.c"	GIE = 1;
00049b   cf88     bset    0x188, 0x7       	BSET	_MCRbits,7
                                           ;	.line	291; "MC32P7351.c"	}
00049c   000c     return                   	RETURN	
                                           ; exit point of _Sys_Init
                                           
                                           ;***
                                           ;  pBlock Stats: dbName = C
                                           ;***
                                           ;entry:  _adc_get_val_once	;Function start
                                           ; 2 exit points
                                           ;has an exit
                                           ;7 compiler assigned registers:
                                           ;   r0x103C
                                           ;   r0x103D
                                           ;   r0x103E
                                           ;   r0x103F
                                           ;   r0x1040
                                           ;   r0x1041
                                           ;   STK00
                                           ;; Starting pCode block
                                           _adc_get_val_once	;Function start
                                           ; 2 exit points
                                           ;	.line	233; "MC32P7351.c"	ADEOC = 0; // 清除ADC转换完成标志位，启动AD转换
00049d   d3b0     bclr    0x1b0, 0x1       	BCLR	_ADCR0bits,1
                                           _00228_DS_
                                           ;	.line	234; "MC32P7351.c"	while (!ADEOC)
00049e   e3b0     jbset   0x1b0, 0x1       	JBSET	_ADCR0bits,1
00049f   a49e     goto    0x49e            	GOTO	_00228_DS_
                                           ;	.line	236; "MC32P7351.c"	g_temp_value = ADRH; // 取出转换后的值
0004a0   59b4     movar   0x1b4            	MOVAR	_ADRH
0004a1   5608     movra   0x8              	MOVRA	r0x103C
0004a2   7607     clrr    0x7              	CLRR	r0x103D
                                           ;	.line	237; "MC32P7351.c"	g_temp_value = g_temp_value << 4 | (ADRL & 0x0F);
0004a3   4407     swapar  0x7              	SWAPAR	r0x103D
0004a4   3ef0     andai   0xf0             	ANDAI	0xf0
0004a5   5609     movra   0x9              	MOVRA	r0x103E
0004a6   4408     swapar  0x8              	SWAPAR	r0x103C
0004a7   560a     movra   0xa              	MOVRA	r0x103F
0004a8   3e0f     andai   0xf              	ANDAI	0x0f
0004a9   5e09     orra    0x9              	ORRA	r0x103E
0004aa   420a     xorra   0xa              	XORRA	r0x103F
0004ab   59b5     movar   0x1b5            	MOVAR	_ADRL
0004ac   5608     movra   0x8              	MOVRA	r0x103C
0004ad   7607     clrr    0x7              	CLRR	r0x103D
0004ae   3c0f     movai   0xf              	MOVAI	0x0f
0004af   7a08     andra   0x8              	ANDRA	r0x103C
0004b0   7607     clrr    0x7              	CLRR	r0x103D
                                           ;;101	MOVAR	r0x103C
                                           ;;99	MOVRA	r0x1040
                                           ;;104	MOVAR	r0x103D
                                           ;;102	MOVRA	r0x1041
                                           ;;100	MOVAR	r0x1040
0004b1   5808     movar   0x8              	MOVAR	r0x103C
0004b2   5e0a     orra    0xa              	ORRA	r0x103F
                                           ;;103	MOVAR	r0x1041
0004b3   3c00     movai   0                	MOVAI	0x00
0004b4   5e09     orra    0x9              	ORRA	r0x103E
                                           ;	.line	261; "MC32P7351.c"	return g_temp_value;
0004b5   580a     movar   0xa              	MOVAR	r0x103F
0004b6   5606     movra   0x6              	MOVRA	STK00
0004b7   5809     movar   0x9              	MOVAR	r0x103E
                                           ;	.line	262; "MC32P7351.c"	}
0004b8   000c     return                   	RETURN	
                                           ; exit point of _adc_get_val_once
                                           
                                           ;***
                                           ;  pBlock Stats: dbName = C
                                           ;***
                                           ;entry:  _adc_get_val	;Function start
                                           ; 2 exit points
                                           ;has an exit
                                           ;16 compiler assigned registers:
                                           ;   r0x103C
                                           ;   r0x103D
                                           ;   r0x103E
                                           ;   r0x103F
                                           ;   r0x1040
                                           ;   r0x1041
                                           ;   r0x1042
                                           ;   r0x1043
                                           ;   r0x1044
                                           ;   r0x1045
                                           ;   r0x1046
                                           ;   r0x1047
                                           ;   r0x1048
                                           ;   r0x1049
                                           ;   r0x104A
                                           ;   STK00
                                           ;; Starting pCode block
                                           _adc_get_val	;Function start
                                           ; 2 exit points
                                           ;	.line	180; "MC32P7351.c"	u32 g_tmpbuff = 0;
0004b9   7608     clrr    0x8              	CLRR	r0x103C
0004ba   7607     clrr    0x7              	CLRR	r0x103D
0004bb   7609     clrr    0x9              	CLRR	r0x103E
0004bc   760a     clrr    0xa              	CLRR	r0x103F
                                           ;	.line	181; "MC32P7351.c"	u16 g_adcmax = 0;
0004bd   760b     clrr    0xb              	CLRR	r0x1040
0004be   760c     clrr    0xc              	CLRR	r0x1041
                                           ;	.line	182; "MC32P7351.c"	u16 g_adcmin = 0xFFFF;
0004bf   3cff     movai   0xff             	MOVAI	0xff
0004c0   560d     movra   0xd              	MOVRA	r0x1042
0004c1   560e     movra   0xe              	MOVRA	r0x1043
                                           ;	.line	185; "MC32P7351.c"	for (i = 0; i < 20; i++)
0004c2   760f     clrr    0xf              	CLRR	r0x1044
                                           _00182_DS_
                                           ;	.line	187; "MC32P7351.c"	ADEOC = 0; // 清除ADC转换完成标志位，启动AD转换
0004c3   d3b0     bclr    0x1b0, 0x1       	BCLR	_ADCR0bits,1
                                           _00171_DS_
                                           ;	.line	188; "MC32P7351.c"	while (!ADEOC)
0004c4   e3b0     jbset   0x1b0, 0x1       	JBSET	_ADCR0bits,1
0004c5   a4c4     goto    0x4c4            	GOTO	_00171_DS_
                                           ;	.line	190; "MC32P7351.c"	g_temp_value = ADRH; // 取出转换后的值
0004c6   59b4     movar   0x1b4            	MOVAR	_ADRH
0004c7   5610     movra   0x10             	MOVRA	r0x1045
0004c8   7611     clrr    0x11             	CLRR	r0x1046
                                           ;	.line	191; "MC32P7351.c"	g_temp_value = g_temp_value << 4 | (ADRL & 0x0F);
0004c9   4411     swapar  0x11             	SWAPAR	r0x1046
0004ca   3ef0     andai   0xf0             	ANDAI	0xf0
0004cb   5613     movra   0x13             	MOVRA	r0x1047
0004cc   4410     swapar  0x10             	SWAPAR	r0x1045
0004cd   5612     movra   0x12             	MOVRA	r0x1048
0004ce   3e0f     andai   0xf              	ANDAI	0x0f
0004cf   5e13     orra    0x13             	ORRA	r0x1047
0004d0   4212     xorra   0x12             	XORRA	r0x1048
0004d1   59b5     movar   0x1b5            	MOVAR	_ADRL
0004d2   5610     movra   0x10             	MOVRA	r0x1045
0004d3   7611     clrr    0x11             	CLRR	r0x1046
0004d4   3c0f     movai   0xf              	MOVAI	0x0f
0004d5   7a10     andra   0x10             	ANDRA	r0x1045
0004d6   7611     clrr    0x11             	CLRR	r0x1046
                                           ;;120	MOVAR	r0x1045
0004d7   3c00     movai   0                	MOVAI	0x00
0004d8   5615     movra   0x15             	MOVRA	r0x104A
                                           ;;119	MOVAR	r0x1049
0004d9   5810     movar   0x10             	MOVAR	r0x1045
0004da   5614     movra   0x14             	MOVRA	r0x1049
0004db   5c12     orar    0x12             	ORAR	r0x1048
0004dc   5610     movra   0x10             	MOVRA	r0x1045
0004dd   5815     movar   0x15             	MOVAR	r0x104A
0004de   5c13     orar    0x13             	ORAR	r0x1047
0004df   5611     movra   0x11             	MOVRA	r0x1046
                                           ;;unsigned compare: left < lit(0x2=2), size=1
                                           ;	.line	192; "MC32P7351.c"	if (i < 2)
0004e0   3c02     movai   0x2              	MOVAI	0x02
0004e1   480f     rsubar  0xf              	RSUBAR	r0x1044
0004e2   e187     jbset   0x187, 0         	JBSET	PFLAG,0
0004e3   a50e     goto    0x50e            	GOTO	_00180_DS_
                                           ;;genSkipc:3291: created from rifx:013B5EFC
                                           ;	.line	194; "MC32P7351.c"	if (g_temp_value > g_adcmax)
0004e4   5811     movar   0x11             	MOVAR	r0x1046
0004e5   480c     rsubar  0xc              	RSUBAR	r0x1041
0004e6   e587     jbset   0x187, 0x2       	JBSET	PFLAG,2
0004e7   a4ea     goto    0x4ea            	GOTO	_00222_DS_
0004e8   5810     movar   0x10             	MOVAR	r0x1045
0004e9   480b     rsubar  0xb              	RSUBAR	r0x1040
                                           _00222_DS_
0004ea   f187     jbclr   0x187, 0         	JBCLR	PFLAG,0
0004eb   a4f0     goto    0x4f0            	GOTO	_00177_DS_
                                           ;;genSkipc:3291: created from rifx:013B5EFC
                                           ;	.line	195; "MC32P7351.c"	g_adcmax = g_temp_value; // 最大
0004ec   5810     movar   0x10             	MOVAR	r0x1045
0004ed   560b     movra   0xb              	MOVRA	r0x1040
0004ee   5811     movar   0x11             	MOVAR	r0x1046
0004ef   560c     movra   0xc              	MOVRA	r0x1041
                                           _00177_DS_
                                           ;	.line	196; "MC32P7351.c"	if (g_temp_value < g_adcmin)
0004f0   580e     movar   0xe              	MOVAR	r0x1043
0004f1   4811     rsubar  0x11             	RSUBAR	r0x1046
0004f2   e587     jbset   0x187, 0x2       	JBSET	PFLAG,2
0004f3   a4f6     goto    0x4f6            	GOTO	_00223_DS_
0004f4   580d     movar   0xd              	MOVAR	r0x1042
0004f5   4810     rsubar  0x10             	RSUBAR	r0x1045
                                           _00223_DS_
0004f6   f187     jbclr   0x187, 0         	JBCLR	PFLAG,0
0004f7   a4fc     goto    0x4fc            	GOTO	_00179_DS_
                                           ;;genSkipc:3291: created from rifx:013B5EFC
                                           ;	.line	197; "MC32P7351.c"	g_adcmin = g_temp_value; // 最小
0004f8   5810     movar   0x10             	MOVAR	r0x1045
0004f9   560d     movra   0xd              	MOVRA	r0x1042
0004fa   5811     movar   0x11             	MOVAR	r0x1046
0004fb   560e     movra   0xe              	MOVRA	r0x1043
                                           ;;116	MOVAR	r0x1045
                                           ;;118	MOVAR	r0x1046
                                           _00179_DS_
                                           ;	.line	198; "MC32P7351.c"	g_tmpbuff += g_temp_value;
0004fc   7614     clrr    0x14             	CLRR	r0x1049
0004fd   7615     clrr    0x15             	CLRR	r0x104A
                                           ;;115	MOVAR	r0x1048
0004fe   5810     movar   0x10             	MOVAR	r0x1045
0004ff   5612     movra   0x12             	MOVRA	r0x1048
000500   7e08     addra   0x8              	ADDRA	r0x103C
                                           ;;117	MOVAR	r0x1047
000501   5811     movar   0x11             	MOVAR	r0x1046
000502   5613     movra   0x13             	MOVRA	r0x1047
000503   f187     jbclr   0x187, 0         	JBCLR	PFLAG,0
000504   6013     jzar    0x13             	JZAR	r0x1047
000505   7e07     addra   0x7              	ADDRA	r0x103D
000506   5814     movar   0x14             	MOVAR	r0x1049
000507   f187     jbclr   0x187, 0         	JBCLR	PFLAG,0
000508   6014     jzar    0x14             	JZAR	r0x1049
000509   7e09     addra   0x9              	ADDRA	r0x103E
00050a   5815     movar   0x15             	MOVAR	r0x104A
00050b   f187     jbclr   0x187, 0         	JBCLR	PFLAG,0
00050c   6015     jzar    0x15             	JZAR	r0x104A
00050d   7e0a     addra   0xa              	ADDRA	r0x103F
                                           _00180_DS_
                                           ;	.line	185; "MC32P7351.c"	for (i = 0; i < 20; i++)
00050e   660f     incr    0xf              	INCR	r0x1044
                                           ;;unsigned compare: left < lit(0x14=20), size=1
00050f   3c14     movai   0x14             	MOVAI	0x14
000510   480f     rsubar  0xf              	RSUBAR	r0x1044
000511   e187     jbset   0x187, 0         	JBSET	PFLAG,0
000512   a4c3     goto    0x4c3            	GOTO	_00182_DS_
                                           ;;genSkipc:3291: created from rifx:013B5EFC
                                           ;;114	MOVAR	r0x1040
                                           ;	.line	200; "MC32P7351.c"	g_tmpbuff -= g_adcmax;           // 去掉一个最大
000513   580c     movar   0xc              	MOVAR	r0x1041
000514   5610     movra   0x10             	MOVRA	r0x1045
000515   7611     clrr    0x11             	CLRR	r0x1046
000516   7612     clrr    0x12             	CLRR	r0x1048
                                           ;;113	MOVAR	r0x1044
000517   580b     movar   0xb              	MOVAR	r0x1040
000518   560f     movra   0xf              	MOVRA	r0x1044
000519   4808     rsubar  0x8              	RSUBAR	r0x103C
00051a   560b     movra   0xb              	MOVRA	r0x1040
00051b   5807     movar   0x7              	MOVAR	r0x103D
00051c   560c     movra   0xc              	MOVRA	r0x1041
00051d   5810     movar   0x10             	MOVAR	r0x1045
00051e   e187     jbset   0x187, 0         	JBSET	PFLAG,0
00051f   6010     jzar    0x10             	JZAR	r0x1045
000520   4a0c     rsubra  0xc              	RSUBRA	r0x1041
000521   5809     movar   0x9              	MOVAR	r0x103E
000522   5613     movra   0x13             	MOVRA	r0x1047
000523   5811     movar   0x11             	MOVAR	r0x1046
000524   e187     jbset   0x187, 0         	JBSET	PFLAG,0
000525   6011     jzar    0x11             	JZAR	r0x1046
000526   4a13     rsubra  0x13             	RSUBRA	r0x1047
000527   5812     movar   0x12             	MOVAR	r0x1048
000528   e187     jbset   0x187, 0         	JBSET	PFLAG,0
000529   6412     incar   0x12             	INCAR	r0x1048
00052a   480a     rsubar  0xa              	RSUBAR	r0x103F
00052b   5614     movra   0x14             	MOVRA	r0x1049
                                           ;;106	MOVAR	r0x1042
                                           ;;108	MOVAR	r0x1043
                                           ;	.line	201; "MC32P7351.c"	g_tmpbuff -= g_adcmin;           // 去掉一个最小
00052c   7609     clrr    0x9              	CLRR	r0x103E
00052d   760a     clrr    0xa              	CLRR	r0x103F
                                           ;;105	MOVAR	r0x103C
00052e   580d     movar   0xd              	MOVAR	r0x1042
00052f   5608     movra   0x8              	MOVRA	r0x103C
000530   4a0b     rsubra  0xb              	RSUBRA	r0x1040
                                           ;;107	MOVAR	r0x103D
000531   580e     movar   0xe              	MOVAR	r0x1043
000532   5607     movra   0x7              	MOVRA	r0x103D
000533   e187     jbset   0x187, 0         	JBSET	PFLAG,0
000534   6007     jzar    0x7              	JZAR	r0x103D
000535   4a0c     rsubra  0xc              	RSUBRA	r0x1041
000536   5809     movar   0x9              	MOVAR	r0x103E
000537   e187     jbset   0x187, 0         	JBSET	PFLAG,0
000538   6009     jzar    0x9              	JZAR	r0x103E
000539   4a13     rsubra  0x13             	RSUBRA	r0x1047
00053a   580a     movar   0xa              	MOVAR	r0x103F
00053b   e187     jbset   0x187, 0         	JBSET	PFLAG,0
00053c   600a     jzar    0xa              	JZAR	r0x103F
00053d   4a14     rsubra  0x14             	RSUBRA	r0x1049
                                           ;	.line	202; "MC32P7351.c"	g_temp_value = (g_tmpbuff >> 4); // 除以16，取平均值
00053e   440b     swapar  0xb              	SWAPAR	r0x1040
00053f   3e0f     andai   0xf              	ANDAI	0x0f
000540   5608     movra   0x8              	MOVRA	r0x103C
000541   440c     swapar  0xc              	SWAPAR	r0x1041
000542   5607     movra   0x7              	MOVRA	r0x103D
000543   3ef0     andai   0xf0             	ANDAI	0xf0
000544   5e08     orra    0x8              	ORRA	r0x103C
000545   4207     xorra   0x7              	XORRA	r0x103D
000546   4413     swapar  0x13             	SWAPAR	r0x1047
000547   5609     movra   0x9              	MOVRA	r0x103E
000548   3ef0     andai   0xf0             	ANDAI	0xf0
000549   5e07     orra    0x7              	ORRA	r0x103D
00054a   4209     xorra   0x9              	XORRA	r0x103E
00054b   4414     swapar  0x14             	SWAPAR	r0x1049
00054c   560a     movra   0xa              	MOVRA	r0x103F
00054d   3ef0     andai   0xf0             	ANDAI	0xf0
00054e   5e09     orra    0x9              	ORRA	r0x103E
00054f   420a     xorra   0xa              	XORRA	r0x103F
                                           ;;110	MOVAR	r0x103C
                                           ;;112	MOVAR	r0x103D
                                           ;;109	MOVAR	r0x1040
                                           ;	.line	226; "MC32P7351.c"	return g_temp_value;
000550   5808     movar   0x8              	MOVAR	r0x103C
000551   560b     movra   0xb              	MOVRA	r0x1040
000552   5606     movra   0x6              	MOVRA	STK00
                                           ;;111	MOVAR	r0x1041
000553   5807     movar   0x7              	MOVAR	r0x103D
000554   560c     movra   0xc              	MOVRA	r0x1041
                                           ;	.line	227; "MC32P7351.c"	}
000555   000c     return                   	RETURN	
                                           ; exit point of _adc_get_val
                                           
                                           ;***
                                           ;  pBlock Stats: dbName = C
                                           ;***
                                           ;entry:  _adc_sel_pin	;Function start
                                           ; 2 exit points
                                           ;has an exit
                                           ;functions called:
                                           ;   _delay_ms
                                           ;   _delay_ms
                                           ;2 compiler assigned registers:
                                           ;   r0x1042
                                           ;   STK00
                                           ;; Starting pCode block
                                           _adc_sel_pin	;Function start
                                           ; 2 exit points
                                           ;	.line	141; "MC32P7351.c"	void adc_sel_pin(u8 adc_pin)
000556   560d     movra   0xd              	MOVRA	r0x1042
                                           ;	.line	144; "MC32P7351.c"	switch (adc_pin)
000557   580d     movar   0xd              	MOVAR	r0x1042
000558   3901     xorai   0x1              	XORAI	0x01
000559   e587     jbset   0x187, 0x2       	JBSET	PFLAG,2
00055a   a55c     goto    0x55c            	GOTO	_00165_DS_
00055b   a562     goto    0x562            	GOTO	_00151_DS_
                                           _00165_DS_
00055c   580d     movar   0xd              	MOVAR	r0x1042
00055d   3902     xorai   0x2              	XORAI	0x02
00055e   e587     jbset   0x187, 0x2       	JBSET	PFLAG,2
00055f   a561     goto    0x561            	GOTO	_00166_DS_
000560   a565     goto    0x565            	GOTO	_00152_DS_
                                           _00166_DS_
000561   a568     goto    0x568            	GOTO	_00154_DS_
                                           _00151_DS_
                                           ;	.line	147; "MC32P7351.c"	ADCR0 &= ~(0x0F << 4); // 清空寄存器的通道选择位
000562   3c0f     movai   0xf              	MOVAI	0x0f
000563   7bb0     andra   0x1b0            	ANDRA	_ADCR0
                                           ;	.line	155; "MC32P7351.c"	break;
000564   a568     goto    0x568            	GOTO	_00154_DS_
                                           _00152_DS_
                                           ;	.line	158; "MC32P7351.c"	ADCR0 &= ~(0x0F << 4); // 清空寄存器的通道选择位
000565   3c0f     movai   0xf              	MOVAI	0x0f
000566   7bb0     andra   0x1b0            	ANDRA	_ADCR0
                                           ;	.line	159; "MC32P7351.c"	ADCR0 |= 0x01 << 4;    // AIN1--P02;
000567   c9b0     bset    0x1b0, 0x4       	BSET	_ADCR0,4
                                           _00154_DS_
                                           ;	.line	172; "MC32P7351.c"	delay_ms(1); // 切换adc检测的引脚后，要延时一段时间，等待adc稳定，防止意料之外的检测结果
000568   3c01     movai   0x1              	MOVAI	0x01
000569   5606     movra   0x6              	MOVRA	STK00
00056a   3c00     movai   0                	MOVAI	0x00
00056b   85ba     call    0x5ba            	CALL	_delay_ms
                                           ;	.line	173; "MC32P7351.c"	}
00056c   000c     return                   	RETURN	
                                           ; exit point of _adc_sel_pin
                                           
                                           ;***
                                           ;  pBlock Stats: dbName = C
                                           ;***
                                           ;entry:  _key_config	;Function start
                                           ; 2 exit points
                                           ;has an exit
                                           ;; Starting pCode block
                                           _key_config	;Function start
                                           ; 2 exit points
                                           ;	.line	132; "MC32P7351.c"	P11PU = 1; // 上拉
00056d   c396     bset    0x196, 0x1       	BSET	_PUP1bits,1
                                           ;	.line	133; "MC32P7351.c"	P11OE = 0; // 输入模式
00056e   d395     bclr    0x195, 0x1       	BCLR	_OEP1bits,1
                                           ;	.line	136; "MC32P7351.c"	P01PU = 1; // 上拉
00056f   c392     bset    0x192, 0x1       	BSET	_PUP0bits,1
                                           ;	.line	137; "MC32P7351.c"	P01OE = 0; // 输入模式
000570   d391     bclr    0x191, 0x1       	BCLR	_OEP0bits,1
                                           ;	.line	138; "MC32P7351.c"	}
000571   000c     return                   	RETURN	
                                           ; exit point of _key_config
                                           
                                           ;***
                                           ;  pBlock Stats: dbName = C
                                           ;***
                                           ;entry:  _timer3_config	;Function start
                                           ; 2 exit points
                                           ;has an exit
                                           ;; Starting pCode block
                                           _timer3_config	;Function start
                                           ; 2 exit points
                                           ;	.line	122; "MC32P7351.c"	T3LOAD = 250 - 1; // FCPU 32分频后，这里是1ms触发一次中断
000572   3cf9     movai   0xf9             	MOVAI	0xf9
000573   57a6     movra   0x1a6            	MOVRA	_T3LOAD
                                           ;	.line	124; "MC32P7351.c"	T3CR = 0x85; // 使能定时器，时钟源选择FCPU，32分频
000574   3c85     movai   0x85             	MOVAI	0x85
000575   57a4     movra   0x1a4            	MOVRA	_T3CR
                                           ;	.line	125; "MC32P7351.c"	T3IE = 1;
000576   cf8a     bset    0x18a, 0x7       	BSET	_INTEbits,7
                                           ;	.line	126; "MC32P7351.c"	}
000577   000c     return                   	RETURN	
                                           ; exit point of _timer3_config
                                           
                                           ;***
                                           ;  pBlock Stats: dbName = C
                                           ;***
                                           ;entry:  _timer2_pwm_config	;Function start
                                           ; 2 exit points
                                           ;has an exit
                                           ;; Starting pCode block
                                           _timer2_pwm_config	;Function start
                                           ; 2 exit points
                                           ;	.line	106; "MC32P7351.c"	T2CKS0 = 1;
000578   c7a0     bset    0x1a0, 0x3       	BSET	_T2CRbits,3
                                           ;	.line	107; "MC32P7351.c"	T2CKS1 = 0;
000579   d9a0     bclr    0x1a0, 0x4       	BCLR	_T2CRbits,4
                                           ;	.line	109; "MC32P7351.c"	TMRCKS0 = 0;
00057a   d7ad     bclr    0x1ad, 0x3       	BCLR	_PWMCR1bits,3
                                           ;	.line	110; "MC32P7351.c"	TMRCKS1 = 1;
00057b   c9ad     bset    0x1ad, 0x4       	BSET	_PWMCR1bits,4
                                           ;	.line	112; "MC32P7351.c"	T2LOAD = 209; //
00057c   3cd1     movai   0xd1             	MOVAI	0xd1
00057d   57a2     movra   0x1a2            	MOVRA	_T2LOAD
                                           ;	.line	113; "MC32P7351.c"	T2DATA = 0;
00057e   77a3     clrr    0x1a3            	CLRR	_T2DATA
                                           ;	.line	114; "MC32P7351.c"	PWM2EC = 0; // 禁止PWM输出
00057f   dda0     bclr    0x1a0, 0x6       	BCLR	_T2CRbits,6
                                           ;	.line	116; "MC32P7351.c"	T2EN = 1;
000580   cfa0     bset    0x1a0, 0x7       	BSET	_T2CRbits,7
                                           ;	.line	117; "MC32P7351.c"	}
000581   000c     return                   	RETURN	
                                           ; exit point of _timer2_pwm_config
                                           
                                           ;***
                                           ;  pBlock Stats: dbName = C
                                           ;***
                                           ;entry:  _timer1_pwm_config	;Function start
                                           ; 2 exit points
                                           ;has an exit
                                           ;; Starting pCode block
                                           _timer1_pwm_config	;Function start
                                           ; 2 exit points
                                           ;	.line	94; "MC32P7351.c"	T1CR |= 0x02; // 4分频
000582   c39c     bset    0x19c, 0x1       	BSET	_T1CR,1
                                           ;	.line	95; "MC32P7351.c"	T1LOAD = 128 - 1;
000583   3c7f     movai   0x7f             	MOVAI	0x7f
000584   579e     movra   0x19e            	MOVRA	_T1LOAD
                                           ;	.line	96; "MC32P7351.c"	T1DATA = 25; // 占空比 == T1DATA / T1LOAD
000585   3c19     movai   0x19             	MOVAI	0x19
000586   579f     movra   0x19f            	MOVRA	_T1DATA
                                           ;	.line	97; "MC32P7351.c"	PWM1EC = 0;  // 禁止PWM1输出
000587   dd9c     bclr    0x19c, 0x6       	BCLR	_T1CRbits,6
                                           ;	.line	98; "MC32P7351.c"	T1EN = 1;    // 启动定时器
000588   cf9c     bset    0x19c, 0x7       	BSET	_T1CRbits,7
                                           ;	.line	99; "MC32P7351.c"	}
000589   000c     return                   	RETURN	
                                           ; exit point of _timer1_pwm_config
                                           
                                           ;***
                                           ;  pBlock Stats: dbName = C
                                           ;***
                                           ;entry:  _timer0_pwm_config	;Function start
                                           ; 2 exit points
                                           ;has an exit
                                           ;; Starting pCode block
                                           _timer0_pwm_config	;Function start
                                           ; 2 exit points
                                           ;	.line	81; "MC32P7351.c"	T0CR |= 0x02; // 4分频
00058a   c398     bset    0x198, 0x1       	BSET	_T0CR,1
                                           ;	.line	82; "MC32P7351.c"	T0LOAD = 128 - 1;
00058b   3c7f     movai   0x7f             	MOVAI	0x7f
00058c   579a     movra   0x19a            	MOVRA	_T0LOAD
                                           ;	.line	83; "MC32P7351.c"	T0DATA = 25; // 占空比 == T0DATA / T0LOAD
00058d   3c19     movai   0x19             	MOVAI	0x19
00058e   579b     movra   0x19b            	MOVRA	_T0DATA
                                           ;	.line	84; "MC32P7351.c"	PWM0EC = 0;  // 禁止PWM输出
00058f   dd98     bclr    0x198, 0x6       	BCLR	_T0CRbits,6
                                           ;	.line	85; "MC32P7351.c"	T0EN = 1;    // 启动定时器
000590   cf98     bset    0x198, 0x7       	BSET	_T0CRbits,7
                                           ;	.line	86; "MC32P7351.c"	}
000591   000c     return                   	RETURN	
                                           ; exit point of _timer0_pwm_config
                                           
                                           ;***
                                           ;  pBlock Stats: dbName = C
                                           ;***
                                           ;entry:  _adc_config	;Function start
                                           ; 2 exit points
                                           ;has an exit
                                           ;; Starting pCode block
                                           _adc_config	;Function start
                                           ; 2 exit points
                                           ;	.line	62; "MC32P7351.c"	P00OE = 0; // 输入模式
000592   d191     bclr    0x191, 0         	BCLR	_OEP0bits,0
                                           ;	.line	63; "MC32P7351.c"	P00DC = 1; // 模拟模式
000593   c1b6     bset    0x1b6, 0         	BSET	_ADIOS0bits,0
                                           ;	.line	66; "MC32P7351.c"	P02OE = 0; // 输入模式
000594   d591     bclr    0x191, 0x2       	BCLR	_OEP0bits,2
                                           ;	.line	67; "MC32P7351.c"	P02DC = 1; // 模拟模式
000595   c3b6     bset    0x1b6, 0x1       	BSET	_ADIOS0bits,1
                                           ;	.line	69; "MC32P7351.c"	ADCR0 = 0x0A; // 12位精度、不启用ADC转换，不使能ADC
000596   3c0a     movai   0xa              	MOVAI	0x0a
000597   57b0     movra   0x1b0            	MOVRA	_ADCR0
                                           ;	.line	70; "MC32P7351.c"	ADCR1 = 0xE1; // 125K采样（最高精度）  内部3V参考电压
000598   3ce1     movai   0xe1             	MOVAI	0xe1
000599   57b1     movra   0x1b1            	MOVRA	_ADCR1
                                           ;	.line	71; "MC32P7351.c"	ADCR2 = 0xFF; // ADC采样时间为15个ADC时钟
00059a   3cff     movai   0xff             	MOVAI	0xff
00059b   57b2     movra   0x1b2            	MOVRA	_ADCR2
                                           ;	.line	72; "MC32P7351.c"	ADEN = 1;     // 使能ADC
00059c   c1b0     bset    0x1b0, 0         	BSET	_ADCR0bits,0
                                           ;	.line	73; "MC32P7351.c"	}
00059d   000c     return                   	RETURN	
                                           ; exit point of _adc_config
                                           
                                           ;***
                                           ;  pBlock Stats: dbName = C
                                           ;***
                                           ;entry:  _IO_Init	;Function start
                                           ; 2 exit points
                                           ;has an exit
                                           ;; Starting pCode block
                                           _IO_Init	;Function start
                                           ; 2 exit points
                                           ;	.line	37; "MC32P7351.c"	IOP0 = 0x00;   // io口数据位
00059e   7790     clrr    0x190            	CLRR	_IOP0
                                           ;	.line	38; "MC32P7351.c"	OEP0 = 0x3F;   // io口方向 1:out  0:in
00059f   3c3f     movai   0x3f             	MOVAI	0x3f
0005a0   5791     movra   0x191            	MOVRA	_OEP0
                                           ;	.line	39; "MC32P7351.c"	PUP0 = 0x00;   // io口上拉电阻   1:enable  0:disable
0005a1   7792     clrr    0x192            	CLRR	_PUP0
                                           ;	.line	40; "MC32P7351.c"	PDP0 = 0x00;   // io口下拉电阻   1:enable  0:disable
0005a2   7793     clrr    0x193            	CLRR	_PDP0
                                           ;	.line	41; "MC32P7351.c"	ADIOS0 = 0x00; // io类型选择  1:模拟输入  0:通用io
0005a3   77b6     clrr    0x1b6            	CLRR	_ADIOS0
                                           ;	.line	43; "MC32P7351.c"	IOP1 = 0x00;   // io口数据位
0005a4   7794     clrr    0x194            	CLRR	_IOP1
                                           ;	.line	44; "MC32P7351.c"	OEP1 = 0xFF;   // io口方向 1:out  0:in
0005a5   3cff     movai   0xff             	MOVAI	0xff
0005a6   5795     movra   0x195            	MOVRA	_OEP1
                                           ;	.line	45; "MC32P7351.c"	PUP1 = 0x00;   // io口上拉电阻   1:enable  0:disable
0005a7   7796     clrr    0x196            	CLRR	_PUP1
                                           ;	.line	46; "MC32P7351.c"	PDP1 = 0x00;   // io口下拉电阻   1:enable  0:disable
0005a8   7797     clrr    0x197            	CLRR	_PDP1
                                           ;	.line	47; "MC32P7351.c"	ADIOS1 = 0x00; // io类型选择  1:模拟输入  0:通用io
0005a9   77b7     clrr    0x1b7            	CLRR	_ADIOS1
                                           ;	.line	54; "MC32P7351.c"	PMOD = 0x00;  // P00、P01、P13 io端口值从寄存器读，推挽输出
0005aa   77bc     clrr    0x1bc            	CLRR	_PMOD
                                           ;	.line	55; "MC32P7351.c"	DRVCR = 0x80; // 普通驱动
0005ab   3c80     movai   0x80             	MOVAI	0x80
0005ac   578c     movra   0x18c            	MOVRA	_DRVCR
                                           ;	.line	56; "MC32P7351.c"	}
0005ad   000c     return                   	RETURN	
                                           ; exit point of _IO_Init
                                           
                                           ;***
                                           ;  pBlock Stats: dbName = C
                                           ;***
                                           ;entry:  _CLR_RAM	;Function start
                                           ; 2 exit points
                                           ;has an exit
                                           ;; Starting pCode block
                                           _CLR_RAM	;Function start
                                           ; 2 exit points
                                           ;	.line	22; "MC32P7351.c"	for (FSR0 = 0; FSR0 < 0xff; FSR0++)
0005ae   7784     clrr    0x184            	CLRR	_FSR0
                                           ;;unsigned compare: left < lit(0xFF=255), size=1
                                           _00118_DS_
0005af   3cff     movai   0xff             	MOVAI	0xff
0005b0   4984     rsubar  0x184            	RSUBAR	_FSR0
0005b1   f187     jbclr   0x187, 0         	JBCLR	PFLAG,0
0005b2   a5b6     goto    0x5b6            	GOTO	_00116_DS_
                                           ;;genSkipc:3291: created from rifx:013B5EFC
                                           ;	.line	24; "MC32P7351.c"	INDF0 = 0x00;
0005b3   7780     clrr    0x180            	CLRR	_INDF0
                                           ;	.line	22; "MC32P7351.c"	for (FSR0 = 0; FSR0 < 0xff; FSR0++)
0005b4   6784     incr    0x184            	INCR	_FSR0
0005b5   a5af     goto    0x5af            	GOTO	_00118_DS_
                                           _00116_DS_
                                           ;	.line	26; "MC32P7351.c"	FSR0 = 0xFF;
0005b6   3cff     movai   0xff             	MOVAI	0xff
0005b7   5784     movra   0x184            	MOVRA	_FSR0
                                           ;	.line	27; "MC32P7351.c"	INDF0 = 0x00;
0005b8   7780     clrr    0x180            	CLRR	_INDF0
                                           ;	.line	28; "MC32P7351.c"	}
0005b9   000c     return                   	RETURN	
                                           ; exit point of _CLR_RAM
                                           
                                           ;***
                                           ;  pBlock Stats: dbName = C
                                           ;***
                                           ;entry:  _delay_ms	;Function start
                                           ; 2 exit points
                                           ;has an exit
                                           ;7 compiler assigned registers:
                                           ;   r0x103C
                                           ;   STK00
                                           ;   r0x103D
                                           ;   r0x103E
                                           ;   r0x103F
                                           ;   r0x1040
                                           ;   r0x1041
                                           ;; Starting pCode block
                                           _delay_ms	;Function start
                                           ; 2 exit points
                                           ;	.line	299; "user.h"	void delay_ms(u16 xms)
0005ba   5608     movra   0x8              	MOVRA	r0x103C
0005bb   5806     movar   0x6              	MOVAR	STK00
0005bc   5607     movra   0x7              	MOVRA	r0x103D
                                           _00108_DS_
                                           ;	.line	301; "user.h"	while (xms)
0005bd   5807     movar   0x7              	MOVAR	r0x103D
0005be   5c08     orar    0x8              	ORAR	r0x103C
0005bf   f587     jbclr   0x187, 0x2       	JBCLR	PFLAG,2
0005c0   a5d9     goto    0x5d9            	GOTO	_00111_DS_
                                           ;	.line	304; "user.h"	while (i--)
0005c1   3c3c     movai   0x3c             	MOVAI	0x3c
0005c2   5609     movra   0x9              	MOVRA	r0x103E
0005c3   3c02     movai   0x2              	MOVAI	0x02
0005c4   560a     movra   0xa              	MOVRA	r0x103F
                                           _00105_DS_
0005c5   5809     movar   0x9              	MOVAR	r0x103E
0005c6   560b     movra   0xb              	MOVRA	r0x1040
0005c7   580a     movar   0xa              	MOVAR	r0x103F
0005c8   560c     movra   0xc              	MOVRA	r0x1041
0005c9   3cff     movai   0xff             	MOVAI	0xff
0005ca   7e09     addra   0x9              	ADDRA	r0x103E
0005cb   e187     jbset   0x187, 0         	JBSET	PFLAG,0
0005cc   6e0a     decr    0xa              	DECR	r0x103F
0005cd   580b     movar   0xb              	MOVAR	r0x1040
0005ce   5c0c     orar    0xc              	ORAR	r0x1041
0005cf   f587     jbclr   0x187, 0x2       	JBCLR	PFLAG,2
0005d0   a5d3     goto    0x5d3            	GOTO	_00107_DS_
                                           ;	.line	306; "user.h"	Nop();
0005d1   0000     nop                      	nop	
0005d2   a5c5     goto    0x5c5            	GOTO	_00105_DS_
                                           _00107_DS_
                                           ;	.line	308; "user.h"	xms--; // 把 --操作放在while()判断条件外面，更节省空间
0005d3   3cff     movai   0xff             	MOVAI	0xff
0005d4   7e07     addra   0x7              	ADDRA	r0x103D
0005d5   e187     jbset   0x187, 0         	JBSET	PFLAG,0
0005d6   6e08     decr    0x8              	DECR	r0x103C
                                           ;	.line	312; "user.h"	__endasm;
                                           	;
0005d7   000e     clrwdt                   	clrwdt;
                                           	
0005d8   a5bd     goto    0x5bd            	GOTO	_00108_DS_
                                           _00111_DS_
                                           ;	.line	314; "user.h"	}
0005d9   000c     return                   	RETURN	
                                           ; exit point of _delay_ms
                                           
                                           
                                           ;	code size estimation:
                                           ;	 1475+    0 =  1475 instructions ( 2950 byte)
                                           
                                           	end
                                           ;--------------------------------------------------------
                                           ; File Created by SN-SDCC : SinoMCU ANSI-C Compiler
                                           ; Version 2.0.0 (Dec 11 2019) (MINGW32)
                                           ; This file was generated Wed Jan 08 14:48:28 2025
                                           ;--------------------------------------------------------
                                           ; MC32 port for the RISC core
                                           ;--------------------------------------------------------
                                           ;	.file	"MC32P7351.c"
                                           	list	p=7351
                                           	radix dec
                                           	include "7351.inc"
                                           ;--------------------------------------------------------
                                           ; external declarations
                                           ;--------------------------------------------------------
                                           	extern	__mullong
                                           	extern	__divulong
                                           	extern	_INDF0bits
                                           	extern	_INDF1bits
                                           	extern	_INDF2bits
                                           	extern	_HIBYTEbits
                                           	extern	_FSR0bits
                                           	extern	_FSR1bits
                                           	extern	_PCLbits
                                           	extern	_PFLAGbits
                                           	extern	_MCRbits
                                           	extern	_INDF3bits
                                           	extern	_INTEbits
                                           	extern	_INTFbits
                                           	extern	_DRVCRbits
                                           	extern	_PFRCCRbits
                                           	extern	_P1KBCRbits
                                           	extern	_PFRCCALbits
                                           	extern	_IOP0bits
                                           	extern	_OEP0bits
                                           	extern	_PUP0bits
                                           	extern	_PDP0bits
                                           	extern	_IOP1bits
                                           	extern	_OEP1bits
                                           	extern	_PUP1bits
                                           	extern	_PDP1bits
                                           	extern	_T0CRbits
                                           	extern	_T0CNTbits
                                           	extern	_T0LOADbits
                                           	extern	_T0DATAbits
                                           	extern	_T1CRbits
                                           	extern	_T1CNTbits
                                           	extern	_T1LOADbits
                                           	extern	_T1DATAbits
                                           	extern	_T2CRbits
                                           	extern	_T2CNTbits
                                           	extern	_T2LOADbits
                                           	extern	_T2DATAbits
                                           	extern	_T3CRbits
                                           	extern	_T3CNTbits
                                           	extern	_T3LOADbits
                                           	extern	_PWM0DRbits
                                           	extern	_PWM1DRbits
                                           	extern	_PWM2DRbits
                                           	extern	_PWMCR0bits
                                           	extern	_PWMCR1bits
                                           	extern	_OSCMRbits
                                           	extern	_LVDCRbits
                                           	extern	_ADCR0bits
                                           	extern	_ADCR1bits
                                           	extern	_ADCR2bits
                                           	extern	_OSADJCRbits
                                           	extern	_ADRHbits
                                           	extern	_ADRLbits
                                           	extern	_ADIOS0bits
                                           	extern	_ADIOS1bits
                                           	extern	_PMODbits
                                           	extern	_PWMCR3bits
                                           	extern	_PWMCR2bits
                                           	extern	_PFRCAUXbits
                                           	extern	_HIRCCALbits
                                           	extern	_INDF0
                                           	extern	_INDF1
                                           	extern	_INDF2
                                           	extern	_HIBYTE
                                           	extern	_FSR0
                                           	extern	_FSR1
                                           	extern	_PCL
                                           	extern	_PFLAG
                                           	extern	_MCR
                                           	extern	_INDF3
                                           	extern	_INTE
                                           	extern	_INTF
                                           	extern	_DRVCR
                                           	extern	_PFRCCR
                                           	extern	_P1KBCR
                                           	extern	_PFRCCAL
                                           	extern	_IOP0
                                           	extern	_OEP0
                                           	extern	_PUP0
                                           	extern	_PDP0
                                           	extern	_IOP1
                                           	extern	_OEP1
                                           	extern	_PUP1
                                           	extern	_PDP1
                                           	extern	_T0CR
                                           	extern	_T0CNT
                                           	extern	_T0LOAD
                                           	extern	_T0DATA
                                           	extern	_T1CR
                                           	extern	_T1CNT
                                           	extern	_T1LOAD
                                           	extern	_T1DATA
                                           	extern	_T2CR
                                           	extern	_T2CNT
                                           	extern	_T2LOAD
                                           	extern	_T2DATA
                                           	extern	_T3CR
                                           	extern	_T3CNT
                                           	extern	_T3LOAD
                                           	extern	_PWM0DR
                                           	extern	_PWM1DR
                                           	extern	_PWM2DR
                                           	extern	_PWMCR0
                                           	extern	_PWMCR1
                                           	extern	_OSCMR
                                           	extern	_LVDCR
                                           	extern	_ADCR0
                                           	extern	_ADCR1
                                           	extern	_ADCR2
                                           	extern	_OSADJCR
                                           	extern	_ADRH
                                           	extern	_ADRL
                                           	extern	_ADIOS0
                                           	extern	_ADIOS1
                                           	extern	_PMOD
                                           	extern	_PWMCR3
                                           	extern	_PWMCR2
                                           	extern	_PFRCAUX
                                           	extern	_HIRCCAL
                                           ;--------------------------------------------------------
                                           ; global declarations
                                           ;--------------------------------------------------------
                                           	global	_delay_ms
                                           	global	_CLR_RAM
                                           	global	_IO_Init
                                           	global	_adc_config
                                           	global	_timer0_pwm_config
                                           	global	_timer1_pwm_config
                                           	global	_timer2_pwm_config
                                           	global	_timer3_config
                                           	global	_key_config
                                           	global	_adc_sel_pin
                                           	global	_adc_get_val
                                           	global	_adc_get_val_once
                                           	global	_Sys_Init
                                           	global	_key_scan
                                           	global	_key_event_handle
                                           	global	_adc_scan_handle
                                           	global	_turn_dir_scan_handle
                                           	global	_shutdown_scan_handle
                                           	global	_low_power_scan_handle
                                           	global	_main
                                           	global	_int_isr
                                           	global	_flag1
                                           	global	_flag2
                                           	global	_key_event
                                           	global	_mode_flag
                                           	global	_key_press_flag
                                           	global	_i
                                           	global	_adc_val
                                           	global	_turn_dir_ms_cnt
                                           	global	_shut_down_ms_cnt
                                           	global	_adc_bat_val
                                           	global	_adc_charging_val
                                           	global	_max_pwm_val
                                           	global	_last_pwm_val
                                           	global	_tmp_val
                                           	global	_tmp_val_l
                                           	global	_tmp_val_cnt
                                           	global	_flag_bat_is_empty
                                           	global	_tmp_bat_val
                                           	global	_over_charging_cnt
                                           	global	_full_charge_cnt
                                           	global	_abuf
                                           	global	_statusbuf
                                           
                                           	global STK06
                                           	global STK05
                                           	global STK04
                                           	global STK03
                                           	global STK02
                                           	global STK01
                                           	global STK00
                                           
                                           sharebank udata_ovr 0x0000
                                           STK06	res 1
                                           STK05	res 1
                                           STK04	res 1
                                           STK03	res 1
                                           STK02	res 1
                                           STK01	res 1
                                           STK00	res 1
                                           
                                           ;--------------------------------------------------------
                                           ; global definitions
                                           ;--------------------------------------------------------
                                           UD_MC32P7351_0	udata
                                           _flag1	res	1
                                           
                                           UD_MC32P7351_1	udata
                                           _flag2	res	1
                                           
                                           UD_MC32P7351_2	udata
                                           _key_event	res	1
                                           
                                           UD_MC32P7351_3	udata
                                           _mode_flag	res	1
                                           
                                           UD_MC32P7351_4	udata
                                           _key_press_flag	res	1
                                           
                                           UD_MC32P7351_5	udata
                                           _i	res	1
                                           
                                           UD_MC32P7351_6	udata
                                           _adc_val	res	2
                                           
                                           UD_MC32P7351_7	udata
                                           _turn_dir_ms_cnt	res	4
                                           
                                           UD_MC32P7351_8	udata
                                           _shut_down_ms_cnt	res	4
                                           
                                           UD_MC32P7351_9	udata
                                           _adc_bat_val	res	4
                                           
                                           UD_MC32P7351_10	udata
                                           _adc_charging_val	res	2
                                           
                                           UD_MC32P7351_11	udata
                                           _max_pwm_val	res	4
                                           
                                           UD_MC32P7351_12	udata
                                           _last_pwm_val	res	2
                                           
                                           UD_MC32P7351_13	udata
                                           _tmp_val	res	2
                                           
                                           UD_MC32P7351_14	udata
                                           _tmp_val_l	res	16
                                           
                                           UD_MC32P7351_15	udata
                                           _tmp_val_cnt	res	1
                                           
                                           UD_MC32P7351_16	udata
                                           _flag_bat_is_empty	res	1
                                           
                                           UD_MC32P7351_17	udata
                                           _tmp_bat_val	res	2
                                           
                                           UD_MC32P7351_18	udata
                                           _over_charging_cnt	res	1
                                           
                                           UD_MC32P7351_19	udata
                                           _full_charge_cnt	res	1
                                           
                                           UD_MC32P7351_20	udata
                                           _abuf	res	1
                                           
                                           UD_MC32P7351_21	udata
                                           _statusbuf	res	1
                                           
                                           ;--------------------------------------------------------
                                           ; absolute symbol definitions
                                           ;--------------------------------------------------------
                                           ;--------------------------------------------------------
                                           ; compiler-defined variables
                                           ;--------------------------------------------------------
                                           UDL_MC32P7351_0	udata
                                           r0x103D	res	1
                                           r0x103C	res	1
                                           r0x103E	res	1
                                           r0x103F	res	1
                                           r0x1040	res	1
                                           r0x1041	res	1
                                           r0x1042	res	1
                                           r0x1043	res	1
                                           r0x1044	res	1
                                           r0x1045	res	1
                                           r0x1046	res	1
                                           r0x1048	res	1
                                           r0x1047	res	1
                                           r0x1049	res	1
                                           r0x104A	res	1
                                           r0x104B	res	1
                                           r0x104C	res	1
                                           r0x104E	res	1
                                           r0x104D	res	1
                                           r0x104F	res	1
                                           r0x1050	res	1
                                           r0x1051	res	1
                                           r0x1052	res	1
                                           r0x1053	res	1
                                           r0x1054	res	1
                                           r0x1055	res	1
                                           r0x1056	res	1
                                           _key_scan_cur_key_id_65536_41	res	1
                                           _key_scan_filter_cnt_65536_41	res	1
                                           _key_scan_filter_key_id_65536_41	res	1
                                           _key_scan_press_cnt_65536_41	res	1
                                           _key_scan_flag_is_key_mode_hold_65536_41	res	1
                                           _key_scan_last_key_id_65536_41	res	1
                                           _adc_scan_handle_cnt_65536_93	res	1
                                           _adc_scan_handle_need_charge_cnt_65536_93	res	1
                                           _int_isr_key_scan_cnt_196608_204	res	1
                                           ;--------------------------------------------------------
                                           ; initialized data
                                           ;--------------------------------------------------------
                                           
                                           ;@Allocation info for local variables in function 'delay_ms'
                                           ;@delay_ms delay_ms                  Allocated to registers ;size:2
                                           ;@delay_ms INDF0bits                 Allocated to registers ;size:1
                                           ;@delay_ms INDF1bits                 Allocated to registers ;size:1
                                           ;@delay_ms INDF2bits                 Allocated to registers ;size:1
                                           ;@delay_ms HIBYTEbits                Allocated to registers ;size:1
                                           ;@delay_ms FSR0bits                  Allocated to registers ;size:1
                                           ;@delay_ms FSR1bits                  Allocated to registers ;size:1
                                           ;@delay_ms PCLbits                   Allocated to registers ;size:1
                                           ;@delay_ms PFLAGbits                 Allocated to registers ;size:1
                                           ;@delay_ms MCRbits                   Allocated to registers ;size:1
                                           ;@delay_ms INDF3bits                 Allocated to registers ;size:1
                                           ;@delay_ms INTEbits                  Allocated to registers ;size:1
                                           ;@delay_ms INTFbits                  Allocated to registers ;size:1
                                           ;@delay_ms DRVCRbits                 Allocated to registers ;size:1
                                           ;@delay_ms PFRCCRbits                Allocated to registers ;size:1
                                           ;@delay_ms P1KBCRbits                Allocated to registers ;size:1
                                           ;@delay_ms PFRCCALbits               Allocated to registers ;size:1
                                           ;@delay_ms IOP0bits                  Allocated to registers ;size:1
                                           ;@delay_ms OEP0bits                  Allocated to registers ;size:1
                                           ;@delay_ms PUP0bits                  Allocated to registers ;size:1
                                           ;@delay_ms PDP0bits                  Allocated to registers ;size:1
                                           ;@delay_ms IOP1bits                  Allocated to registers ;size:1
                                           ;@delay_ms OEP1bits                  Allocated to registers ;size:1
                                           ;@delay_ms PUP1bits                  Allocated to registers ;size:1
                                           ;@delay_ms PDP1bits                  Allocated to registers ;size:1
                                           ;@delay_ms T0CRbits                  Allocated to registers ;size:1
                                           ;@delay_ms T0CNTbits                 Allocated to registers ;size:1
                                           ;@delay_ms T0LOADbits                Allocated to registers ;size:1
                                           ;@delay_ms T0DATAbits                Allocated to registers ;size:1
                                           ;@delay_ms T1CRbits                  Allocated to registers ;size:1
                                           ;@delay_ms T1CNTbits                 Allocated to registers ;size:1
                                           ;@delay_ms T1LOADbits                Allocated to registers ;size:1
                                           ;@delay_ms T1DATAbits                Allocated to registers ;size:1
                                           ;@delay_ms T2CRbits                  Allocated to registers ;size:1
                                           ;@delay_ms T2CNTbits                 Allocated to registers ;size:1
                                           ;@delay_ms T2LOADbits                Allocated to registers ;size:1
                                           ;@delay_ms T2DATAbits                Allocated to registers ;size:1
                                           ;@delay_ms T3CRbits                  Allocated to registers ;size:1
                                           ;@delay_ms T3CNTbits                 Allocated to registers ;size:1
                                           ;@delay_ms T3LOADbits                Allocated to registers ;size:1
                                           ;@delay_ms PWM0DRbits                Allocated to registers ;size:1
                                           ;@delay_ms PWM1DRbits                Allocated to registers ;size:1
                                           ;@delay_ms PWM2DRbits                Allocated to registers ;size:1
                                           ;@delay_ms PWMCR0bits                Allocated to registers ;size:1
                                           ;@delay_ms PWMCR1bits                Allocated to registers ;size:1
                                           ;@delay_ms OSCMRbits                 Allocated to registers ;size:1
                                           ;@delay_ms LVDCRbits                 Allocated to registers ;size:1
                                           ;@delay_ms ADCR0bits                 Allocated to registers ;size:1
                                           ;@delay_ms ADCR1bits                 Allocated to registers ;size:1
                                           ;@delay_ms ADCR2bits                 Allocated to registers ;size:1
                                           ;@delay_ms OSADJCRbits               Allocated to registers ;size:1
                                           ;@delay_ms ADRHbits                  Allocated to registers ;size:1
                                           ;@delay_ms ADRLbits                  Allocated to registers ;size:1
                                           ;@delay_ms ADIOS0bits                Allocated to registers ;size:1
                                           ;@delay_ms ADIOS1bits                Allocated to registers ;size:1
                                           ;@delay_ms PMODbits                  Allocated to registers ;size:1
                                           ;@delay_ms PWMCR3bits                Allocated to registers ;size:1
                                           ;@delay_ms PWMCR2bits                Allocated to registers ;size:1
                                           ;@delay_ms PFRCAUXbits               Allocated to registers ;size:1
                                           ;@delay_ms HIRCCALbits               Allocated to registers ;size:1
                                           ;@delay_ms flag1                     Allocated to registers ;size:1
                                           ;@delay_ms flag2                     Allocated to registers ;size:1
                                           ;@delay_ms key_event                 Allocated to registers ;size:1
                                           ;@delay_ms mode_flag                 Allocated to registers ;size:1
                                           ;@delay_ms key_press_flag            Allocated to registers ;size:1
                                           ;@delay_ms i                         Allocated to registers ;size:1
                                           ;@delay_ms adc_val                   Allocated to registers ;size:2
                                           ;@delay_ms turn_dir_ms_cnt           Allocated to registers ;size:4
                                           ;@delay_ms shut_down_ms_cnt          Allocated to registers ;size:4
                                           ;@delay_ms adc_bat_val               Allocated to registers ;size:4
                                           ;@delay_ms adc_charging_val          Allocated to registers ;size:2
                                           ;@delay_ms max_pwm_val               Allocated to registers ;size:4
                                           ;@delay_ms last_pwm_val              Allocated to registers ;size:2
                                           ;@delay_ms tmp_val                   Allocated to registers ;size:2
                                           ;@delay_ms tmp_val_l                 Allocated to registers ;size:16
                                           ;@delay_ms tmp_val_cnt               Allocated to registers ;size:1
                                           ;@delay_ms flag_bat_is_empty         Allocated to registers ;size:1
                                           ;@delay_ms tmp_bat_val               Allocated to registers ;size:2
                                           ;@delay_ms over_charging_cnt         Allocated to registers ;size:1
                                           ;@delay_ms full_charge_cnt           Allocated to registers ;size:1
                                           ;@delay_ms abuf                      Allocated to registers ;size:1
                                           ;@delay_ms statusbuf                 Allocated to registers ;size:1
                                           ;@delay_ms xms                       Allocated to registers ;size:2
                                           ;@delay_ms i                         Allocated to registers r0x103E r0x103F ;size:2
                                           ;@delay_ms INDF0                     Allocated to registers ;size:1
                                           ;@delay_ms INDF1                     Allocated to registers ;size:1
                                           ;@delay_ms INDF2                     Allocated to registers ;size:1
                                           ;@delay_ms HIBYTE                    Allocated to registers ;size:1
                                           ;@delay_ms FSR0                      Allocated to registers ;size:1
                                           ;@delay_ms FSR1                      Allocated to registers ;size:1
                                           ;@delay_ms PCL                       Allocated to registers ;size:1
                                           ;@delay_ms PFLAG                     Allocated to registers ;size:1
                                           ;@delay_ms MCR                       Allocated to registers ;size:1
                                           ;@delay_ms INDF3                     Allocated to registers ;size:1
                                           ;@delay_ms INTE                      Allocated to registers ;size:1
                                           ;@delay_ms INTF                      Allocated to registers ;size:1
                                           ;@delay_ms DRVCR                     Allocated to registers ;size:1
                                           ;@delay_ms PFRCCR                    Allocated to registers ;size:1
                                           ;@delay_ms P1KBCR                    Allocated to registers ;size:1
                                           ;@delay_ms PFRCCAL                   Allocated to registers ;size:1
                                           ;@delay_ms IOP0                      Allocated to registers ;size:1
                                           ;@delay_ms OEP0                      Allocated to registers ;size:1
                                           ;@delay_ms PUP0                      Allocated to registers ;size:1
                                           ;@delay_ms PDP0                      Allocated to registers ;size:1
                                           ;@delay_ms IOP1                      Allocated to registers ;size:1
                                           ;@delay_ms OEP1                      Allocated to registers ;size:1
                                           ;@delay_ms PUP1                      Allocated to registers ;size:1
                                           ;@delay_ms PDP1                      Allocated to registers ;size:1
                                           ;@delay_ms T0CR                      Allocated to registers ;size:1
                                           ;@delay_ms T0CNT                     Allocated to registers ;size:1
                                           ;@delay_ms T0LOAD                    Allocated to registers ;size:1
                                           ;@delay_ms T0DATA                    Allocated to registers ;size:1
                                           ;@delay_ms T1CR                      Allocated to registers ;size:1
                                           ;@delay_ms T1CNT                     Allocated to registers ;size:1
                                           ;@delay_ms T1LOAD                    Allocated to registers ;size:1
                                           ;@delay_ms T1DATA                    Allocated to registers ;size:1
                                           ;@delay_ms T2CR                      Allocated to registers ;size:1
                                           ;@delay_ms T2CNT                     Allocated to registers ;size:1
                                           ;@delay_ms T2LOAD                    Allocated to registers ;size:1
                                           ;@delay_ms T2DATA                    Allocated to registers ;size:1
                                           ;@delay_ms T3CR                      Allocated to registers ;size:1
                                           ;@delay_ms T3CNT                     Allocated to registers ;size:1
                                           ;@delay_ms T3LOAD                    Allocated to registers ;size:1
                                           ;@delay_ms PWM0DR                    Allocated to registers ;size:1
                                           ;@delay_ms PWM1DR                    Allocated to registers ;size:1
                                           ;@delay_ms PWM2DR                    Allocated to registers ;size:1
                                           ;@delay_ms PWMCR0                    Allocated to registers ;size:1
                                           ;@delay_ms PWMCR1                    Allocated to registers ;size:1
                                           ;@delay_ms OSCMR                     Allocated to registers ;size:1
                                           ;@delay_ms LVDCR                     Allocated to registers ;size:1
                                           ;@delay_ms ADCR0                     Allocated to registers ;size:1
                                           ;@delay_ms ADCR1                     Allocated to registers ;size:1
                                           ;@delay_ms ADCR2                     Allocated to registers ;size:1
                                           ;@delay_ms OSADJCR                   Allocated to registers ;size:1
                                           ;@delay_ms ADRH                      Allocated to registers ;size:1
                                           ;@delay_ms ADRL                      Allocated to registers ;size:1
                                           ;@delay_ms ADIOS0                    Allocated to registers ;size:1
                                           ;@delay_ms ADIOS1                    Allocated to registers ;size:1
                                           ;@delay_ms PMOD                      Allocated to registers ;size:1
                                           ;@delay_ms PWMCR3                    Allocated to registers ;size:1
                                           ;@delay_ms PWMCR2                    Allocated to registers ;size:1
                                           ;@delay_ms PFRCAUX                   Allocated to registers ;size:1
                                           ;@delay_ms HIRCCAL                   Allocated to registers ;size:1
                                           ;@end Allocation info for local variables in function 'delay_ms';
                                           ;@Allocation info for local variables in function 'CLR_RAM'
                                           ;@end Allocation info for local variables in function 'CLR_RAM';
                                           ;@Allocation info for local variables in function 'IO_Init'
                                           ;@end Allocation info for local variables in function 'IO_Init';
                                           ;@Allocation info for local variables in function 'adc_config'
                                           ;@end Allocation info for local variables in function 'adc_config';
                                           ;@Allocation info for local variables in function 'timer0_pwm_config'
                                           ;@end Allocation info for local variables in function 'timer0_pwm_config';
                                           ;@Allocation info for local variables in function 'timer1_pwm_config'
                                           ;@end Allocation info for local variables in function 'timer1_pwm_config';
                                           ;@Allocation info for local variables in function 'timer2_pwm_config'
                                           ;@end Allocation info for local variables in function 'timer2_pwm_config';
                                           ;@Allocation info for local variables in function 'timer3_config'
                                           ;@end Allocation info for local variables in function 'timer3_config';
                                           ;@Allocation info for local variables in function 'key_config'
                                           ;@end Allocation info for local variables in function 'key_config';
                                           ;@Allocation info for local variables in function 'adc_sel_pin'
                                           ;@adc_sel_pin adc_pin                   Allocated to registers r0x1042 ;size:1
                                           ;@end Allocation info for local variables in function 'adc_sel_pin';
                                           ;@Allocation info for local variables in function 'adc_get_val'
                                           ;@adc_get_val i                         Allocated to registers r0x1044 ;size:1
                                           ;@adc_get_val g_temp_value              Allocated to registers r0x1045 r0x1046 ;size:2
                                           ;@adc_get_val g_tmpbuff                 Allocated to registers r0x1040 r0x1041 r0x1047 r0x1049 ;size:4
                                           ;@adc_get_val g_adcmax                  Allocated to registers r0x1040 r0x1041 ;size:2
                                           ;@adc_get_val g_adcmin                  Allocated to registers r0x1042 r0x1043 ;size:2
                                           ;@end Allocation info for local variables in function 'adc_get_val';
                                           ;@Allocation info for local variables in function 'adc_get_val_once'
                                           ;@adc_get_val_once g_temp_value              Allocated to registers r0x103F r0x103E ;size:2
                                           ;@end Allocation info for local variables in function 'adc_get_val_once';
                                           ;@Allocation info for local variables in function 'Sys_Init'
                                           ;@end Allocation info for local variables in function 'Sys_Init';
                                           ;@Allocation info for local variables in function 'key_scan'
                                           ;@key_scan last_key_id               Allocated to registers ;size:1
                                           ;@key_scan press_cnt                 Allocated to registers ;size:1
                                           ;@key_scan filter_cnt                Allocated to registers ;size:1
                                           ;@key_scan filter_key_id             Allocated to registers ;size:1
                                           ;@key_scan cur_key_id                Allocated to registers ;size:1
                                           ;@key_scan flag_is_key_mode_hold     Allocated to registers ;size:1
                                           ;@end Allocation info for local variables in function 'key_scan';
                                           ;@Allocation info for local variables in function 'key_scan'
                                           ;@key_scan last_key_id               Allocated to registers ;size:1
                                           ;@key_scan press_cnt                 Allocated to registers ;size:1
                                           ;@key_scan filter_cnt                Allocated to registers ;size:1
                                           ;@key_scan filter_key_id             Allocated to registers ;size:1
                                           ;@key_scan cur_key_id                Allocated to registers ;size:1
                                           ;@key_scan flag_is_key_mode_hold     Allocated to registers ;size:1
                                           ;@end Allocation info for local variables in function 'key_scan';
                                           ;@Allocation info for local variables in function 'key_event_handle'
                                           ;@end Allocation info for local variables in function 'key_event_handle';
                                           ;@Allocation info for local variables in function 'adc_scan_handle'
                                           ;@adc_scan_handle cnt                       Allocated to registers ;size:1
                                           ;@adc_scan_handle need_charge_cnt           Allocated to registers ;size:1
                                           ;@end Allocation info for local variables in function 'adc_scan_handle';
                                           ;@Allocation info for local variables in function 'turn_dir_scan_handle'
                                           ;@end Allocation info for local variables in function 'turn_dir_scan_handle';
                                           ;@Allocation info for local variables in function 'shutdown_scan_handle'
                                           ;@end Allocation info for local variables in function 'shutdown_scan_handle';
                                           ;@Allocation info for local variables in function 'low_power_scan_handle'
                                           ;@end Allocation info for local variables in function 'low_power_scan_handle';
                                           ;@Allocation info for local variables in function 'main'
                                           ;@end Allocation info for local variables in function 'main';
                                           ;@Allocation info for local variables in function 'int_isr'
                                           ;@int_isr key_scan_cnt              Allocated to registers ;size:1
                                           ;@end Allocation info for local variables in function 'int_isr';
                                           ;@Allocation info for local variables in function 'int_isr'
                                           ;@int_isr key_scan_cnt              Allocated to registers ;size:1
                                           ;@end Allocation info for local variables in function 'int_isr';
                                           
                                           ;--------------------------------------------------------
                                           ; overlayable items in internal ram 
                                           ;--------------------------------------------------------
                                           ;	udata_ovr
                                           ;--------------------------------------------------------
                                           ; reset vector 
                                           ;--------------------------------------------------------
                                           STARTUP	code 0x0000
                                           	goto	_main
                                           ;--------------------------------------------------------
                                           ; interrupt and initialization code
                                           ;--------------------------------------------------------
                                           c_interrupt	code	0x8
                                           __sdcc_interrupt
                                           ;***
                                           ;  pBlock Stats: dbName = I
                                           ;***
                                           ;entry:  _int_isr	;Function start
                                           ; 0 exit points
                                           ;functions called:
                                           ;   _key_scan
                                           ;   _key_scan
                                           ;2 compiler assigned registers:
                                           ;   r0x1055
                                           ;   r0x1056
                                           ;; Starting pCode block
                                           _int_isr	;Function start
                                           ; 0 exit points
                                           ;	.line	1349; "MC32P7351.c"	__endasm;
                                           	;
                                           	movra	_abuf;
                                           	swapar	_PFLAG;
                                           	movra	_statusbuf;
                                           	
                                           ;	.line	1356; "MC32P7351.c"	if (T3IF & T3IE)
                                           	CLRR	r0x1055
                                           	JBCLR	_INTFbits,7
                                           	INCR	r0x1055
                                           	CLRR	r0x1056
                                           	JBCLR	_INTEbits,7
                                           	INCR	r0x1056
                                           	MOVAR	r0x1056
                                           	ANDRA	r0x1055
                                           	MOVAI	0x00
                                           	ORAR	r0x1055
                                           	JBCLR	PFLAG,2
                                           	GOTO	_00921_DS_
                                           ;	.line	1361; "MC32P7351.c"	key_scan_cnt++;
                                           	INCR	_int_isr_key_scan_cnt_196608_204
                                           ;;unsigned compare: left < lit(0xA=10), size=1
                                           ;	.line	1362; "MC32P7351.c"	if (key_scan_cnt >= 10)
                                           	MOVAI	0x0a
                                           	RSUBAR	_int_isr_key_scan_cnt_196608_204
                                           	JBSET	PFLAG,0
                                           	GOTO	_00917_DS_
                                           ;;genSkipc:3291: created from rifx:013B5EFC
                                           ;	.line	1364; "MC32P7351.c"	key_scan_cnt = 0;
                                           	CLRR	_int_isr_key_scan_cnt_196608_204
                                           ;	.line	1365; "MC32P7351.c"	key_scan();
                                           	CALL	_key_scan
                                           _00917_DS_
                                           ;	.line	1369; "MC32P7351.c"	if (FLAG_IS_DEVICE_OPEN)
                                           	JBSET	_flag1,0
                                           	GOTO	_00919_DS_
                                           ;	.line	1371; "MC32P7351.c"	turn_dir_ms_cnt++;  // 会在 turn_dir_scan_handle() 内处理并清零
                                           	INCR	_turn_dir_ms_cnt
                                           	JBCLR	PFLAG,2
                                           	INCR	(_turn_dir_ms_cnt + 1)
                                           	JBCLR	PFLAG,2
                                           	INCR	(_turn_dir_ms_cnt + 2)
                                           	JBCLR	PFLAG,2
                                           	INCR	(_turn_dir_ms_cnt + 3)
                                           ;	.line	1372; "MC32P7351.c"	shut_down_ms_cnt++; // 会在 shutdown_scan_handle() 内处理并清零
                                           	INCR	_shut_down_ms_cnt
                                           	JBCLR	PFLAG,2
                                           	INCR	(_shut_down_ms_cnt + 1)
                                           	JBCLR	PFLAG,2
                                           	INCR	(_shut_down_ms_cnt + 2)
                                           	JBCLR	PFLAG,2
                                           	INCR	(_shut_down_ms_cnt + 3)
                                           _00919_DS_
                                           ;	.line	1380; "MC32P7351.c"	T3IF = 0;
                                           	BCLR	_INTFbits,7
                                           _00921_DS_
                                           ;	.line	1388; "MC32P7351.c"	__endasm;
                                           	;
                                           	swapar	_statusbuf;
                                           	movra	_PFLAG;
                                           	swapr	_abuf;
                                           	swapar	_abuf;
                                           	
                                           END_OF_INTERRUPT
                                           ;	.line	1389; "MC32P7351.c"	}
                                           	RETIE	
                                           
                                           ;--------------------------------------------------------
                                           ; code
                                           ;--------------------------------------------------------
                                           code_MC32P7351	code
                                           ;***
                                           ;  pBlock Stats: dbName = M
                                           ;***
                                           ;entry:  _main	;Function start
                                           ; 2 exit points
                                           ;has an exit
                                           ;functions called:
                                           ;   _Sys_Init
                                           ;   _delay_ms
                                           ;   _adc_sel_pin
                                           ;   _adc_get_val
                                           ;   _key_event_handle
                                           ;   _adc_scan_handle
                                           ;   _turn_dir_scan_handle
                                           ;   _shutdown_scan_handle
                                           ;   __mullong
                                           ;   __divulong
                                           ;   __mullong
                                           ;   __mullong
                                           ;   __divulong
                                           ;   __divulong
                                           ;   _delay_ms
                                           ;   _delay_ms
                                           ;   _key_event_handle
                                           ;   _delay_ms
                                           ;   _key_event_handle
                                           ;   _delay_ms
                                           ;   _low_power_scan_handle
                                           ;   _Sys_Init
                                           ;   _delay_ms
                                           ;   _adc_sel_pin
                                           ;   _adc_get_val
                                           ;   _key_event_handle
                                           ;   _adc_scan_handle
                                           ;   _turn_dir_scan_handle
                                           ;   _shutdown_scan_handle
                                           ;   __mullong
                                           ;   __divulong
                                           ;   __mullong
                                           ;   __mullong
                                           ;   __divulong
                                           ;   __divulong
                                           ;   _delay_ms
                                           ;   _delay_ms
                                           ;   _key_event_handle
                                           ;   _delay_ms
                                           ;   _key_event_handle
                                           ;   _delay_ms
                                           ;   _low_power_scan_handle
                                           ;17 compiler assigned registers:
                                           ;   STK00
                                           ;   r0x104B
                                           ;   r0x104C
                                           ;   STK06
                                           ;   STK05
                                           ;   STK04
                                           ;   STK03
                                           ;   STK02
                                           ;   STK01
                                           ;   r0x104D
                                           ;   r0x104E
                                           ;   r0x104F
                                           ;   r0x1050
                                           ;   r0x1051
                                           ;   r0x1052
                                           ;   r0x1053
                                           ;   r0x1054
                                           ;; Starting pCode block
                                           _main	;Function start
                                           ; 2 exit points
                                           ;	.line	1077; "MC32P7351.c"	Sys_Init();
                                           	CALL	_Sys_Init
                                           ;	.line	1079; "MC32P7351.c"	delay_ms(100); // 等待系统稳定
                                           	MOVAI	0x64
                                           	MOVRA	STK00
                                           	MOVAI	0x00
                                           	CALL	_delay_ms
                                           ;	.line	1084; "MC32P7351.c"	PWM2EC = 1; // 打开控制升压电路的pwm
                                           	BSET	_T2CRbits,6
                                           ;	.line	1085; "MC32P7351.c"	T2DATA = 100;
                                           	MOVAI	0x64
                                           	MOVRA	_T2DATA
                                           ;	.line	1086; "MC32P7351.c"	adc_sel_pin(ADC_PIN_P02_AN1); // 切换到检测电池降压后的电压的检测引脚
                                           	MOVAI	0x02
                                           	CALL	_adc_sel_pin
                                           ;	.line	1087; "MC32P7351.c"	for (i = 0; i < 10; i++)      // 每55ms进入一次，循环内每次间隔约4.8ms
                                           	CLRR	_i
                                           ;;unsigned compare: left < lit(0xA=10), size=1
                                           _00797_DS_
                                           	MOVAI	0x0a
                                           	RSUBAR	_i
                                           	JBCLR	PFLAG,0
                                           	GOTO	_00744_DS_
                                           ;;genSkipc:3291: created from rifx:013B5EFC
                                           ;	.line	1089; "MC32P7351.c"	adc_val = adc_get_val();
                                           	CALL	_adc_get_val
                                           	MOVRA	(_adc_val + 1)
                                           	MOVAR	STK00
                                           	MOVRA	_adc_val
                                           ;;unsigned compare: left < lit(0xFA0=4000), size=2
                                           ;	.line	1090; "MC32P7351.c"	if (adc_val >= ADCDETECT_BAT_FULL + ADCDETECT_BAT_NULL_EX)
                                           	MOVAI	0x0f
                                           	RSUBAR	(_adc_val + 1)
                                           	JBSET	PFLAG,2
                                           	GOTO	_00903_DS_
                                           	MOVAI	0xa0
                                           	RSUBAR	_adc_val
                                           _00903_DS_
                                           	JBSET	PFLAG,0
                                           	GOTO	_00798_DS_
                                           ;;genSkipc:3291: created from rifx:013B5EFC
                                           ;	.line	1092; "MC32P7351.c"	flag_bat_is_empty = 1;
                                           	MOVAI	0x01
                                           	MOVRA	_flag_bat_is_empty
                                           ;	.line	1093; "MC32P7351.c"	FLAG_DURING_CHARGING_BAT_IS_NULL = 1; // 标志位置一，在主循环让绿灯快闪
                                           	BSET	_flag1,7
                                           _00798_DS_
                                           ;	.line	1087; "MC32P7351.c"	for (i = 0; i < 10; i++)      // 每55ms进入一次，循环内每次间隔约4.8ms
                                           	INCR	_i
                                           	GOTO	_00797_DS_
                                           _00744_DS_
                                           ;	.line	1096; "MC32P7351.c"	PWM2EC = 0; // 关闭控制升压电路的pwm
                                           	BCLR	_T2CRbits,6
                                           ;	.line	1097; "MC32P7351.c"	T2DATA = 0;
                                           	CLRR	_T2DATA
                                           _00794_DS_
                                           ;	.line	1120; "MC32P7351.c"	key_event_handle(); // 按键事件处理函数，扫描在中断服务函数内执行
                                           	CALL	_key_event_handle
                                           ;	.line	1121; "MC32P7351.c"	adc_scan_handle();  // 充电扫描和处理函数(约占用89ms)
                                           	CALL	_adc_scan_handle
                                           ;	.line	1123; "MC32P7351.c"	turn_dir_scan_handle();
                                           	CALL	_turn_dir_scan_handle
                                           ;	.line	1124; "MC32P7351.c"	shutdown_scan_handle(); // 自动关机检测和处理函数
                                           	CALL	_shutdown_scan_handle
                                           ;	.line	1128; "MC32P7351.c"	if (FLAG_IS_IN_CHARGING)
                                           	JBSET	_flag1,2
                                           	GOTO	_00774_DS_
                                           ;	.line	1130; "MC32P7351.c"	last_pwm_val = T2DATA;      // 读出上一次PWM占空比对应的值
                                           	MOVAR	_T2DATA
                                           	MOVRA	_last_pwm_val
                                           	CLRR	(_last_pwm_val + 1)
                                           ;	.line	1131; "MC32P7351.c"	max_pwm_val = (T2LOAD + 1); // 读出PWM占空比设定的、最大的值
                                           	MOVAR	_T2LOAD
                                           	MOVRA	r0x104B
                                           	CLRR	r0x104C
                                           	MOVAI	0x01
                                           	ADDAR	r0x104B
                                           	MOVRA	_max_pwm_val
                                           	CLRR	(_max_pwm_val + 1)
                                           	RLR	(_max_pwm_val + 1)
                                           	MOVAI	0x00
                                           	ADDRA	(_max_pwm_val + 1)
                                           	CLRR	(_max_pwm_val + 2)
                                           	CLRR	(_max_pwm_val + 3)
                                           ;;swapping arguments (AOP_TYPEs 1/3)
                                           ;;unsigned compare: left >= lit(0xB16=2838), size=4
                                           ;	.line	1155; "MC32P7351.c"	if (adc_bat_val <= 2837) // 如果检测电池电压小于 6.5V
                                           	MOVAI	0x00
                                           	RSUBAR	(_adc_bat_val + 3)
                                           	JBSET	PFLAG,2
                                           	GOTO	_00904_DS_
                                           	MOVAI	0x00
                                           	RSUBAR	(_adc_bat_val + 2)
                                           	JBSET	PFLAG,2
                                           	GOTO	_00904_DS_
                                           	MOVAI	0x0b
                                           	RSUBAR	(_adc_bat_val + 1)
                                           	JBSET	PFLAG,2
                                           	GOTO	_00904_DS_
                                           	MOVAI	0x16
                                           	RSUBAR	_adc_bat_val
                                           _00904_DS_
                                           	JBCLR	PFLAG,0
                                           	GOTO	_00755_DS_
                                           ;;genSkipc:3291: created from rifx:013B5EFC
                                           ;	.line	1157; "MC32P7351.c"	tmp_bat_val = (adc_bat_val + 37);
                                           	MOVAR	_adc_bat_val
                                           	MOVRA	r0x104B
                                           	MOVAR	(_adc_bat_val + 1)
                                           	MOVRA	r0x104C
                                           	MOVAI	0x25
                                           	ADDAR	r0x104B
                                           	MOVRA	_tmp_bat_val
                                           	CLRR	(_tmp_bat_val + 1)
                                           	RLR	(_tmp_bat_val + 1)
                                           	MOVAR	r0x104C
                                           	ADDRA	(_tmp_bat_val + 1)
                                           	GOTO	_00756_DS_
                                           ;;swapping arguments (AOP_TYPEs 1/3)
                                           ;;unsigned compare: left >= lit(0xBF1=3057), size=4
                                           _00755_DS_
                                           ;	.line	1159; "MC32P7351.c"	else if (adc_bat_val <= 3056) // 如果检测电池电压小于 7.0V
                                           	MOVAI	0x00
                                           	RSUBAR	(_adc_bat_val + 3)
                                           	JBSET	PFLAG,2
                                           	GOTO	_00905_DS_
                                           	MOVAI	0x00
                                           	RSUBAR	(_adc_bat_val + 2)
                                           	JBSET	PFLAG,2
                                           	GOTO	_00905_DS_
                                           	MOVAI	0x0b
                                           	RSUBAR	(_adc_bat_val + 1)
                                           	JBSET	PFLAG,2
                                           	GOTO	_00905_DS_
                                           	MOVAI	0xf1
                                           	RSUBAR	_adc_bat_val
                                           _00905_DS_
                                           	JBCLR	PFLAG,0
                                           	GOTO	_00752_DS_
                                           ;;genSkipc:3291: created from rifx:013B5EFC
                                           ;	.line	1162; "MC32P7351.c"	tmp_bat_val = (adc_bat_val + 27);
                                           	MOVAR	_adc_bat_val
                                           	MOVRA	r0x104B
                                           	MOVAR	(_adc_bat_val + 1)
                                           	MOVRA	r0x104C
                                           	MOVAI	0x1b
                                           	ADDAR	r0x104B
                                           	MOVRA	_tmp_bat_val
                                           	CLRR	(_tmp_bat_val + 1)
                                           	RLR	(_tmp_bat_val + 1)
                                           	MOVAR	r0x104C
                                           	ADDRA	(_tmp_bat_val + 1)
                                           	GOTO	_00756_DS_
                                           ;;swapping arguments (AOP_TYPEs 1/3)
                                           ;;unsigned compare: left >= lit(0xC75=3189), size=4
                                           _00752_DS_
                                           ;	.line	1164; "MC32P7351.c"	else if (adc_bat_val <= 3188) // 如果检测电池电压小于 7.3V
                                           	MOVAI	0x00
                                           	RSUBAR	(_adc_bat_val + 3)
                                           	JBSET	PFLAG,2
                                           	GOTO	_00906_DS_
                                           	MOVAI	0x00
                                           	RSUBAR	(_adc_bat_val + 2)
                                           	JBSET	PFLAG,2
                                           	GOTO	_00906_DS_
                                           	MOVAI	0x0c
                                           	RSUBAR	(_adc_bat_val + 1)
                                           	JBSET	PFLAG,2
                                           	GOTO	_00906_DS_
                                           	MOVAI	0x75
                                           	RSUBAR	_adc_bat_val
                                           _00906_DS_
                                           	JBCLR	PFLAG,0
                                           	GOTO	_00749_DS_
                                           ;;genSkipc:3291: created from rifx:013B5EFC
                                           ;	.line	1167; "MC32P7351.c"	tmp_bat_val = (adc_bat_val + 16);
                                           	MOVAR	_adc_bat_val
                                           	MOVRA	r0x104B
                                           	MOVAR	(_adc_bat_val + 1)
                                           	MOVRA	r0x104C
                                           	MOVAI	0x10
                                           	ADDAR	r0x104B
                                           	MOVRA	_tmp_bat_val
                                           	CLRR	(_tmp_bat_val + 1)
                                           	RLR	(_tmp_bat_val + 1)
                                           	MOVAR	r0x104C
                                           	ADDRA	(_tmp_bat_val + 1)
                                           	GOTO	_00756_DS_
                                           ;;swapping arguments (AOP_TYPEs 1/3)
                                           ;;unsigned compare: left >= lit(0xCFF=3327), size=4
                                           _00749_DS_
                                           ;	.line	1169; "MC32P7351.c"	else if (adc_bat_val <= 3326) // 如果检测电池电压小于 7.62V
                                           	MOVAI	0x00
                                           	RSUBAR	(_adc_bat_val + 3)
                                           	JBSET	PFLAG,2
                                           	GOTO	_00907_DS_
                                           	MOVAI	0x00
                                           	RSUBAR	(_adc_bat_val + 2)
                                           	JBSET	PFLAG,2
                                           	GOTO	_00907_DS_
                                           	MOVAI	0x0c
                                           	RSUBAR	(_adc_bat_val + 1)
                                           	JBSET	PFLAG,2
                                           	GOTO	_00907_DS_
                                           	MOVAI	0xff
                                           	RSUBAR	_adc_bat_val
                                           _00907_DS_
                                           	JBCLR	PFLAG,0
                                           	GOTO	_00746_DS_
                                           ;;genSkipc:3291: created from rifx:013B5EFC
                                           ;	.line	1172; "MC32P7351.c"	tmp_bat_val = (adc_bat_val + 0);
                                           	MOVAR	_adc_bat_val
                                           	MOVRA	_tmp_bat_val
                                           	MOVAR	(_adc_bat_val + 1)
                                           	MOVRA	(_tmp_bat_val + 1)
                                           	GOTO	_00756_DS_
                                           _00746_DS_
                                           ;	.line	1185; "MC32P7351.c"	tmp_bat_val = (u32)adc_bat_val - ((u32)adc_bat_val * 157 / 1000 - 522);
                                           	MOVAR	_adc_bat_val
                                           	MOVRA	STK06
                                           	MOVAR	(_adc_bat_val + 1)
                                           	MOVRA	STK05
                                           	MOVAR	(_adc_bat_val + 2)
                                           	MOVRA	STK04
                                           	MOVAR	(_adc_bat_val + 3)
                                           	MOVRA	STK03
                                           	MOVAI	0x9d
                                           	MOVRA	STK02
                                           	MOVAI	0x00
                                           	MOVRA	STK01
                                           	MOVAI	0x00
                                           	MOVRA	STK00
                                           	MOVAI	0x00
                                           	CALL	__mullong
                                           	MOVRA	r0x104D
                                           	MOVAR	STK00
                                           	MOVRA	r0x104E
                                           	MOVAR	STK01
                                           	MOVRA	r0x104C
                                           	MOVAR	STK02
                                           	MOVRA	r0x104B
                                           	MOVAI	0xe8
                                           	MOVRA	STK06
                                           	MOVAI	0x03
                                           	MOVRA	STK05
                                           	MOVAI	0x00
                                           	MOVRA	STK04
                                           	MOVAI	0x00
                                           	MOVRA	STK03
                                           	MOVAR	r0x104B
                                           	MOVRA	STK02
                                           	MOVAR	r0x104C
                                           	MOVRA	STK01
                                           	MOVAR	r0x104E
                                           	MOVRA	STK00
                                           	MOVAR	r0x104D
                                           	CALL	__divulong
                                           	MOVRA	r0x104D
                                           	MOVAR	STK00
                                           	MOVRA	r0x104E
                                           	MOVAR	STK01
                                           	MOVRA	r0x1050
                                           	MOVRA	r0x104C
                                           	MOVAR	STK02
                                           	MOVRA	r0x104F
                                           	MOVRA	r0x104B
                                           ;;124	MOVAR	r0x104B
                                           ;;125	MOVAR	r0x104C
                                           	MOVAI	0xf6
                                           	ADDAR	r0x104F
                                           	MOVRA	r0x104B
                                           	MOVAI	0xfd
                                           	MOVRA	r0x104C
                                           	MOVAR	r0x1050
                                           	JBCLR	PFLAG,0
                                           	JZAR	r0x1050
                                           	ADDRA	r0x104C
                                           	MOVAR	_adc_bat_val
                                           	MOVRA	r0x104F
                                           	MOVAR	(_adc_bat_val + 1)
                                           	MOVRA	r0x1050
                                           	MOVAR	r0x104B
                                           	RSUBAR	r0x104F
                                           	MOVRA	_tmp_bat_val
                                           	MOVAR	r0x104C
                                           	JBSET	PFLAG,0
                                           	INCAR	r0x104C
                                           	RSUBAR	r0x1050
                                           	MOVRA	(_tmp_bat_val + 1)
                                           _00756_DS_
                                           ;	.line	1207; "MC32P7351.c"	tmp_bat_val += 55;
                                           	MOVAI	0x37
                                           	ADDRA	_tmp_bat_val
                                           	JBCLR	PFLAG,0
                                           	INCR	(_tmp_bat_val + 1)
                                           ;	.line	1253; "MC32P7351.c"	tmp_val = max_pwm_val - (adc_charging_val * max_pwm_val * 94 / 147) / tmp_bat_val;
                                           	MOVAR	_adc_charging_val
                                           	MOVRA	r0x104B
                                           	MOVAR	(_adc_charging_val + 1)
                                           	MOVRA	r0x104C
                                           	CLRR	r0x104F
                                           	CLRR	r0x1050
                                           	MOVAR	_max_pwm_val
                                           	MOVRA	STK06
                                           	MOVAR	(_max_pwm_val + 1)
                                           	MOVRA	STK05
                                           	MOVAR	(_max_pwm_val + 2)
                                           	MOVRA	STK04
                                           	MOVAR	(_max_pwm_val + 3)
                                           	MOVRA	STK03
                                           	MOVAR	r0x104B
                                           	MOVRA	STK02
                                           	MOVAR	r0x104C
                                           	MOVRA	STK01
                                           	MOVAI	0x00
                                           	MOVRA	STK00
                                           	MOVAI	0x00
                                           	CALL	__mullong
                                           	MOVRA	r0x1050
                                           	MOVAR	STK00
                                           	MOVRA	r0x104F
                                           	MOVAR	STK01
                                           	MOVRA	r0x104C
                                           	MOVAR	STK02
                                           	MOVRA	r0x104B
                                           	MOVAR	r0x104B
                                           	MOVRA	STK06
                                           	MOVAR	r0x104C
                                           	MOVRA	STK05
                                           	MOVAR	r0x104F
                                           	MOVRA	STK04
                                           	MOVAR	r0x1050
                                           	MOVRA	STK03
                                           	MOVAI	0x5e
                                           	MOVRA	STK02
                                           	MOVAI	0x00
                                           	MOVRA	STK01
                                           	MOVAI	0x00
                                           	MOVRA	STK00
                                           	MOVAI	0x00
                                           	CALL	__mullong
                                           	MOVRA	r0x1050
                                           	MOVAR	STK00
                                           	MOVRA	r0x104F
                                           	MOVAR	STK01
                                           	MOVRA	r0x104C
                                           	MOVAR	STK02
                                           	MOVRA	r0x104B
                                           	MOVAI	0x93
                                           	MOVRA	STK06
                                           	MOVAI	0x00
                                           	MOVRA	STK05
                                           	MOVAI	0x00
                                           	MOVRA	STK04
                                           	MOVAI	0x00
                                           	MOVRA	STK03
                                           	MOVAR	r0x104B
                                           	MOVRA	STK02
                                           	MOVAR	r0x104C
                                           	MOVRA	STK01
                                           	MOVAR	r0x104F
                                           	MOVRA	STK00
                                           	MOVAR	r0x1050
                                           	CALL	__divulong
                                           	MOVRA	r0x1050
                                           	MOVAR	STK00
                                           	MOVRA	r0x104F
                                           	MOVAR	STK01
                                           	MOVRA	r0x104C
                                           	MOVAR	STK02
                                           	MOVRA	r0x104B
                                           	MOVAR	_tmp_bat_val
                                           	MOVRA	r0x1051
                                           	MOVAR	(_tmp_bat_val + 1)
                                           	MOVRA	r0x1052
                                           	CLRR	r0x1053
                                           	CLRR	r0x1054
                                           	MOVAR	r0x1051
                                           	MOVRA	STK06
                                           	MOVAR	r0x1052
                                           	MOVRA	STK05
                                           	MOVAI	0x00
                                           	MOVRA	STK04
                                           	MOVAI	0x00
                                           	MOVRA	STK03
                                           	MOVAR	r0x104B
                                           	MOVRA	STK02
                                           	MOVAR	r0x104C
                                           	MOVRA	STK01
                                           	MOVAR	r0x104F
                                           	MOVRA	STK00
                                           	MOVAR	r0x1050
                                           	CALL	__divulong
                                           	MOVRA	r0x1050
                                           	MOVAR	STK00
                                           	MOVRA	r0x104F
                                           	MOVAR	STK01
                                           	MOVRA	r0x1054
                                           	MOVRA	r0x104C
                                           	MOVAR	STK02
                                           	MOVRA	r0x1053
                                           	MOVRA	r0x104B
                                           	MOVAR	_max_pwm_val
                                           	MOVRA	r0x1051
                                           	MOVAR	(_max_pwm_val + 1)
                                           	MOVRA	r0x1052
                                           ;;121	MOVAR	r0x104B
                                           ;;122	MOVAR	r0x104C
                                           	MOVAR	r0x1053
                                           	RSUBAR	r0x1051
                                           	MOVRA	_tmp_val
                                           	MOVAR	r0x1054
                                           	JBSET	PFLAG,0
                                           	INCAR	r0x1054
                                           	RSUBAR	r0x1052
                                           	MOVRA	(_tmp_val + 1)
                                           ;	.line	1255; "MC32P7351.c"	if (tmp_val >= max_pwm_val)
                                           	MOVAR	_tmp_val
                                           	MOVRA	r0x104B
                                           	MOVAR	(_tmp_val + 1)
                                           	MOVRA	r0x104C
                                           	CLRR	r0x104F
                                           	CLRR	r0x1050
                                           	MOVAR	(_max_pwm_val + 3)
                                           	RSUBAR	r0x1050
                                           	JBSET	PFLAG,2
                                           	GOTO	_00908_DS_
                                           	MOVAR	(_max_pwm_val + 2)
                                           	RSUBAR	r0x104F
                                           	JBSET	PFLAG,2
                                           	GOTO	_00908_DS_
                                           	MOVAR	(_max_pwm_val + 1)
                                           	RSUBAR	r0x104C
                                           	JBSET	PFLAG,2
                                           	GOTO	_00908_DS_
                                           	MOVAR	_max_pwm_val
                                           	RSUBAR	r0x104B
                                           _00908_DS_
                                           	JBSET	PFLAG,0
                                           	GOTO	_00758_DS_
                                           ;;genSkipc:3291: created from rifx:013B5EFC
                                           ;	.line	1258; "MC32P7351.c"	tmp_val = 0;
                                           	CLRR	_tmp_val
                                           	CLRR	(_tmp_val + 1)
                                           _00758_DS_
                                           ;	.line	1262; "MC32P7351.c"	tmp_val_cnt++;
                                           	INCR	_tmp_val_cnt
                                           ;	.line	1263; "MC32P7351.c"	tmp_val_cnt &= 0x07;
                                           	MOVAI	0x07
                                           	ANDRA	_tmp_val_cnt
                                           ;	.line	1264; "MC32P7351.c"	tmp_val_l[tmp_val_cnt] = (tmp_val_l[tmp_val_cnt] + tmp_val) >> 1;
                                           	BCLR	PFLAG,0
                                           	RLAR	_tmp_val_cnt
                                           	MOVRA	r0x104B
                                           	MOVAR	r0x104B
                                           	ADDAI	(_tmp_val_l + 0)
                                           	MOVRA	r0x104B
                                           	MOVAI	high (_tmp_val_l + 0)
                                           	JBCLR	PFLAG,0
                                           	ADDAI	0x01
                                           	MOVRA	r0x104C
                                           	BCLR	PFLAG,0
                                           	RLAR	_tmp_val_cnt
                                           	MOVRA	r0x104F
                                           	MOVAR	r0x104F
                                           	ADDAI	(_tmp_val_l + 0)
                                           	MOVRA	r0x104F
                                           	MOVAI	high (_tmp_val_l + 0)
                                           	JBCLR	PFLAG,0
                                           	ADDAI	0x01
                                           	MOVRA	r0x1050
                                           	MOVAR	r0x104F
                                           	MOVRA	FSR0
                                           	MOVAR	r0x1050
                                           	MOVRA	FSR1
                                           	MOVAR	INDF2
                                           	MOVRA	r0x1051
                                           	INCR	FSR0
                                           	JBCLR	PFLAG,2
                                           	INCR	FSR1
                                           	MOVAR	INDF2
                                           	MOVRA	r0x1050
                                           	MOVRA	r0x1052
                                           	MOVAR	_tmp_val
                                           	ADDAR	r0x1051
                                           	MOVRA	r0x104F
                                           ;;123	MOVAR	r0x1052
                                           	MOVAR	(_tmp_val + 1)
                                           	JBCLR	PFLAG,0
                                           	JZAR	(_tmp_val + 1)
                                           	ADDRA	r0x1050
                                           ;;shiftRight_Left2ResultLit:5339: shCount=1, size=2, sign=0, same=0, offr=0
                                           	BCLR	PFLAG,0
                                           	RRAR	r0x1050
                                           	MOVRA	r0x1052
                                           	RRAR	r0x104F
                                           	MOVRA	r0x1051
                                           	MOVAR	r0x104B
                                           	MOVRA	FSR0
                                           	MOVAR	r0x104C
                                           	MOVRA	FSR1
                                           	MOVAR	r0x1051
                                           	MOVRA	INDF2
                                           	INCR	FSR0
                                           	JBCLR	PFLAG,2
                                           	INCR	FSR1
                                           	MOVAR	r0x1052
                                           	MOVRA	INDF2
                                           ;	.line	1265; "MC32P7351.c"	tmp_val = 0;
                                           	CLRR	_tmp_val
                                           	CLRR	(_tmp_val + 1)
                                           ;	.line	1266; "MC32P7351.c"	for (i = 0; i < 8; i++)
                                           	CLRR	_i
                                           ;;unsigned compare: left < lit(0x8=8), size=1
                                           _00800_DS_
                                           	MOVAI	0x08
                                           	RSUBAR	_i
                                           	JBCLR	PFLAG,0
                                           	GOTO	_00759_DS_
                                           ;;genSkipc:3291: created from rifx:013B5EFC
                                           ;	.line	1268; "MC32P7351.c"	tmp_val += tmp_val_l[i];
                                           	BCLR	PFLAG,0
                                           	RLAR	_i
                                           	MOVRA	r0x104B
                                           	MOVAR	r0x104B
                                           	ADDAI	(_tmp_val_l + 0)
                                           	MOVRA	r0x104B
                                           	MOVAI	high (_tmp_val_l + 0)
                                           	JBCLR	PFLAG,0
                                           	ADDAI	0x01
                                           	MOVRA	r0x104C
                                           	MOVAR	r0x104B
                                           	MOVRA	FSR0
                                           	MOVAR	r0x104C
                                           	MOVRA	FSR1
                                           	MOVAR	INDF2
                                           	MOVRA	r0x104F
                                           	INCR	FSR0
                                           	JBCLR	PFLAG,2
                                           	INCR	FSR1
                                           	MOVAR	INDF2
                                           	MOVRA	r0x1050
                                           	MOVAR	r0x104F
                                           	ADDRA	_tmp_val
                                           	MOVAR	r0x1050
                                           	JBCLR	PFLAG,0
                                           	JZAR	r0x1050
                                           	ADDRA	(_tmp_val + 1)
                                           ;	.line	1266; "MC32P7351.c"	for (i = 0; i < 8; i++)
                                           	INCR	_i
                                           	GOTO	_00800_DS_
                                           ;;shiftRight_Left2ResultLit:5339: shCount=1, size=2, sign=0, same=1, offr=0
                                           _00759_DS_
                                           ;	.line	1270; "MC32P7351.c"	tmp_val >>= 3;
                                           	BCLR	PFLAG,0
                                           	RRR	(_tmp_val + 1)
                                           	RRR	_tmp_val
                                           ;;shiftRight_Left2ResultLit:5339: shCount=1, size=2, sign=0, same=1, offr=0
                                           	BCLR	PFLAG,0
                                           	RRR	(_tmp_val + 1)
                                           	RRR	_tmp_val
                                           ;;shiftRight_Left2ResultLit:5339: shCount=1, size=2, sign=0, same=1, offr=0
                                           	BCLR	PFLAG,0
                                           	RRR	(_tmp_val + 1)
                                           	RRR	_tmp_val
                                           ;	.line	1272; "MC32P7351.c"	if (tmp_val > last_pwm_val)
                                           	MOVAR	(_tmp_val + 1)
                                           	RSUBAR	(_last_pwm_val + 1)
                                           	JBSET	PFLAG,2
                                           	GOTO	_00910_DS_
                                           	MOVAR	_tmp_val
                                           	RSUBAR	_last_pwm_val
                                           _00910_DS_
                                           	JBCLR	PFLAG,0
                                           	GOTO	_00763_DS_
                                           ;;genSkipc:3291: created from rifx:013B5EFC
                                           ;	.line	1274; "MC32P7351.c"	last_pwm_val = last_pwm_val + 1;
                                           	INCR	_last_pwm_val
                                           	JBCLR	PFLAG,2
                                           	INCR	(_last_pwm_val + 1)
                                           	GOTO	_00764_DS_
                                           _00763_DS_
                                           ;	.line	1276; "MC32P7351.c"	else if (tmp_val < last_pwm_val)
                                           	MOVAR	(_last_pwm_val + 1)
                                           	RSUBAR	(_tmp_val + 1)
                                           	JBSET	PFLAG,2
                                           	GOTO	_00911_DS_
                                           	MOVAR	_last_pwm_val
                                           	RSUBAR	_tmp_val
                                           _00911_DS_
                                           	JBCLR	PFLAG,0
                                           	GOTO	_00764_DS_
                                           ;;genSkipc:3291: created from rifx:013B5EFC
                                           ;	.line	1278; "MC32P7351.c"	last_pwm_val = last_pwm_val - 1;
                                           	MOVAI	0xff
                                           	ADDRA	_last_pwm_val
                                           	JBSET	PFLAG,0
                                           	DECR	(_last_pwm_val + 1)
                                           _00764_DS_
                                           ;	.line	1281; "MC32P7351.c"	T2DATA = last_pwm_val;
                                           	MOVAR	_last_pwm_val
                                           	MOVRA	_T2DATA
                                           	GOTO	_00775_DS_
                                           _00774_DS_
                                           ;	.line	1285; "MC32P7351.c"	if (FLAG_DURING_CHARGING_BAT_IS_NULL)
                                           	JBSET	_flag1,7
                                           	GOTO	_00775_DS_
                                           ;	.line	1288; "MC32P7351.c"	LED_FULL_CHARGE_ON();
                                           	BCLR	_IOP0bits,3
                                           ;	.line	1289; "MC32P7351.c"	delay_ms(200);
                                           	MOVAI	0xc8
                                           	MOVRA	STK00
                                           	MOVAI	0x00
                                           	CALL	_delay_ms
                                           ;	.line	1290; "MC32P7351.c"	LED_FULL_CHARGE_OFF();
                                           	BSET	_IOP0bits,3
                                           ;	.line	1291; "MC32P7351.c"	delay_ms(200);
                                           	MOVAI	0xc8
                                           	MOVRA	STK00
                                           	MOVAI	0x00
                                           	CALL	_delay_ms
                                           _00775_DS_
                                           ;	.line	1295; "MC32P7351.c"	if (flag_is_low_battery && FLAG_IS_DEVICE_OPEN)
                                           	JBSET	_flag2,2
                                           	GOTO	_00788_DS_
                                           	JBSET	_flag1,0
                                           	GOTO	_00788_DS_
                                           ;	.line	1297; "MC32P7351.c"	LED_WORKING_OFF();
                                           	BSET	_IOP1bits,4
                                           ;	.line	1300; "MC32P7351.c"	LED_CHARGING_ON();
                                           	BCLR	_IOP0bits,4
                                           ;	.line	1302; "MC32P7351.c"	for (i = 0; i < 20; i++)
                                           	CLRR	_i
                                           ;;unsigned compare: left < lit(0x14=20), size=1
                                           _00803_DS_
                                           	MOVAI	0x14
                                           	RSUBAR	_i
                                           	JBCLR	PFLAG,0
                                           	GOTO	_00783_DS_
                                           ;;genSkipc:3291: created from rifx:013B5EFC
                                           ;	.line	1305; "MC32P7351.c"	key_event_handle();
                                           	CALL	_key_event_handle
                                           ;	.line	1306; "MC32P7351.c"	delay_ms(10);
                                           	MOVAI	0x0a
                                           	MOVRA	STK00
                                           	MOVAI	0x00
                                           	CALL	_delay_ms
                                           ;	.line	1302; "MC32P7351.c"	for (i = 0; i < 20; i++)
                                           	INCR	_i
                                           	GOTO	_00803_DS_
                                           _00783_DS_
                                           ;	.line	1309; "MC32P7351.c"	LED_CHARGING_OFF();
                                           	BSET	_IOP0bits,4
                                           ;	.line	1311; "MC32P7351.c"	for (i = 0; i < 20; i++)
                                           	CLRR	_i
                                           ;;unsigned compare: left < lit(0x14=20), size=1
                                           _00806_DS_
                                           	MOVAI	0x14
                                           	RSUBAR	_i
                                           	JBCLR	PFLAG,0
                                           	GOTO	_00788_DS_
                                           ;;genSkipc:3291: created from rifx:013B5EFC
                                           ;	.line	1314; "MC32P7351.c"	key_event_handle();
                                           	CALL	_key_event_handle
                                           ;	.line	1315; "MC32P7351.c"	delay_ms(10);
                                           	MOVAI	0x0a
                                           	MOVRA	STK00
                                           	MOVAI	0x00
                                           	CALL	_delay_ms
                                           ;	.line	1311; "MC32P7351.c"	for (i = 0; i < 20; i++)
                                           	INCR	_i
                                           	GOTO	_00806_DS_
                                           _00788_DS_
                                           ;	.line	1319; "MC32P7351.c"	if (FLAG_IS_DEVICE_OPEN && FLAG_IS_IN_CHARGING)
                                           	JBSET	_flag1,0
                                           	GOTO	_00791_DS_
                                           	JBSET	_flag1,2
                                           	GOTO	_00791_DS_
                                           ;	.line	1322; "MC32P7351.c"	flag_is_low_battery = 0;
                                           	BCLR	_flag2,2
                                           _00791_DS_
                                           ;	.line	1325; "MC32P7351.c"	low_power_scan_handle();
                                           	CALL	_low_power_scan_handle
                                           ;	.line	1332; "MC32P7351.c"	__endasm;
                                           	;
                                           	CLRWDT;
                                           	
                                           	GOTO	_00794_DS_
                                           ;	.line	1335; "MC32P7351.c"	}
                                           	RETURN	
                                           ; exit point of _main
                                           
                                           ;***
                                           ;  pBlock Stats: dbName = C
                                           ;***
                                           ;entry:  _low_power_scan_handle	;Function start
                                           ; 2 exit points
                                           ;has an exit
                                           ;functions called:
                                           ;   _CLR_RAM
                                           ;   _adc_config
                                           ;   _adc_sel_pin
                                           ;   _adc_get_val_once
                                           ;   _Sys_Init
                                           ;   _delay_ms
                                           ;   _CLR_RAM
                                           ;   _adc_config
                                           ;   _adc_sel_pin
                                           ;   _adc_get_val_once
                                           ;   _Sys_Init
                                           ;   _delay_ms
                                           ;1 compiler assigned register :
                                           ;   STK00
                                           ;; Starting pCode block
                                           _low_power_scan_handle	;Function start
                                           ; 2 exit points
                                           ;	.line	977; "MC32P7351.c"	if (FLAG_DURING_CHARGING_BAT_IS_NULL ||
                                           	JBCLR	_flag1,7
                                           	GOTO	_00706_DS_
                                           ;	.line	978; "MC32P7351.c"	FLAG_IS_DEVICE_OPEN || // 如果设备已经启动，不进入低功耗
                                           	JBCLR	_flag1,0
                                           	GOTO	_00706_DS_
                                           ;	.line	979; "MC32P7351.c"	FLAG_IS_IN_CHARGING || // 如果正在充电，不进入低功耗，因为还需要输出PWM来控制充电
                                           	JBCLR	_flag1,2
                                           	GOTO	_00706_DS_
                                           ;	.line	980; "MC32P7351.c"	0 == P01D)             // 如果检测到 开关/模式 按键按下，不进入低功耗(交给按键事件处理函数来判断是否要开机)
                                           	JBCLR	_IOP0bits,1
                                           	GOTO	_00711_DS_
                                           _00706_DS_
                                           ;	.line	982; "MC32P7351.c"	return;
                                           	GOTO	_00715_DS_
                                           _00711_DS_
                                           ;	.line	1000; "MC32P7351.c"	GIE = 0;  // 禁用所有中断
                                           	BCLR	_MCRbits,7
                                           ;	.line	1001; "MC32P7351.c"	T0EN = 0; // 关闭定时器和PWM输出
                                           	BCLR	_T0CRbits,7
                                           ;	.line	1002; "MC32P7351.c"	T1EN = 0;
                                           	BCLR	_T1CRbits,7
                                           ;	.line	1003; "MC32P7351.c"	T2EN = 0;
                                           	BCLR	_T2CRbits,7
                                           ;	.line	1004; "MC32P7351.c"	T3EN = 0;
                                           	BCLR	_T3CRbits,7
                                           ;	.line	1006; "MC32P7351.c"	PWM0EC = 0;
                                           	BCLR	_T0CRbits,6
                                           ;	.line	1007; "MC32P7351.c"	PWM1EC = 0;
                                           	BCLR	_T1CRbits,6
                                           ;	.line	1008; "MC32P7351.c"	PWM2EC = 0;
                                           	BCLR	_T2CRbits,6
                                           ;	.line	1009; "MC32P7351.c"	T2DATA = 0;
                                           	CLRR	_T2DATA
                                           ;	.line	1010; "MC32P7351.c"	ADEN = 0; // 不使能ad
                                           	BCLR	_ADCR0bits,0
                                           ;	.line	1013; "MC32P7351.c"	P14OE = 0;
                                           	BCLR	_OEP1bits,4
                                           ;	.line	1014; "MC32P7351.c"	P04OE = 0;
                                           	BCLR	_OEP0bits,4
                                           ;	.line	1015; "MC32P7351.c"	P03OE = 0;
                                           	BCLR	_OEP0bits,3
                                           ;	.line	1018; "MC32P7351.c"	P01PU = 1;
                                           	BSET	_PUP0bits,1
                                           ;	.line	1019; "MC32P7351.c"	P01OE = 0;
                                           	BCLR	_OEP0bits,1
                                           ;	.line	1022; "MC32P7351.c"	P00PD = 1;
                                           	BSET	_PDP0bits,0
                                           ;	.line	1023; "MC32P7351.c"	P00OE = 0;
                                           	BCLR	_OEP0bits,0
                                           ;	.line	1025; "MC32P7351.c"	HFEN = 0; // 关闭高速时钟
                                           	BCLR	_OSCMRbits,0
                                           ;	.line	1026; "MC32P7351.c"	LFEN = 1;
                                           	BSET	_OSCMRbits,1
                                           ;	.line	1029; "MC32P7351.c"	Nop();
                                           	nop	
                                           ;	.line	1030; "MC32P7351.c"	Nop();
                                           	nop	
                                           ;	.line	1031; "MC32P7351.c"	Stop();
                                           	stop	
                                           ;	.line	1032; "MC32P7351.c"	Nop();
                                           	nop	
                                           ;	.line	1033; "MC32P7351.c"	Nop();
                                           	nop	
                                           ;	.line	1035; "MC32P7351.c"	HFEN = 1; // 开启高速时钟
                                           	BSET	_OSCMRbits,0
                                           ;	.line	1037; "MC32P7351.c"	CLR_RAM();
                                           	CALL	_CLR_RAM
                                           ;	.line	1039; "MC32P7351.c"	adc_config();
                                           	CALL	_adc_config
                                           ;	.line	1040; "MC32P7351.c"	adc_sel_pin(ADC_PIN_P00_AN0);
                                           	MOVAI	0x01
                                           	CALL	_adc_sel_pin
                                           ;	.line	1041; "MC32P7351.c"	adc_val = adc_get_val_once();
                                           	CALL	_adc_get_val_once
                                           	MOVRA	(_adc_val + 1)
                                           	MOVAR	STK00
                                           	MOVRA	_adc_val
                                           ;;unsigned compare: left < lit(0x800=2048), size=2
                                           ;	.line	1043; "MC32P7351.c"	if (adc_val < ADCDETECT_CHARING_THRESHOLD && P01D)
                                           	MOVAI	0x08
                                           	RSUBAR	(_adc_val + 1)
                                           	JBSET	PFLAG,2
                                           	GOTO	_00737_DS_
                                           	MOVAI	0x00
                                           	RSUBAR	_adc_val
                                           _00737_DS_
                                           	JBCLR	PFLAG,0
                                           	GOTO	_00713_DS_
                                           ;;genSkipc:3291: created from rifx:013B5EFC
                                           	JBCLR	_IOP0bits,1
                                           	GOTO	_00711_DS_
                                           _00713_DS_
                                           ;	.line	1069; "MC32P7351.c"	Sys_Init();
                                           	CALL	_Sys_Init
                                           ;	.line	1070; "MC32P7351.c"	GIE = 1;
                                           	BSET	_MCRbits,7
                                           ;	.line	1072; "MC32P7351.c"	delay_ms(100); // 等待系统稳定
                                           	MOVAI	0x64
                                           	MOVRA	STK00
                                           	MOVAI	0x00
                                           	CALL	_delay_ms
                                           _00715_DS_
                                           ;	.line	1073; "MC32P7351.c"	}
                                           	RETURN	
                                           ; exit point of _low_power_scan_handle
                                           
                                           ;***
                                           ;  pBlock Stats: dbName = C
                                           ;***
                                           ;entry:  _shutdown_scan_handle	;Function start
                                           ; 2 exit points
                                           ;has an exit
                                           ;; Starting pCode block
                                           _shutdown_scan_handle	;Function start
                                           ; 2 exit points
                                           ;	.line	948; "MC32P7351.c"	if (FLAG_IS_DEVICE_OPEN)
                                           	JBSET	_flag1,0
                                           	GOTO	_00689_DS_
                                           ;;unsigned compare: left < lit(0xDBBA0=900000), size=4
                                           ;	.line	952; "MC32P7351.c"	if (shut_down_ms_cnt >= 900000)
                                           	MOVAI	0x00
                                           	RSUBAR	(_shut_down_ms_cnt + 3)
                                           	JBSET	PFLAG,2
                                           	GOTO	_00701_DS_
                                           	MOVAI	0x0d
                                           	RSUBAR	(_shut_down_ms_cnt + 2)
                                           	JBSET	PFLAG,2
                                           	GOTO	_00701_DS_
                                           	MOVAI	0xbb
                                           	RSUBAR	(_shut_down_ms_cnt + 1)
                                           	JBSET	PFLAG,2
                                           	GOTO	_00701_DS_
                                           	MOVAI	0xa0
                                           	RSUBAR	_shut_down_ms_cnt
                                           _00701_DS_
                                           	JBSET	PFLAG,0
                                           	GOTO	_00691_DS_
                                           ;;genSkipc:3291: created from rifx:013B5EFC
                                           ;	.line	956; "MC32P7351.c"	LED_WORKING_OFF(); // 关闭电源指示灯
                                           	BSET	_IOP1bits,4
                                           ;	.line	957; "MC32P7351.c"	HEATING_OFF();     // 关闭加热
                                           	BCLR	_IOP1bits,2
                                           ;	.line	958; "MC32P7351.c"	FLAG_IS_HEATING = 0;
                                           	BCLR	_flag1,1
                                           ;	.line	959; "MC32P7351.c"	mode_flag = MODE_3; // 下一次切换模式时，会变成 MODE_1
                                           	MOVAI	0x02
                                           	MOVRA	_mode_flag
                                           ;	.line	961; "MC32P7351.c"	PWM0EC = 0;
                                           	BCLR	_T0CRbits,6
                                           ;	.line	962; "MC32P7351.c"	PWM1EC = 0;
                                           	BCLR	_T1CRbits,6
                                           ;	.line	964; "MC32P7351.c"	FLAG_IS_DEVICE_OPEN = 0;
                                           	BCLR	_flag1,0
                                           	GOTO	_00691_DS_
                                           _00689_DS_
                                           ;	.line	970; "MC32P7351.c"	shut_down_ms_cnt = 0;
                                           	CLRR	_shut_down_ms_cnt
                                           	CLRR	(_shut_down_ms_cnt + 1)
                                           	CLRR	(_shut_down_ms_cnt + 2)
                                           	CLRR	(_shut_down_ms_cnt + 3)
                                           _00691_DS_
                                           ;	.line	972; "MC32P7351.c"	}
                                           	RETURN	
                                           ; exit point of _shutdown_scan_handle
                                           
                                           ;***
                                           ;  pBlock Stats: dbName = C
                                           ;***
                                           ;entry:  _turn_dir_scan_handle	;Function start
                                           ; 2 exit points
                                           ;has an exit
                                           ;functions called:
                                           ;   _delay_ms
                                           ;   _delay_ms
                                           ;   _delay_ms
                                           ;   _delay_ms
                                           ;1 compiler assigned register :
                                           ;   STK00
                                           ;; Starting pCode block
                                           _turn_dir_scan_handle	;Function start
                                           ; 2 exit points
                                           ;	.line	912; "MC32P7351.c"	if (FLAG_IS_DEVICE_OPEN)
                                           	JBSET	_flag1,0
                                           	GOTO	_00659_DS_
                                           ;;unsigned compare: left < lit(0x1D4C0=120000), size=4
                                           ;	.line	916; "MC32P7351.c"	if (turn_dir_ms_cnt >= (120000)) // 原本设定是2min
                                           	MOVAI	0x00
                                           	RSUBAR	(_turn_dir_ms_cnt + 3)
                                           	JBSET	PFLAG,2
                                           	GOTO	_00675_DS_
                                           	MOVAI	0x01
                                           	RSUBAR	(_turn_dir_ms_cnt + 2)
                                           	JBSET	PFLAG,2
                                           	GOTO	_00675_DS_
                                           	MOVAI	0xd4
                                           	RSUBAR	(_turn_dir_ms_cnt + 1)
                                           	JBSET	PFLAG,2
                                           	GOTO	_00675_DS_
                                           	MOVAI	0xc0
                                           	RSUBAR	_turn_dir_ms_cnt
                                           _00675_DS_
                                           	JBSET	PFLAG,0
                                           	GOTO	_00661_DS_
                                           ;;genSkipc:3291: created from rifx:013B5EFC
                                           ;	.line	919; "MC32P7351.c"	if (0 == FLAG_DIR)
                                           	JBCLR	_flag1,3
                                           	GOTO	_00654_DS_
                                           ;	.line	922; "MC32P7351.c"	PWM0EC = 0; // 关闭驱动正转的pwm
                                           	BCLR	_T0CRbits,6
                                           ;	.line	923; "MC32P7351.c"	delay_ms(500);
                                           	MOVAI	0xf4
                                           	MOVRA	STK00
                                           	MOVAI	0x01
                                           	CALL	_delay_ms
                                           ;	.line	924; "MC32P7351.c"	PWM1EC = 1;   // 打开驱动反转的pwm
                                           	BSET	_T1CRbits,6
                                           ;	.line	925; "MC32P7351.c"	FLAG_DIR = 1; // 表示当前为反转
                                           	BSET	_flag1,3
                                           	GOTO	_00655_DS_
                                           _00654_DS_
                                           ;	.line	930; "MC32P7351.c"	PWM1EC = 0; // 关闭驱动反转的pwm
                                           	BCLR	_T1CRbits,6
                                           ;	.line	931; "MC32P7351.c"	delay_ms(500);
                                           	MOVAI	0xf4
                                           	MOVRA	STK00
                                           	MOVAI	0x01
                                           	CALL	_delay_ms
                                           ;	.line	932; "MC32P7351.c"	PWM0EC = 1;   // 打开驱动正转的pwm
                                           	BSET	_T0CRbits,6
                                           ;	.line	933; "MC32P7351.c"	FLAG_DIR = 0; // 表示当前为正转
                                           	BCLR	_flag1,3
                                           _00655_DS_
                                           ;	.line	936; "MC32P7351.c"	turn_dir_ms_cnt = 0;
                                           	CLRR	_turn_dir_ms_cnt
                                           	CLRR	(_turn_dir_ms_cnt + 1)
                                           	CLRR	(_turn_dir_ms_cnt + 2)
                                           	CLRR	(_turn_dir_ms_cnt + 3)
                                           	GOTO	_00661_DS_
                                           _00659_DS_
                                           ;	.line	941; "MC32P7351.c"	turn_dir_ms_cnt = 0; // 设备未运行时，清空计数值
                                           	CLRR	_turn_dir_ms_cnt
                                           	CLRR	(_turn_dir_ms_cnt + 1)
                                           	CLRR	(_turn_dir_ms_cnt + 2)
                                           	CLRR	(_turn_dir_ms_cnt + 3)
                                           _00661_DS_
                                           ;	.line	943; "MC32P7351.c"	}
                                           	RETURN	
                                           ; exit point of _turn_dir_scan_handle
                                           
                                           ;***
                                           ;  pBlock Stats: dbName = C
                                           ;***
                                           ;entry:  _adc_scan_handle	;Function start
                                           ; 2 exit points
                                           ;has an exit
                                           ;functions called:
                                           ;   _adc_sel_pin
                                           ;   _adc_get_val
                                           ;   _key_event_handle
                                           ;   _adc_sel_pin
                                           ;   _adc_get_val
                                           ;   _key_event_handle
                                           ;   _adc_sel_pin
                                           ;   _adc_get_val
                                           ;   _key_event_handle
                                           ;   _adc_sel_pin
                                           ;   _adc_get_val
                                           ;   _key_event_handle
                                           ;1 compiler assigned register :
                                           ;   STK00
                                           ;; Starting pCode block
                                           _adc_scan_handle	;Function start
                                           ; 2 exit points
                                           ;	.line	684; "MC32P7351.c"	volatile u8 cnt = 0;             // 计数值，用于检测电池是否满电，也是用于检测是否插入/拔出充电器的计数值
                                           	CLRR	_adc_scan_handle_cnt_65536_93
                                           ;	.line	685; "MC32P7351.c"	volatile u8 need_charge_cnt = 0; // 计数值，用于检测是否要快速充电
                                           	CLRR	_adc_scan_handle_need_charge_cnt_65536_93
                                           ;	.line	687; "MC32P7351.c"	adc_bat_val = 0;
                                           	CLRR	_adc_bat_val
                                           	CLRR	(_adc_bat_val + 1)
                                           	CLRR	(_adc_bat_val + 2)
                                           	CLRR	(_adc_bat_val + 3)
                                           ;	.line	688; "MC32P7351.c"	adc_charging_val = 0;
                                           	CLRR	_adc_charging_val
                                           	CLRR	(_adc_charging_val + 1)
                                           ;	.line	690; "MC32P7351.c"	adc_sel_pin(ADC_PIN_P02_AN1); // 切换到检测电池降压后的电压的检测引脚
                                           	MOVAI	0x02
                                           	CALL	_adc_sel_pin
                                           ;	.line	691; "MC32P7351.c"	for (i = 0; i < 10; i++)      //  // 每55ms进入一次，循环内每次间隔约4.8ms
                                           	CLRR	_i
                                           ;;unsigned compare: left < lit(0xA=10), size=1
                                           _00502_DS_
                                           	MOVAI	0x0a
                                           	RSUBAR	_i
                                           	JBCLR	PFLAG,0
                                           	GOTO	_00458_DS_
                                           ;;genSkipc:3291: created from rifx:013B5EFC
                                           ;	.line	693; "MC32P7351.c"	adc_val = adc_get_val();
                                           	CALL	_adc_get_val
                                           	MOVRA	(_adc_val + 1)
                                           	MOVAR	STK00
                                           	MOVRA	_adc_val
                                           ;	.line	695; "MC32P7351.c"	if (i == 0)
                                           	MOVAI	0x00
                                           	ORAR	_i
                                           	JBSET	PFLAG,2
                                           	GOTO	_00411_DS_
                                           ;	.line	697; "MC32P7351.c"	adc_bat_val = adc_val;
                                           	MOVAR	_adc_val
                                           	MOVRA	_adc_bat_val
                                           	MOVAR	(_adc_val + 1)
                                           	MOVRA	(_adc_bat_val + 1)
                                           	CLRR	(_adc_bat_val + 2)
                                           	CLRR	(_adc_bat_val + 3)
                                           _00411_DS_
                                           ;	.line	700; "MC32P7351.c"	if (FLAG_IS_IN_CHARGING)
                                           	JBSET	_flag1,2
                                           	GOTO	_00456_DS_
                                           ;;unsigned compare: left < lit(0xFA0=4000), size=2
                                           ;	.line	703; "MC32P7351.c"	if (adc_val >= ADCDETECT_BAT_FULL + ADCDETECT_BAT_NULL_EX)
                                           	MOVAI	0x0f
                                           	RSUBAR	(_adc_val + 1)
                                           	JBSET	PFLAG,2
                                           	GOTO	_00634_DS_
                                           	MOVAI	0xa0
                                           	RSUBAR	_adc_val
                                           _00634_DS_
                                           	JBSET	PFLAG,0
                                           	GOTO	_00413_DS_
                                           ;;genSkipc:3291: created from rifx:013B5EFC
                                           ;	.line	706; "MC32P7351.c"	T2DATA = 0;
                                           	CLRR	_T2DATA
                                           ;	.line	707; "MC32P7351.c"	over_charging_cnt++;
                                           	INCR	_over_charging_cnt
                                           ;;unsigned compare: left < lit(0xE88=3720), size=2
                                           _00413_DS_
                                           ;	.line	710; "MC32P7351.c"	if (adc_val >= ADCDETECT_BAT_FULL) // 检测电池是否满电
                                           	MOVAI	0x0e
                                           	RSUBAR	(_adc_val + 1)
                                           	JBSET	PFLAG,2
                                           	GOTO	_00635_DS_
                                           	MOVAI	0x88
                                           	RSUBAR	_adc_val
                                           _00635_DS_
                                           	JBSET	PFLAG,0
                                           	GOTO	_00417_DS_
                                           ;;genSkipc:3291: created from rifx:013B5EFC
                                           ;	.line	712; "MC32P7351.c"	cnt++;
                                           	INCR	_adc_scan_handle_cnt_65536_93
                                           	GOTO	_00418_DS_
                                           ;;unsigned compare: left < lit(0xD90=3472), size=2
                                           _00417_DS_
                                           ;	.line	714; "MC32P7351.c"	else if (adc_val < ADCDETECT_BAT_WILL_FULL) // 检测是否要快速充电
                                           	MOVAI	0x0d
                                           	RSUBAR	(_adc_val + 1)
                                           	JBSET	PFLAG,2
                                           	GOTO	_00636_DS_
                                           	MOVAI	0x90
                                           	RSUBAR	_adc_val
                                           _00636_DS_
                                           	JBCLR	PFLAG,0
                                           	GOTO	_00418_DS_
                                           ;;genSkipc:3291: created from rifx:013B5EFC
                                           ;	.line	716; "MC32P7351.c"	need_charge_cnt++;
                                           	INCR	_adc_scan_handle_need_charge_cnt_65536_93
                                           _00418_DS_
                                           ;	.line	719; "MC32P7351.c"	if (flag_bat_is_empty)
                                           	MOVAI	0x00
                                           	ORAR	_flag_bat_is_empty
                                           	JBCLR	PFLAG,2
                                           	GOTO	_00444_DS_
                                           ;	.line	723; "MC32P7351.c"	LED_CHARGING_OFF(); // 关闭充电指示灯
                                           	BSET	_IOP0bits,4
                                           ;	.line	724; "MC32P7351.c"	PWM2EC = 0;         // 关闭控制升压电路的pwm（建议是，插上充钱器时，不关闭控制升压电路的PWM，但是在测试时，充电一侧会严重发热）
                                           	BCLR	_T2CRbits,6
                                           ;	.line	725; "MC32P7351.c"	T2DATA = 0;
                                           	CLRR	_T2DATA
                                           ;	.line	726; "MC32P7351.c"	FLAG_BAT_IS_NEED_CHARGE = 0;
                                           	BCLR	_flag1,4
                                           ;	.line	727; "MC32P7351.c"	FLAG_DURING_CHARGING_BAT_IS_NULL = 1; // 标志位置一，在主循环让绿灯快闪
                                           	BSET	_flag1,7
                                           ;	.line	729; "MC32P7351.c"	break;
                                           	GOTO	_00458_DS_
                                           ;;unsigned compare: left < lit(0x8=8), size=1
                                           _00444_DS_
                                           ;	.line	731; "MC32P7351.c"	else if (cnt >= 8 || over_charging_cnt >= 8)
                                           	MOVAI	0x08
                                           	RSUBAR	_adc_scan_handle_cnt_65536_93
                                           	JBCLR	PFLAG,0
                                           	GOTO	_00439_DS_
                                           ;;genSkipc:3291: created from rifx:013B5EFC
                                           ;;unsigned compare: left < lit(0x8=8), size=1
                                           	MOVAI	0x08
                                           	RSUBAR	_over_charging_cnt
                                           	JBSET	PFLAG,0
                                           	GOTO	_00440_DS_
                                           ;;genSkipc:3291: created from rifx:013B5EFC
                                           _00439_DS_
                                           ;	.line	734; "MC32P7351.c"	full_charge_cnt++;
                                           	INCR	_full_charge_cnt
                                           ;;unsigned compare: left < lit(0x64=100), size=1
                                           ;	.line	735; "MC32P7351.c"	if (full_charge_cnt >= 100 || over_charging_cnt >= 8) // 5.5s或者是连续触发了若干次过充保护
                                           	MOVAI	0x64
                                           	RSUBAR	_full_charge_cnt
                                           	JBCLR	PFLAG,0
                                           	GOTO	_00431_DS_
                                           ;;genSkipc:3291: created from rifx:013B5EFC
                                           ;;unsigned compare: left < lit(0x8=8), size=1
                                           	MOVAI	0x08
                                           	RSUBAR	_over_charging_cnt
                                           	JBSET	PFLAG,0
                                           	GOTO	_00457_DS_
                                           ;;genSkipc:3291: created from rifx:013B5EFC
                                           _00431_DS_
                                           ;	.line	737; "MC32P7351.c"	full_charge_cnt = 0; //
                                           	CLRR	_full_charge_cnt
                                           ;	.line	739; "MC32P7351.c"	if (FLAG_IS_DEVICE_OPEN)
                                           	JBCLR	_flag1,0
                                           	GOTO	_00430_DS_
                                           ;	.line	745; "MC32P7351.c"	LED_CHARGING_OFF(); // 关闭充电指示灯
                                           	BSET	_IOP0bits,4
                                           ;	.line	747; "MC32P7351.c"	LED_FULL_CHARGE_ON(); // 开启电池充满电的指示灯
                                           	BCLR	_IOP0bits,3
                                           _00430_DS_
                                           ;	.line	750; "MC32P7351.c"	PWM2EC = 0; // 关闭控制升压电路的pwm
                                           	BCLR	_T2CRbits,6
                                           ;	.line	751; "MC32P7351.c"	T2DATA = 0;
                                           	CLRR	_T2DATA
                                           ;	.line	753; "MC32P7351.c"	FLAG_BAT_IS_NEED_CHARGE = 0;
                                           	BCLR	_flag1,4
                                           ;	.line	754; "MC32P7351.c"	FLAG_BAT_IS_FULL = 1;
                                           	BSET	_flag1,5
                                           ;	.line	755; "MC32P7351.c"	break;
                                           	GOTO	_00458_DS_
                                           ;;unsigned compare: left < lit(0x8=8), size=1
                                           _00440_DS_
                                           ;	.line	758; "MC32P7351.c"	else if (need_charge_cnt >= 8)
                                           	MOVAI	0x08
                                           	RSUBAR	_adc_scan_handle_need_charge_cnt_65536_93
                                           	JBSET	PFLAG,0
                                           	GOTO	_00457_DS_
                                           ;;genSkipc:3291: created from rifx:013B5EFC
                                           ;	.line	762; "MC32P7351.c"	LED_FULL_CHARGE_OFF(); // 关闭充满电的指示灯
                                           	BSET	_IOP0bits,3
                                           ;	.line	763; "MC32P7351.c"	FLAG_BAT_IS_NEED_CHARGE = 1;
                                           	BSET	_flag1,4
                                           ;	.line	764; "MC32P7351.c"	FLAG_BAT_IS_FULL = 0;
                                           	BCLR	_flag1,5
                                           ;	.line	765; "MC32P7351.c"	break;
                                           	GOTO	_00458_DS_
                                           _00456_DS_
                                           ;	.line	771; "MC32P7351.c"	if (flag_bat_is_empty == 0 && adc_val <= ADCDETECT_BAT_FULL - ((ADCDETECT_BAT_FULL - ADCDETECT_BAT_WILL_FULL) / 2))
                                           	MOVAI	0x00
                                           	ORAR	_flag_bat_is_empty
                                           	JBSET	PFLAG,2
                                           	GOTO	_00447_DS_
                                           ;;swapping arguments (AOP_TYPEs 1/3)
                                           ;;unsigned compare: left >= lit(0xE0D=3597), size=2
                                           	MOVAI	0x0e
                                           	RSUBAR	(_adc_val + 1)
                                           	JBSET	PFLAG,2
                                           	GOTO	_00642_DS_
                                           	MOVAI	0x0d
                                           	RSUBAR	_adc_val
                                           _00642_DS_
                                           	JBCLR	PFLAG,0
                                           	GOTO	_00447_DS_
                                           ;;genSkipc:3291: created from rifx:013B5EFC
                                           ;	.line	773; "MC32P7351.c"	cnt++;
                                           	INCR	_adc_scan_handle_cnt_65536_93
                                           ;;unsigned compare: left < lit(0x8=8), size=1
                                           _00447_DS_
                                           ;	.line	776; "MC32P7351.c"	if (cnt >= 8)
                                           	MOVAI	0x08
                                           	RSUBAR	_adc_scan_handle_cnt_65536_93
                                           	JBSET	PFLAG,0
                                           	GOTO	_00450_DS_
                                           ;;genSkipc:3291: created from rifx:013B5EFC
                                           ;	.line	779; "MC32P7351.c"	FLAG_BAT_IS_NEED_CHARGE = 1;
                                           	BSET	_flag1,4
                                           ;	.line	780; "MC32P7351.c"	FLAG_BAT_IS_FULL = 0;
                                           	BCLR	_flag1,5
                                           ;	.line	781; "MC32P7351.c"	break;
                                           	GOTO	_00458_DS_
                                           _00450_DS_
                                           ;	.line	785; "MC32P7351.c"	if (flag_bat_is_empty == 0 &&
                                           	MOVAI	0x00
                                           	ORAR	_flag_bat_is_empty
                                           	JBSET	PFLAG,2
                                           	GOTO	_00457_DS_
                                           ;	.line	786; "MC32P7351.c"	FLAG_IS_DEVICE_OPEN &&
                                           	JBSET	_flag1,0
                                           	GOTO	_00457_DS_
                                           ;;unsigned compare: left < lit(0xBEF=3055), size=2
                                           ;	.line	787; "MC32P7351.c"	adc_val < LOW_BATTERY_AD_VAL)
                                           	MOVAI	0x0b
                                           	RSUBAR	(_adc_val + 1)
                                           	JBSET	PFLAG,2
                                           	GOTO	_00644_DS_
                                           	MOVAI	0xef
                                           	RSUBAR	_adc_val
                                           _00644_DS_
                                           	JBCLR	PFLAG,0
                                           	GOTO	_00457_DS_
                                           ;;genSkipc:3291: created from rifx:013B5EFC
                                           ;	.line	789; "MC32P7351.c"	flag_is_low_battery = 1;
                                           	BSET	_flag2,2
                                           _00457_DS_
                                           ;	.line	794; "MC32P7351.c"	key_event_handle();
                                           	CALL	_key_event_handle
                                           ;	.line	691; "MC32P7351.c"	for (i = 0; i < 10; i++)      //  // 每55ms进入一次，循环内每次间隔约4.8ms
                                           	INCR	_i
                                           	GOTO	_00502_DS_
                                           _00458_DS_
                                           ;	.line	797; "MC32P7351.c"	cnt = 0;
                                           	CLRR	_adc_scan_handle_cnt_65536_93
                                           ;	.line	798; "MC32P7351.c"	adc_sel_pin(ADC_PIN_P00_AN0); // 切换到检测充电的电压检测引脚(检测到的充电电压 == USB-C口电压 / 2)
                                           	MOVAI	0x01
                                           	CALL	_adc_sel_pin
                                           ;	.line	799; "MC32P7351.c"	for (i = 0; i < 10; i++)
                                           	CLRR	_i
                                           ;;unsigned compare: left < lit(0xA=10), size=1
                                           _00505_DS_
                                           	MOVAI	0x0a
                                           	RSUBAR	_i
                                           	JBCLR	PFLAG,0
                                           	GOTO	_00507_DS_
                                           ;;genSkipc:3291: created from rifx:013B5EFC
                                           ;	.line	801; "MC32P7351.c"	adc_val = adc_get_val();
                                           	CALL	_adc_get_val
                                           	MOVRA	(_adc_val + 1)
                                           	MOVAR	STK00
                                           	MOVRA	_adc_val
                                           ;	.line	802; "MC32P7351.c"	if (flag_bat_is_empty) // 如果电池为空
                                           	MOVAI	0x00
                                           	ORAR	_flag_bat_is_empty
                                           	JBCLR	PFLAG,2
                                           	GOTO	_00460_DS_
                                           ;	.line	804; "MC32P7351.c"	adc_val = 4095; // 防止进入下面的if (adc_val < ADCDETECT_CHARING_THRESHOLD)
                                           	MOVAI	0xff
                                           	MOVRA	_adc_val
                                           	MOVAI	0x0f
                                           	MOVRA	(_adc_val + 1)
                                           _00460_DS_
                                           ;	.line	807; "MC32P7351.c"	if (adc_charging_val != 0)
                                           	MOVAR	_adc_charging_val
                                           	ORAR	(_adc_charging_val + 1)
                                           	JBCLR	PFLAG,2
                                           	GOTO	_00462_DS_
                                           ;	.line	809; "MC32P7351.c"	adc_charging_val += adc_val;
                                           	MOVAR	_adc_val
                                           	ADDRA	_adc_charging_val
                                           	MOVAR	(_adc_val + 1)
                                           	JBCLR	PFLAG,0
                                           	JZAR	(_adc_val + 1)
                                           	ADDRA	(_adc_charging_val + 1)
                                           ;;shiftRight_Left2ResultLit:5339: shCount=1, size=2, sign=0, same=1, offr=0
                                           ;	.line	810; "MC32P7351.c"	adc_charging_val /= 2;
                                           	BCLR	PFLAG,0
                                           	RRR	(_adc_charging_val + 1)
                                           	RRR	_adc_charging_val
                                           	GOTO	_00463_DS_
                                           _00462_DS_
                                           ;	.line	814; "MC32P7351.c"	adc_charging_val += adc_val;
                                           	MOVAR	_adc_val
                                           	ADDRA	_adc_charging_val
                                           	MOVAR	(_adc_val + 1)
                                           	JBCLR	PFLAG,0
                                           	JZAR	(_adc_val + 1)
                                           	ADDRA	(_adc_charging_val + 1)
                                           _00463_DS_
                                           ;	.line	817; "MC32P7351.c"	if (FLAG_IS_IN_CHARGING)
                                           	JBSET	_flag1,2
                                           	GOTO	_00498_DS_
                                           ;;unsigned compare: left < lit(0x800=2048), size=2
                                           ;	.line	820; "MC32P7351.c"	if (adc_val < ADCDETECT_CHARING_THRESHOLD)
                                           	MOVAI	0x08
                                           	RSUBAR	(_adc_val + 1)
                                           	JBSET	PFLAG,2
                                           	GOTO	_00646_DS_
                                           	MOVAI	0x00
                                           	RSUBAR	_adc_val
                                           _00646_DS_
                                           	JBCLR	PFLAG,0
                                           	GOTO	_00465_DS_
                                           ;;genSkipc:3291: created from rifx:013B5EFC
                                           ;	.line	822; "MC32P7351.c"	cnt++;
                                           	INCR	_adc_scan_handle_cnt_65536_93
                                           ;;unsigned compare: left < lit(0x8=8), size=1
                                           _00465_DS_
                                           ;	.line	825; "MC32P7351.c"	if (cnt >= 8)
                                           	MOVAI	0x08
                                           	RSUBAR	_adc_scan_handle_cnt_65536_93
                                           	JBSET	PFLAG,0
                                           	GOTO	_00473_DS_
                                           ;;genSkipc:3291: created from rifx:013B5EFC
                                           ;	.line	828; "MC32P7351.c"	LED_CHARGING_OFF(); // 关闭充电指示灯
                                           	BSET	_IOP0bits,4
                                           ;	.line	829; "MC32P7351.c"	PWM2EC = 0;         // 关闭控制升压电路的pwm
                                           	BCLR	_T2CRbits,6
                                           ;	.line	830; "MC32P7351.c"	T2DATA = 0;
                                           	CLRR	_T2DATA
                                           ;	.line	831; "MC32P7351.c"	LED_FULL_CHARGE_OFF(); // 关闭电池充满电的指示灯
                                           	BSET	_IOP0bits,3
                                           ;	.line	833; "MC32P7351.c"	FLAG_IS_IN_CHARGING = 0;
                                           	BCLR	_flag1,2
                                           ;	.line	834; "MC32P7351.c"	FLAG_DURING_CHARGING_BAT_IS_NULL = 0; // 清空该标志位，因为已经不在充电的情况下
                                           	BCLR	_flag1,7
                                           ;	.line	835; "MC32P7351.c"	break;
                                           	GOTO	_00507_DS_
                                           _00473_DS_
                                           ;	.line	838; "MC32P7351.c"	if (FLAG_IS_DEVICE_OPEN)
                                           	JBCLR	_flag1,0
                                           	GOTO	_00499_DS_
                                           ;	.line	844; "MC32P7351.c"	if (FLAG_BAT_IS_FULL)
                                           	JBCLR	_flag1,5
                                           	GOTO	_00499_DS_
                                           ;	.line	850; "MC32P7351.c"	LED_FULL_CHARGE_OFF();
                                           	BSET	_IOP0bits,3
                                           ;	.line	851; "MC32P7351.c"	LED_CHARGING_ON();
                                           	BCLR	_IOP0bits,4
                                           	GOTO	_00499_DS_
                                           _00498_DS_
                                           ;	.line	858; "MC32P7351.c"	if (flag_bat_is_empty == 0 && adc_val >= ADCDETECT_CHARING_THRESHOLD)
                                           	MOVAI	0x00
                                           	ORAR	_flag_bat_is_empty
                                           	JBSET	PFLAG,2
                                           	GOTO	_00487_DS_
                                           ;;unsigned compare: left < lit(0x800=2048), size=2
                                           	MOVAI	0x08
                                           	RSUBAR	(_adc_val + 1)
                                           	JBSET	PFLAG,2
                                           	GOTO	_00648_DS_
                                           	MOVAI	0x00
                                           	RSUBAR	_adc_val
                                           _00648_DS_
                                           	JBSET	PFLAG,0
                                           	GOTO	_00487_DS_
                                           ;;genSkipc:3291: created from rifx:013B5EFC
                                           ;	.line	860; "MC32P7351.c"	cnt++;
                                           	INCR	_adc_scan_handle_cnt_65536_93
                                           ;;unsigned compare: left < lit(0x8=8), size=1
                                           _00487_DS_
                                           ;	.line	884; "MC32P7351.c"	if (cnt >= 8)
                                           	MOVAI	0x08
                                           	RSUBAR	_adc_scan_handle_cnt_65536_93
                                           	JBSET	PFLAG,0
                                           	GOTO	_00499_DS_
                                           ;;genSkipc:3291: created from rifx:013B5EFC
                                           ;	.line	887; "MC32P7351.c"	full_charge_cnt = 0;
                                           	CLRR	_full_charge_cnt
                                           ;	.line	888; "MC32P7351.c"	over_charging_cnt = 0;
                                           	CLRR	_over_charging_cnt
                                           ;	.line	890; "MC32P7351.c"	if (FLAG_IS_DEVICE_OPEN)
                                           	JBCLR	_flag1,0
                                           	GOTO	_00494_DS_
                                           ;	.line	896; "MC32P7351.c"	LED_CHARGING_ON(); // 开启充电指示灯
                                           	BCLR	_IOP0bits,4
                                           _00494_DS_
                                           ;	.line	899; "MC32P7351.c"	PWM2EC = 1; // 开启控制升压电路的pwm
                                           	BSET	_T2CRbits,6
                                           ;	.line	900; "MC32P7351.c"	FLAG_IS_IN_CHARGING = 1;
                                           	BSET	_flag1,2
                                           ;	.line	901; "MC32P7351.c"	break;
                                           	GOTO	_00507_DS_
                                           _00499_DS_
                                           ;	.line	906; "MC32P7351.c"	key_event_handle();
                                           	CALL	_key_event_handle
                                           ;	.line	799; "MC32P7351.c"	for (i = 0; i < 10; i++)
                                           	INCR	_i
                                           	GOTO	_00505_DS_
                                           _00507_DS_
                                           ;	.line	908; "MC32P7351.c"	}
                                           	RETURN	
                                           ; exit point of _adc_scan_handle
                                           
                                           ;***
                                           ;  pBlock Stats: dbName = C
                                           ;***
                                           ;entry:  _key_event_handle	;Function start
                                           ; 2 exit points
                                           ;has an exit
                                           ;; Starting pCode block
                                           _key_event_handle	;Function start
                                           ; 2 exit points
                                           ;	.line	429; "MC32P7351.c"	if (FLAG_IS_DEVICE_OPEN)
                                           	JBSET	_flag1,0
                                           	GOTO	_00404_DS_
                                           ;	.line	432; "MC32P7351.c"	if (KEY_EVENT_MODE_HOLD == key_event)
                                           	MOVAR	_key_event
                                           	XORAI	0x03
                                           	JBSET	PFLAG,2
                                           	GOTO	_00390_DS_
                                           ;	.line	434; "MC32P7351.c"	LED_WORKING_OFF(); // 关闭电源指示灯
                                           	BSET	_IOP1bits,4
                                           ;	.line	435; "MC32P7351.c"	HEATING_OFF();     // 关闭加热
                                           	BCLR	_IOP1bits,2
                                           ;	.line	436; "MC32P7351.c"	FLAG_IS_DEVICE_OPEN = 0;
                                           	BCLR	_flag1,0
                                           ;	.line	437; "MC32P7351.c"	FLAG_IS_HEATING = 0;
                                           	BCLR	_flag1,1
                                           ;	.line	439; "MC32P7351.c"	if (flag_is_low_battery)
                                           	JBSET	_flag2,2
                                           	GOTO	_00366_DS_
                                           ;	.line	442; "MC32P7351.c"	LED_CHARGING_OFF(); // 关闭用于报警的LED
                                           	BSET	_IOP0bits,4
                                           ;	.line	443; "MC32P7351.c"	flag_is_low_battery = 0;
                                           	BCLR	_flag2,2
                                           _00366_DS_
                                           ;	.line	446; "MC32P7351.c"	mode_flag = MODE_1; // 下一次切换模式时，会变成 MODE_2
                                           	CLRR	_mode_flag
                                           ;	.line	449; "MC32P7351.c"	PWM0EC = 0;
                                           	BCLR	_T0CRbits,6
                                           ;	.line	450; "MC32P7351.c"	PWM1EC = 0;
                                           	BCLR	_T1CRbits,6
                                           	GOTO	_00405_DS_
                                           _00390_DS_
                                           ;	.line	452; "MC32P7351.c"	else if (KEY_EVENT_MODE_PRESS == key_event)
                                           	MOVAR	_key_event
                                           	XORAI	0x02
                                           	JBSET	PFLAG,2
                                           	GOTO	_00387_DS_
                                           ;	.line	454; "MC32P7351.c"	if (MODE_1 == mode_flag)
                                           	MOVAI	0x00
                                           	ORAR	_mode_flag
                                           	JBSET	PFLAG,2
                                           	GOTO	_00373_DS_
                                           ;	.line	457; "MC32P7351.c"	T0DATA = 115;
                                           	MOVAI	0x73
                                           	MOVRA	_T0DATA
                                           ;	.line	458; "MC32P7351.c"	T1DATA = 115; // 89.9%占空比
                                           	MOVAI	0x73
                                           	MOVRA	_T1DATA
                                           ;	.line	460; "MC32P7351.c"	mode_flag = MODE_2;
                                           	MOVAI	0x01
                                           	MOVRA	_mode_flag
                                           	GOTO	_00405_DS_
                                           _00373_DS_
                                           ;	.line	462; "MC32P7351.c"	else if (MODE_2 == mode_flag)
                                           	MOVAR	_mode_flag
                                           	XORAI	0x01
                                           	JBSET	PFLAG,2
                                           	GOTO	_00370_DS_
                                           ;	.line	465; "MC32P7351.c"	T0DATA = 255;
                                           	MOVAI	0xff
                                           	MOVRA	_T0DATA
                                           ;	.line	466; "MC32P7351.c"	T1DATA = 255; // 100%占空比（确保大于TxLOAD的值就可以）
                                           	MOVAI	0xff
                                           	MOVRA	_T1DATA
                                           ;	.line	468; "MC32P7351.c"	mode_flag = MODE_3;
                                           	MOVAI	0x02
                                           	MOVRA	_mode_flag
                                           	GOTO	_00405_DS_
                                           _00370_DS_
                                           ;	.line	470; "MC32P7351.c"	else if (MODE_3 == mode_flag)
                                           	MOVAR	_mode_flag
                                           	XORAI	0x02
                                           	JBSET	PFLAG,2
                                           	GOTO	_00405_DS_
                                           ;	.line	473; "MC32P7351.c"	T0DATA = 103;
                                           	MOVAI	0x67
                                           	MOVRA	_T0DATA
                                           ;	.line	474; "MC32P7351.c"	T1DATA = 103; // 80.5%占空比
                                           	MOVAI	0x67
                                           	MOVRA	_T1DATA
                                           ;	.line	475; "MC32P7351.c"	mode_flag = MODE_1;
                                           	CLRR	_mode_flag
                                           	GOTO	_00405_DS_
                                           _00387_DS_
                                           ;	.line	478; "MC32P7351.c"	else if (KEY_EVENT_HEAT_PRESS == key_event)
                                           	MOVAR	_key_event
                                           	XORAI	0x01
                                           	JBSET	PFLAG,2
                                           	GOTO	_00405_DS_
                                           ;	.line	480; "MC32P7351.c"	if (0 == FLAG_IS_HEATING)
                                           	JBCLR	_flag1,1
                                           	GOTO	_00378_DS_
                                           ;	.line	482; "MC32P7351.c"	HEATING_ON(); // 打开加热
                                           	BSET	_IOP1bits,2
                                           ;	.line	483; "MC32P7351.c"	FLAG_IS_HEATING = 1;
                                           	BSET	_flag1,1
                                           	GOTO	_00405_DS_
                                           _00378_DS_
                                           ;	.line	487; "MC32P7351.c"	HEATING_OFF(); // 关闭加热
                                           	BCLR	_IOP1bits,2
                                           ;	.line	488; "MC32P7351.c"	FLAG_IS_HEATING = 0;
                                           	BCLR	_flag1,1
                                           	GOTO	_00405_DS_
                                           _00404_DS_
                                           ;	.line	495; "MC32P7351.c"	if (KEY_EVENT_MODE_HOLD == key_event)
                                           	MOVAR	_key_event
                                           	XORAI	0x03
                                           	JBSET	PFLAG,2
                                           	GOTO	_00405_DS_
                                           ;	.line	497; "MC32P7351.c"	LED_FULL_CHARGE_OFF(); // 关闭满电指示灯
                                           	BSET	_IOP0bits,3
                                           ;	.line	498; "MC32P7351.c"	LED_CHARGING_OFF();    // 关闭充电指示灯
                                           	BSET	_IOP0bits,4
                                           ;	.line	499; "MC32P7351.c"	LED_WORKING_ON();      // 打开电源指示灯
                                           	BCLR	_IOP1bits,4
                                           ;	.line	500; "MC32P7351.c"	FLAG_IS_DEVICE_OPEN = 1;
                                           	BSET	_flag1,0
                                           ;	.line	505; "MC32P7351.c"	T0DATA = 103;
                                           	MOVAI	0x67
                                           	MOVRA	_T0DATA
                                           ;	.line	506; "MC32P7351.c"	T1DATA = 103;       // 约为 80.5%
                                           	MOVAI	0x67
                                           	MOVRA	_T1DATA
                                           ;	.line	507; "MC32P7351.c"	mode_flag = MODE_1; // 下一次切换模式时，会变成 MODE_2
                                           	CLRR	_mode_flag
                                           ;	.line	510; "MC32P7351.c"	PWM0EC = 1;
                                           	BSET	_T0CRbits,6
                                           _00405_DS_
                                           ;	.line	515; "MC32P7351.c"	key_event = KEY_EVENT_NONE;
                                           	CLRR	_key_event
                                           ;	.line	516; "MC32P7351.c"	}
                                           	RETURN	
                                           ; exit point of _key_event_handle
                                           
                                           ;***
                                           ;  pBlock Stats: dbName = C
                                           ;***
                                           ;entry:  _key_scan	;Function start
                                           ; 2 exit points
                                           ;has an exit
                                           ;; Starting pCode block
                                           _key_scan	;Function start
                                           ; 2 exit points
                                           ;	.line	318; "MC32P7351.c"	volatile u8 cur_key_id = KEY_ID_NONE;
                                           	CLRR	_key_scan_cur_key_id_65536_41
                                           ;	.line	322; "MC32P7351.c"	if (0 == KEY_MODE_PIN)
                                           	JBCLR	_IOP0bits,1
                                           	GOTO	_00240_DS_
                                           ;	.line	324; "MC32P7351.c"	cur_key_id = KEY_ID_MODE;
                                           	MOVAI	0x01
                                           	MOVRA	_key_scan_cur_key_id_65536_41
                                           	GOTO	_00241_DS_
                                           _00240_DS_
                                           ;	.line	326; "MC32P7351.c"	else if (0 == KEY_HEAT_PIN)
                                           	JBCLR	_IOP1bits,1
                                           	GOTO	_00241_DS_
                                           ;	.line	328; "MC32P7351.c"	cur_key_id = KEY_ID_HEAT;
                                           	MOVAI	0x02
                                           	MOVRA	_key_scan_cur_key_id_65536_41
                                           _00241_DS_
                                           ;	.line	331; "MC32P7351.c"	if (cur_key_id != filter_key_id)
                                           	MOVAR	_key_scan_filter_key_id_65536_41
                                           	XORAR	_key_scan_cur_key_id_65536_41
                                           	JBSET	PFLAG,2
                                           	GOTO	_00349_DS_
                                           	GOTO	_00243_DS_
                                           _00349_DS_
                                           ;	.line	334; "MC32P7351.c"	filter_cnt = 0;
                                           	CLRR	_key_scan_filter_cnt_65536_41
                                           ;	.line	335; "MC32P7351.c"	filter_key_id = cur_key_id;
                                           	MOVAR	_key_scan_cur_key_id_65536_41
                                           	MOVRA	_key_scan_filter_key_id_65536_41
                                           ;	.line	336; "MC32P7351.c"	return;
                                           	GOTO	_00279_DS_
                                           ;;unsigned compare: left < lit(0x3=3), size=1
                                           _00243_DS_
                                           ;	.line	339; "MC32P7351.c"	if (filter_cnt < KEY_FILTER_TIMES)
                                           	MOVAI	0x03
                                           	RSUBAR	_key_scan_filter_cnt_65536_41
                                           	JBCLR	PFLAG,0
                                           	GOTO	_00245_DS_
                                           ;;genSkipc:3291: created from rifx:013B5EFC
                                           ;	.line	343; "MC32P7351.c"	filter_cnt++;
                                           	INCR	_key_scan_filter_cnt_65536_41
                                           ;	.line	344; "MC32P7351.c"	return;
                                           	GOTO	_00279_DS_
                                           _00245_DS_
                                           ;	.line	349; "MC32P7351.c"	if (last_key_id != cur_key_id)
                                           	MOVAR	_key_scan_cur_key_id_65536_41
                                           	XORAR	_key_scan_last_key_id_65536_41
                                           	JBSET	PFLAG,2
                                           	GOTO	_00351_DS_
                                           	GOTO	_00277_DS_
                                           _00351_DS_
                                           ;	.line	351; "MC32P7351.c"	if (last_key_id == KEY_ID_NONE)
                                           	MOVAI	0x00
                                           	ORAR	_key_scan_last_key_id_65536_41
                                           	JBSET	PFLAG,2
                                           	GOTO	_00257_DS_
                                           ;	.line	354; "MC32P7351.c"	press_cnt = 0;
                                           	CLRR	_key_scan_press_cnt_65536_41
                                           	GOTO	_00278_DS_
                                           _00257_DS_
                                           ;	.line	356; "MC32P7351.c"	else if (cur_key_id == KEY_ID_NONE)
                                           	MOVAI	0x00
                                           	ORAR	_key_scan_cur_key_id_65536_41
                                           	JBSET	PFLAG,2
                                           	GOTO	_00278_DS_
                                           ;;unsigned compare: left < lit(0x4B=75), size=1
                                           ;	.line	359; "MC32P7351.c"	if (press_cnt < 75)
                                           	MOVAI	0x4b
                                           	RSUBAR	_key_scan_press_cnt_65536_41
                                           	JBCLR	PFLAG,0
                                           	GOTO	_00252_DS_
                                           ;;genSkipc:3291: created from rifx:013B5EFC
                                           ;	.line	362; "MC32P7351.c"	if (KEY_ID_MODE == last_key_id)
                                           	MOVAR	_key_scan_last_key_id_65536_41
                                           	XORAI	0x01
                                           	JBSET	PFLAG,2
                                           	GOTO	_00249_DS_
                                           ;	.line	365; "MC32P7351.c"	key_event = KEY_EVENT_MODE_PRESS;
                                           	MOVAI	0x02
                                           	MOVRA	_key_event
                                           	GOTO	_00278_DS_
                                           _00249_DS_
                                           ;	.line	371; "MC32P7351.c"	else if (KEY_ID_HEAT == last_key_id)
                                           	MOVAR	_key_scan_last_key_id_65536_41
                                           	XORAI	0x02
                                           	JBSET	PFLAG,2
                                           	GOTO	_00278_DS_
                                           ;	.line	374; "MC32P7351.c"	key_event = KEY_EVENT_HEAT_PRESS;
                                           	MOVAI	0x01
                                           	MOVRA	_key_event
                                           	GOTO	_00278_DS_
                                           _00252_DS_
                                           ;	.line	382; "MC32P7351.c"	flag_is_key_mode_hold = 0;
                                           	CLRR	_key_scan_flag_is_key_mode_hold_65536_41
                                           	GOTO	_00278_DS_
                                           _00277_DS_
                                           ;	.line	386; "MC32P7351.c"	else if (cur_key_id != KEY_ID_NONE)
                                           	MOVAI	0x00
                                           	ORAR	_key_scan_cur_key_id_65536_41
                                           	JBCLR	PFLAG,2
                                           	GOTO	_00278_DS_
                                           ;;unsigned compare: left < lit(0xFF=255), size=1
                                           ;	.line	389; "MC32P7351.c"	if (press_cnt < 255)
                                           	MOVAI	0xff
                                           	RSUBAR	_key_scan_press_cnt_65536_41
                                           	JBCLR	PFLAG,0
                                           	GOTO	_00260_DS_
                                           ;;genSkipc:3291: created from rifx:013B5EFC
                                           ;	.line	390; "MC32P7351.c"	press_cnt++;
                                           	INCR	_key_scan_press_cnt_65536_41
                                           _00260_DS_
                                           ;	.line	392; "MC32P7351.c"	if (FLAG_IS_DEVICE_OPEN)
                                           	JBSET	_flag1,0
                                           	GOTO	_00272_DS_
                                           ;;unsigned compare: left < lit(0xC8=200), size=1
                                           ;	.line	394; "MC32P7351.c"	if (press_cnt >= 200) // 2000ms
                                           	MOVAI	0xc8
                                           	RSUBAR	_key_scan_press_cnt_65536_41
                                           	JBSET	PFLAG,0
                                           	GOTO	_00278_DS_
                                           ;;genSkipc:3291: created from rifx:013B5EFC
                                           ;	.line	396; "MC32P7351.c"	if (flag_is_key_mode_hold)
                                           	MOVAI	0x00
                                           	ORAR	_key_scan_flag_is_key_mode_hold_65536_41
                                           	JBSET	PFLAG,2
                                           	GOTO	_00278_DS_
                                           ;	.line	401; "MC32P7351.c"	key_event = KEY_EVENT_MODE_HOLD;
                                           	MOVAI	0x03
                                           	MOVRA	_key_event
                                           ;	.line	402; "MC32P7351.c"	flag_is_key_mode_hold = 1;
                                           	MOVAI	0x01
                                           	MOVRA	_key_scan_flag_is_key_mode_hold_65536_41
                                           	GOTO	_00278_DS_
                                           ;;unsigned compare: left < lit(0x64=100), size=1
                                           _00272_DS_
                                           ;	.line	409; "MC32P7351.c"	if (press_cnt >= 100) // 1000ms加上看门狗唤醒的1024ms
                                           	MOVAI	0x64
                                           	RSUBAR	_key_scan_press_cnt_65536_41
                                           	JBSET	PFLAG,0
                                           	GOTO	_00278_DS_
                                           ;;genSkipc:3291: created from rifx:013B5EFC
                                           ;	.line	411; "MC32P7351.c"	if (flag_is_key_mode_hold)
                                           	MOVAI	0x00
                                           	ORAR	_key_scan_flag_is_key_mode_hold_65536_41
                                           	JBSET	PFLAG,2
                                           	GOTO	_00278_DS_
                                           ;	.line	416; "MC32P7351.c"	key_event = KEY_EVENT_MODE_HOLD;
                                           	MOVAI	0x03
                                           	MOVRA	_key_event
                                           ;	.line	417; "MC32P7351.c"	flag_is_key_mode_hold = 1;
                                           	MOVAI	0x01
                                           	MOVRA	_key_scan_flag_is_key_mode_hold_65536_41
                                           _00278_DS_
                                           ;	.line	423; "MC32P7351.c"	last_key_id = cur_key_id;
                                           	MOVAR	_key_scan_cur_key_id_65536_41
                                           	MOVRA	_key_scan_last_key_id_65536_41
                                           _00279_DS_
                                           ;	.line	424; "MC32P7351.c"	}
                                           	RETURN	
                                           ; exit point of _key_scan
                                           
                                           ;***
                                           ;  pBlock Stats: dbName = C
                                           ;***
                                           ;entry:  _Sys_Init	;Function start
                                           ; 2 exit points
                                           ;has an exit
                                           ;functions called:
                                           ;   _CLR_RAM
                                           ;   _IO_Init
                                           ;   _timer0_pwm_config
                                           ;   _timer1_pwm_config
                                           ;   _timer2_pwm_config
                                           ;   _timer3_config
                                           ;   _key_config
                                           ;   _adc_config
                                           ;   _CLR_RAM
                                           ;   _IO_Init
                                           ;   _timer0_pwm_config
                                           ;   _timer1_pwm_config
                                           ;   _timer2_pwm_config
                                           ;   _timer3_config
                                           ;   _key_config
                                           ;   _adc_config
                                           ;; Starting pCode block
                                           _Sys_Init	;Function start
                                           ; 2 exit points
                                           ;	.line	272; "MC32P7351.c"	GIE = 0;
                                           	BCLR	_MCRbits,7
                                           ;	.line	273; "MC32P7351.c"	CLR_RAM();
                                           	CALL	_CLR_RAM
                                           ;	.line	274; "MC32P7351.c"	IO_Init();
                                           	CALL	_IO_Init
                                           ;	.line	276; "MC32P7351.c"	timer0_pwm_config();
                                           	CALL	_timer0_pwm_config
                                           ;	.line	277; "MC32P7351.c"	timer1_pwm_config();
                                           	CALL	_timer1_pwm_config
                                           ;	.line	278; "MC32P7351.c"	timer2_pwm_config();
                                           	CALL	_timer2_pwm_config
                                           ;	.line	280; "MC32P7351.c"	timer3_config();
                                           	CALL	_timer3_config
                                           ;	.line	282; "MC32P7351.c"	key_config();
                                           	CALL	_key_config
                                           ;	.line	283; "MC32P7351.c"	adc_config();
                                           	CALL	_adc_config
                                           ;	.line	286; "MC32P7351.c"	LED_WORKING_OFF();
                                           	BSET	_IOP1bits,4
                                           ;	.line	287; "MC32P7351.c"	LED_FULL_CHARGE_OFF();
                                           	BSET	_IOP0bits,3
                                           ;	.line	288; "MC32P7351.c"	LED_CHARGING_OFF();
                                           	BSET	_IOP0bits,4
                                           ;	.line	290; "MC32P7351.c"	GIE = 1;
                                           	BSET	_MCRbits,7
                                           ;	.line	291; "MC32P7351.c"	}
                                           	RETURN	
                                           ; exit point of _Sys_Init
                                           
                                           ;***
                                           ;  pBlock Stats: dbName = C
                                           ;***
                                           ;entry:  _adc_get_val_once	;Function start
                                           ; 2 exit points
                                           ;has an exit
                                           ;7 compiler assigned registers:
                                           ;   r0x103C
                                           ;   r0x103D
                                           ;   r0x103E
                                           ;   r0x103F
                                           ;   r0x1040
                                           ;   r0x1041
                                           ;   STK00
                                           ;; Starting pCode block
                                           _adc_get_val_once	;Function start
                                           ; 2 exit points
                                           ;	.line	233; "MC32P7351.c"	ADEOC = 0; // 清除ADC转换完成标志位，启动AD转换
                                           	BCLR	_ADCR0bits,1
                                           _00228_DS_
                                           ;	.line	234; "MC32P7351.c"	while (!ADEOC)
                                           	JBSET	_ADCR0bits,1
                                           	GOTO	_00228_DS_
                                           ;	.line	236; "MC32P7351.c"	g_temp_value = ADRH; // 取出转换后的值
                                           	MOVAR	_ADRH
                                           	MOVRA	r0x103C
                                           	CLRR	r0x103D
                                           ;	.line	237; "MC32P7351.c"	g_temp_value = g_temp_value << 4 | (ADRL & 0x0F);
                                           	SWAPAR	r0x103D
                                           	ANDAI	0xf0
                                           	MOVRA	r0x103E
                                           	SWAPAR	r0x103C
                                           	MOVRA	r0x103F
                                           	ANDAI	0x0f
                                           	ORRA	r0x103E
                                           	XORRA	r0x103F
                                           	MOVAR	_ADRL
                                           	MOVRA	r0x103C
                                           	CLRR	r0x103D
                                           	MOVAI	0x0f
                                           	ANDRA	r0x103C
                                           	CLRR	r0x103D
                                           ;;101	MOVAR	r0x103C
                                           ;;99	MOVRA	r0x1040
                                           ;;104	MOVAR	r0x103D
                                           ;;102	MOVRA	r0x1041
                                           ;;100	MOVAR	r0x1040
                                           	MOVAR	r0x103C
                                           	ORRA	r0x103F
                                           ;;103	MOVAR	r0x1041
                                           	MOVAI	0x00
                                           	ORRA	r0x103E
                                           ;	.line	261; "MC32P7351.c"	return g_temp_value;
                                           	MOVAR	r0x103F
                                           	MOVRA	STK00
                                           	MOVAR	r0x103E
                                           ;	.line	262; "MC32P7351.c"	}
                                           	RETURN	
                                           ; exit point of _adc_get_val_once
                                           
                                           ;***
                                           ;  pBlock Stats: dbName = C
                                           ;***
                                           ;entry:  _adc_get_val	;Function start
                                           ; 2 exit points
                                           ;has an exit
                                           ;16 compiler assigned registers:
                                           ;   r0x103C
                                           ;   r0x103D
                                           ;   r0x103E
                                           ;   r0x103F
                                           ;   r0x1040
                                           ;   r0x1041
                                           ;   r0x1042
                                           ;   r0x1043
                                           ;   r0x1044
                                           ;   r0x1045
                                           ;   r0x1046
                                           ;   r0x1047
                                           ;   r0x1048
                                           ;   r0x1049
                                           ;   r0x104A
                                           ;   STK00
                                           ;; Starting pCode block
                                           _adc_get_val	;Function start
                                           ; 2 exit points
                                           ;	.line	180; "MC32P7351.c"	u32 g_tmpbuff = 0;
                                           	CLRR	r0x103C
                                           	CLRR	r0x103D
                                           	CLRR	r0x103E
                                           	CLRR	r0x103F
                                           ;	.line	181; "MC32P7351.c"	u16 g_adcmax = 0;
                                           	CLRR	r0x1040
                                           	CLRR	r0x1041
                                           ;	.line	182; "MC32P7351.c"	u16 g_adcmin = 0xFFFF;
                                           	MOVAI	0xff
                                           	MOVRA	r0x1042
                                           	MOVRA	r0x1043
                                           ;	.line	185; "MC32P7351.c"	for (i = 0; i < 20; i++)
                                           	CLRR	r0x1044
                                           _00182_DS_
                                           ;	.line	187; "MC32P7351.c"	ADEOC = 0; // 清除ADC转换完成标志位，启动AD转换
                                           	BCLR	_ADCR0bits,1
                                           _00171_DS_
                                           ;	.line	188; "MC32P7351.c"	while (!ADEOC)
                                           	JBSET	_ADCR0bits,1
                                           	GOTO	_00171_DS_
                                           ;	.line	190; "MC32P7351.c"	g_temp_value = ADRH; // 取出转换后的值
                                           	MOVAR	_ADRH
                                           	MOVRA	r0x1045
                                           	CLRR	r0x1046
                                           ;	.line	191; "MC32P7351.c"	g_temp_value = g_temp_value << 4 | (ADRL & 0x0F);
                                           	SWAPAR	r0x1046
                                           	ANDAI	0xf0
                                           	MOVRA	r0x1047
                                           	SWAPAR	r0x1045
                                           	MOVRA	r0x1048
                                           	ANDAI	0x0f
                                           	ORRA	r0x1047
                                           	XORRA	r0x1048
                                           	MOVAR	_ADRL
                                           	MOVRA	r0x1045
                                           	CLRR	r0x1046
                                           	MOVAI	0x0f
                                           	ANDRA	r0x1045
                                           	CLRR	r0x1046
                                           ;;120	MOVAR	r0x1045
                                           	MOVAI	0x00
                                           	MOVRA	r0x104A
                                           ;;119	MOVAR	r0x1049
                                           	MOVAR	r0x1045
                                           	MOVRA	r0x1049
                                           	ORAR	r0x1048
                                           	MOVRA	r0x1045
                                           	MOVAR	r0x104A
                                           	ORAR	r0x1047
                                           	MOVRA	r0x1046
                                           ;;unsigned compare: left < lit(0x2=2), size=1
                                           ;	.line	192; "MC32P7351.c"	if (i < 2)
                                           	MOVAI	0x02
                                           	RSUBAR	r0x1044
                                           	JBSET	PFLAG,0
                                           	GOTO	_00180_DS_
                                           ;;genSkipc:3291: created from rifx:013B5EFC
                                           ;	.line	194; "MC32P7351.c"	if (g_temp_value > g_adcmax)
                                           	MOVAR	r0x1046
                                           	RSUBAR	r0x1041
                                           	JBSET	PFLAG,2
                                           	GOTO	_00222_DS_
                                           	MOVAR	r0x1045
                                           	RSUBAR	r0x1040
                                           _00222_DS_
                                           	JBCLR	PFLAG,0
                                           	GOTO	_00177_DS_
                                           ;;genSkipc:3291: created from rifx:013B5EFC
                                           ;	.line	195; "MC32P7351.c"	g_adcmax = g_temp_value; // 最大
                                           	MOVAR	r0x1045
                                           	MOVRA	r0x1040
                                           	MOVAR	r0x1046
                                           	MOVRA	r0x1041
                                           _00177_DS_
                                           ;	.line	196; "MC32P7351.c"	if (g_temp_value < g_adcmin)
                                           	MOVAR	r0x1043
                                           	RSUBAR	r0x1046
                                           	JBSET	PFLAG,2
                                           	GOTO	_00223_DS_
                                           	MOVAR	r0x1042
                                           	RSUBAR	r0x1045
                                           _00223_DS_
                                           	JBCLR	PFLAG,0
                                           	GOTO	_00179_DS_
                                           ;;genSkipc:3291: created from rifx:013B5EFC
                                           ;	.line	197; "MC32P7351.c"	g_adcmin = g_temp_value; // 最小
                                           	MOVAR	r0x1045
                                           	MOVRA	r0x1042
                                           	MOVAR	r0x1046
                                           	MOVRA	r0x1043
                                           ;;116	MOVAR	r0x1045
                                           ;;118	MOVAR	r0x1046
                                           _00179_DS_
                                           ;	.line	198; "MC32P7351.c"	g_tmpbuff += g_temp_value;
                                           	CLRR	r0x1049
                                           	CLRR	r0x104A
                                           ;;115	MOVAR	r0x1048
                                           	MOVAR	r0x1045
                                           	MOVRA	r0x1048
                                           	ADDRA	r0x103C
                                           ;;117	MOVAR	r0x1047
                                           	MOVAR	r0x1046
                                           	MOVRA	r0x1047
                                           	JBCLR	PFLAG,0
                                           	JZAR	r0x1047
                                           	ADDRA	r0x103D
                                           	MOVAR	r0x1049
                                           	JBCLR	PFLAG,0
                                           	JZAR	r0x1049
                                           	ADDRA	r0x103E
                                           	MOVAR	r0x104A
                                           	JBCLR	PFLAG,0
                                           	JZAR	r0x104A
                                           	ADDRA	r0x103F
                                           _00180_DS_
                                           ;	.line	185; "MC32P7351.c"	for (i = 0; i < 20; i++)
                                           	INCR	r0x1044
                                           ;;unsigned compare: left < lit(0x14=20), size=1
                                           	MOVAI	0x14
                                           	RSUBAR	r0x1044
                                           	JBSET	PFLAG,0
                                           	GOTO	_00182_DS_
                                           ;;genSkipc:3291: created from rifx:013B5EFC
                                           ;;114	MOVAR	r0x1040
                                           ;	.line	200; "MC32P7351.c"	g_tmpbuff -= g_adcmax;           // 去掉一个最大
                                           	MOVAR	r0x1041
                                           	MOVRA	r0x1045
                                           	CLRR	r0x1046
                                           	CLRR	r0x1048
                                           ;;113	MOVAR	r0x1044
                                           	MOVAR	r0x1040
                                           	MOVRA	r0x1044
                                           	RSUBAR	r0x103C
                                           	MOVRA	r0x1040
                                           	MOVAR	r0x103D
                                           	MOVRA	r0x1041
                                           	MOVAR	r0x1045
                                           	JBSET	PFLAG,0
                                           	JZAR	r0x1045
                                           	RSUBRA	r0x1041
                                           	MOVAR	r0x103E
                                           	MOVRA	r0x1047
                                           	MOVAR	r0x1046
                                           	JBSET	PFLAG,0
                                           	JZAR	r0x1046
                                           	RSUBRA	r0x1047
                                           	MOVAR	r0x1048
                                           	JBSET	PFLAG,0
                                           	INCAR	r0x1048
                                           	RSUBAR	r0x103F
                                           	MOVRA	r0x1049
                                           ;;106	MOVAR	r0x1042
                                           ;;108	MOVAR	r0x1043
                                           ;	.line	201; "MC32P7351.c"	g_tmpbuff -= g_adcmin;           // 去掉一个最小
                                           	CLRR	r0x103E
                                           	CLRR	r0x103F
                                           ;;105	MOVAR	r0x103C
                                           	MOVAR	r0x1042
                                           	MOVRA	r0x103C
                                           	RSUBRA	r0x1040
                                           ;;107	MOVAR	r0x103D
                                           	MOVAR	r0x1043
                                           	MOVRA	r0x103D
                                           	JBSET	PFLAG,0
                                           	JZAR	r0x103D
                                           	RSUBRA	r0x1041
                                           	MOVAR	r0x103E
                                           	JBSET	PFLAG,0
                                           	JZAR	r0x103E
                                           	RSUBRA	r0x1047
                                           	MOVAR	r0x103F
                                           	JBSET	PFLAG,0
                                           	JZAR	r0x103F
                                           	RSUBRA	r0x1049
                                           ;	.line	202; "MC32P7351.c"	g_temp_value = (g_tmpbuff >> 4); // 除以16，取平均值
                                           	SWAPAR	r0x1040
                                           	ANDAI	0x0f
                                           	MOVRA	r0x103C
                                           	SWAPAR	r0x1041
                                           	MOVRA	r0x103D
                                           	ANDAI	0xf0
                                           	ORRA	r0x103C
                                           	XORRA	r0x103D
                                           	SWAPAR	r0x1047
                                           	MOVRA	r0x103E
                                           	ANDAI	0xf0
                                           	ORRA	r0x103D
                                           	XORRA	r0x103E
                                           	SWAPAR	r0x1049
                                           	MOVRA	r0x103F
                                           	ANDAI	0xf0
                                           	ORRA	r0x103E
                                           	XORRA	r0x103F
                                           ;;110	MOVAR	r0x103C
                                           ;;112	MOVAR	r0x103D
                                           ;;109	MOVAR	r0x1040
                                           ;	.line	226; "MC32P7351.c"	return g_temp_value;
                                           	MOVAR	r0x103C
                                           	MOVRA	r0x1040
                                           	MOVRA	STK00
                                           ;;111	MOVAR	r0x1041
                                           	MOVAR	r0x103D
                                           	MOVRA	r0x1041
                                           ;	.line	227; "MC32P7351.c"	}
                                           	RETURN	
                                           ; exit point of _adc_get_val
                                           
                                           ;***
                                           ;  pBlock Stats: dbName = C
                                           ;***
                                           ;entry:  _adc_sel_pin	;Function start
                                           ; 2 exit points
                                           ;has an exit
                                           ;functions called:
                                           ;   _delay_ms
                                           ;   _delay_ms
                                           ;2 compiler assigned registers:
                                           ;   r0x1042
                                           ;   STK00
                                           ;; Starting pCode block
                                           _adc_sel_pin	;Function start
                                           ; 2 exit points
                                           ;	.line	141; "MC32P7351.c"	void adc_sel_pin(u8 adc_pin)
                                           	MOVRA	r0x1042
                                           ;	.line	144; "MC32P7351.c"	switch (adc_pin)
                                           	MOVAR	r0x1042
                                           	XORAI	0x01
                                           	JBSET	PFLAG,2
                                           	GOTO	_00165_DS_
                                           	GOTO	_00151_DS_
                                           _00165_DS_
                                           	MOVAR	r0x1042
                                           	XORAI	0x02
                                           	JBSET	PFLAG,2
                                           	GOTO	_00166_DS_
                                           	GOTO	_00152_DS_
                                           _00166_DS_
                                           	GOTO	_00154_DS_
                                           _00151_DS_
                                           ;	.line	147; "MC32P7351.c"	ADCR0 &= ~(0x0F << 4); // 清空寄存器的通道选择位
                                           	MOVAI	0x0f
                                           	ANDRA	_ADCR0
                                           ;	.line	155; "MC32P7351.c"	break;
                                           	GOTO	_00154_DS_
                                           _00152_DS_
                                           ;	.line	158; "MC32P7351.c"	ADCR0 &= ~(0x0F << 4); // 清空寄存器的通道选择位
                                           	MOVAI	0x0f
                                           	ANDRA	_ADCR0
                                           ;	.line	159; "MC32P7351.c"	ADCR0 |= 0x01 << 4;    // AIN1--P02;
                                           	BSET	_ADCR0,4
                                           _00154_DS_
                                           ;	.line	172; "MC32P7351.c"	delay_ms(1); // 切换adc检测的引脚后，要延时一段时间，等待adc稳定，防止意料之外的检测结果
                                           	MOVAI	0x01
                                           	MOVRA	STK00
                                           	MOVAI	0x00
                                           	CALL	_delay_ms
                                           ;	.line	173; "MC32P7351.c"	}
                                           	RETURN	
                                           ; exit point of _adc_sel_pin
                                           
                                           ;***
                                           ;  pBlock Stats: dbName = C
                                           ;***
                                           ;entry:  _key_config	;Function start
                                           ; 2 exit points
                                           ;has an exit
                                           ;; Starting pCode block
                                           _key_config	;Function start
                                           ; 2 exit points
                                           ;	.line	132; "MC32P7351.c"	P11PU = 1; // 上拉
                                           	BSET	_PUP1bits,1
                                           ;	.line	133; "MC32P7351.c"	P11OE = 0; // 输入模式
                                           	BCLR	_OEP1bits,1
                                           ;	.line	136; "MC32P7351.c"	P01PU = 1; // 上拉
                                           	BSET	_PUP0bits,1
                                           ;	.line	137; "MC32P7351.c"	P01OE = 0; // 输入模式
                                           	BCLR	_OEP0bits,1
                                           ;	.line	138; "MC32P7351.c"	}
                                           	RETURN	
                                           ; exit point of _key_config
                                           
                                           ;***
                                           ;  pBlock Stats: dbName = C
                                           ;***
                                           ;entry:  _timer3_config	;Function start
                                           ; 2 exit points
                                           ;has an exit
                                           ;; Starting pCode block
                                           _timer3_config	;Function start
                                           ; 2 exit points
                                           ;	.line	122; "MC32P7351.c"	T3LOAD = 250 - 1; // FCPU 32分频后，这里是1ms触发一次中断
                                           	MOVAI	0xf9
                                           	MOVRA	_T3LOAD
                                           ;	.line	124; "MC32P7351.c"	T3CR = 0x85; // 使能定时器，时钟源选择FCPU，32分频
                                           	MOVAI	0x85
                                           	MOVRA	_T3CR
                                           ;	.line	125; "MC32P7351.c"	T3IE = 1;
                                           	BSET	_INTEbits,7
                                           ;	.line	126; "MC32P7351.c"	}
                                           	RETURN	
                                           ; exit point of _timer3_config
                                           
                                           ;***
                                           ;  pBlock Stats: dbName = C
                                           ;***
                                           ;entry:  _timer2_pwm_config	;Function start
                                           ; 2 exit points
                                           ;has an exit
                                           ;; Starting pCode block
                                           _timer2_pwm_config	;Function start
                                           ; 2 exit points
                                           ;	.line	106; "MC32P7351.c"	T2CKS0 = 1;
                                           	BSET	_T2CRbits,3
                                           ;	.line	107; "MC32P7351.c"	T2CKS1 = 0;
                                           	BCLR	_T2CRbits,4
                                           ;	.line	109; "MC32P7351.c"	TMRCKS0 = 0;
                                           	BCLR	_PWMCR1bits,3
                                           ;	.line	110; "MC32P7351.c"	TMRCKS1 = 1;
                                           	BSET	_PWMCR1bits,4
                                           ;	.line	112; "MC32P7351.c"	T2LOAD = 209; //
                                           	MOVAI	0xd1
                                           	MOVRA	_T2LOAD
                                           ;	.line	113; "MC32P7351.c"	T2DATA = 0;
                                           	CLRR	_T2DATA
                                           ;	.line	114; "MC32P7351.c"	PWM2EC = 0; // 禁止PWM输出
                                           	BCLR	_T2CRbits,6
                                           ;	.line	116; "MC32P7351.c"	T2EN = 1;
                                           	BSET	_T2CRbits,7
                                           ;	.line	117; "MC32P7351.c"	}
                                           	RETURN	
                                           ; exit point of _timer2_pwm_config
                                           
                                           ;***
                                           ;  pBlock Stats: dbName = C
                                           ;***
                                           ;entry:  _timer1_pwm_config	;Function start
                                           ; 2 exit points
                                           ;has an exit
                                           ;; Starting pCode block
                                           _timer1_pwm_config	;Function start
                                           ; 2 exit points
                                           ;	.line	94; "MC32P7351.c"	T1CR |= 0x02; // 4分频
                                           	BSET	_T1CR,1
                                           ;	.line	95; "MC32P7351.c"	T1LOAD = 128 - 1;
                                           	MOVAI	0x7f
                                           	MOVRA	_T1LOAD
                                           ;	.line	96; "MC32P7351.c"	T1DATA = 25; // 占空比 == T1DATA / T1LOAD
                                           	MOVAI	0x19
                                           	MOVRA	_T1DATA
                                           ;	.line	97; "MC32P7351.c"	PWM1EC = 0;  // 禁止PWM1输出
                                           	BCLR	_T1CRbits,6
                                           ;	.line	98; "MC32P7351.c"	T1EN = 1;    // 启动定时器
                                           	BSET	_T1CRbits,7
                                           ;	.line	99; "MC32P7351.c"	}
                                           	RETURN	
                                           ; exit point of _timer1_pwm_config
                                           
                                           ;***
                                           ;  pBlock Stats: dbName = C
                                           ;***
                                           ;entry:  _timer0_pwm_config	;Function start
                                           ; 2 exit points
                                           ;has an exit
                                           ;; Starting pCode block
                                           _timer0_pwm_config	;Function start
                                           ; 2 exit points
                                           ;	.line	81; "MC32P7351.c"	T0CR |= 0x02; // 4分频
                                           	BSET	_T0CR,1
                                           ;	.line	82; "MC32P7351.c"	T0LOAD = 128 - 1;
                                           	MOVAI	0x7f
                                           	MOVRA	_T0LOAD
                                           ;	.line	83; "MC32P7351.c"	T0DATA = 25; // 占空比 == T0DATA / T0LOAD
                                           	MOVAI	0x19
                                           	MOVRA	_T0DATA
                                           ;	.line	84; "MC32P7351.c"	PWM0EC = 0;  // 禁止PWM输出
                                           	BCLR	_T0CRbits,6
                                           ;	.line	85; "MC32P7351.c"	T0EN = 1;    // 启动定时器
                                           	BSET	_T0CRbits,7
                                           ;	.line	86; "MC32P7351.c"	}
                                           	RETURN	
                                           ; exit point of _timer0_pwm_config
                                           
                                           ;***
                                           ;  pBlock Stats: dbName = C
                                           ;***
                                           ;entry:  _adc_config	;Function start
                                           ; 2 exit points
                                           ;has an exit
                                           ;; Starting pCode block
                                           _adc_config	;Function start
                                           ; 2 exit points
                                           ;	.line	62; "MC32P7351.c"	P00OE = 0; // 输入模式
                                           	BCLR	_OEP0bits,0
                                           ;	.line	63; "MC32P7351.c"	P00DC = 1; // 模拟模式
                                           	BSET	_ADIOS0bits,0
                                           ;	.line	66; "MC32P7351.c"	P02OE = 0; // 输入模式
                                           	BCLR	_OEP0bits,2
                                           ;	.line	67; "MC32P7351.c"	P02DC = 1; // 模拟模式
                                           	BSET	_ADIOS0bits,1
                                           ;	.line	69; "MC32P7351.c"	ADCR0 = 0x0A; // 12位精度、不启用ADC转换，不使能ADC
                                           	MOVAI	0x0a
                                           	MOVRA	_ADCR0
                                           ;	.line	70; "MC32P7351.c"	ADCR1 = 0xE1; // 125K采样（最高精度）  内部3V参考电压
                                           	MOVAI	0xe1
                                           	MOVRA	_ADCR1
                                           ;	.line	71; "MC32P7351.c"	ADCR2 = 0xFF; // ADC采样时间为15个ADC时钟
                                           	MOVAI	0xff
                                           	MOVRA	_ADCR2
                                           ;	.line	72; "MC32P7351.c"	ADEN = 1;     // 使能ADC
                                           	BSET	_ADCR0bits,0
                                           ;	.line	73; "MC32P7351.c"	}
                                           	RETURN	
                                           ; exit point of _adc_config
                                           
                                           ;***
                                           ;  pBlock Stats: dbName = C
                                           ;***
                                           ;entry:  _IO_Init	;Function start
                                           ; 2 exit points
                                           ;has an exit
                                           ;; Starting pCode block
                                           _IO_Init	;Function start
                                           ; 2 exit points
                                           ;	.line	37; "MC32P7351.c"	IOP0 = 0x00;   // io口数据位
                                           	CLRR	_IOP0
                                           ;	.line	38; "MC32P7351.c"	OEP0 = 0x3F;   // io口方向 1:out  0:in
                                           	MOVAI	0x3f
                                           	MOVRA	_OEP0
                                           ;	.line	39; "MC32P7351.c"	PUP0 = 0x00;   // io口上拉电阻   1:enable  0:disable
                                           	CLRR	_PUP0
                                           ;	.line	40; "MC32P7351.c"	PDP0 = 0x00;   // io口下拉电阻   1:enable  0:disable
                                           	CLRR	_PDP0
                                           ;	.line	41; "MC32P7351.c"	ADIOS0 = 0x00; // io类型选择  1:模拟输入  0:通用io
                                           	CLRR	_ADIOS0
                                           ;	.line	43; "MC32P7351.c"	IOP1 = 0x00;   // io口数据位
                                           	CLRR	_IOP1
                                           ;	.line	44; "MC32P7351.c"	OEP1 = 0xFF;   // io口方向 1:out  0:in
                                           	MOVAI	0xff
                                           	MOVRA	_OEP1
                                           ;	.line	45; "MC32P7351.c"	PUP1 = 0x00;   // io口上拉电阻   1:enable  0:disable
                                           	CLRR	_PUP1
                                           ;	.line	46; "MC32P7351.c"	PDP1 = 0x00;   // io口下拉电阻   1:enable  0:disable
                                           	CLRR	_PDP1
                                           ;	.line	47; "MC32P7351.c"	ADIOS1 = 0x00; // io类型选择  1:模拟输入  0:通用io
                                           	CLRR	_ADIOS1
                                           ;	.line	54; "MC32P7351.c"	PMOD = 0x00;  // P00、P01、P13 io端口值从寄存器读，推挽输出
                                           	CLRR	_PMOD
                                           ;	.line	55; "MC32P7351.c"	DRVCR = 0x80; // 普通驱动
                                           	MOVAI	0x80
                                           	MOVRA	_DRVCR
                                           ;	.line	56; "MC32P7351.c"	}
                                           	RETURN	
                                           ; exit point of _IO_Init
                                           
                                           ;***
                                           ;  pBlock Stats: dbName = C
                                           ;***
                                           ;entry:  _CLR_RAM	;Function start
                                           ; 2 exit points
                                           ;has an exit
                                           ;; Starting pCode block
                                           _CLR_RAM	;Function start
                                           ; 2 exit points
                                           ;	.line	22; "MC32P7351.c"	for (FSR0 = 0; FSR0 < 0xff; FSR0++)
                                           	CLRR	_FSR0
                                           ;;unsigned compare: left < lit(0xFF=255), size=1
                                           _00118_DS_
                                           	MOVAI	0xff
                                           	RSUBAR	_FSR0
                                           	JBCLR	PFLAG,0
                                           	GOTO	_00116_DS_
                                           ;;genSkipc:3291: created from rifx:013B5EFC
                                           ;	.line	24; "MC32P7351.c"	INDF0 = 0x00;
                                           	CLRR	_INDF0
                                           ;	.line	22; "MC32P7351.c"	for (FSR0 = 0; FSR0 < 0xff; FSR0++)
                                           	INCR	_FSR0
                                           	GOTO	_00118_DS_
                                           _00116_DS_
                                           ;	.line	26; "MC32P7351.c"	FSR0 = 0xFF;
                                           	MOVAI	0xff
                                           	MOVRA	_FSR0
                                           ;	.line	27; "MC32P7351.c"	INDF0 = 0x00;
                                           	CLRR	_INDF0
                                           ;	.line	28; "MC32P7351.c"	}
                                           	RETURN	
                                           ; exit point of _CLR_RAM
                                           
                                           ;***
                                           ;  pBlock Stats: dbName = C
                                           ;***
                                           ;entry:  _delay_ms	;Function start
                                           ; 2 exit points
                                           ;has an exit
                                           ;7 compiler assigned registers:
                                           ;   r0x103C
                                           ;   STK00
                                           ;   r0x103D
                                           ;   r0x103E
                                           ;   r0x103F
                                           ;   r0x1040
                                           ;   r0x1041
                                           ;; Starting pCode block
                                           _delay_ms	;Function start
                                           ; 2 exit points
                                           ;	.line	299; "user.h"	void delay_ms(u16 xms)
                                           	MOVRA	r0x103C
                                           	MOVAR	STK00
                                           	MOVRA	r0x103D
                                           _00108_DS_
                                           ;	.line	301; "user.h"	while (xms)
                                           	MOVAR	r0x103D
                                           	ORAR	r0x103C
                                           	JBCLR	PFLAG,2
                                           	GOTO	_00111_DS_
                                           ;	.line	304; "user.h"	while (i--)
                                           	MOVAI	0x3c
                                           	MOVRA	r0x103E
                                           	MOVAI	0x02
                                           	MOVRA	r0x103F
                                           _00105_DS_
                                           	MOVAR	r0x103E
                                           	MOVRA	r0x1040
                                           	MOVAR	r0x103F
                                           	MOVRA	r0x1041
                                           	MOVAI	0xff
                                           	ADDRA	r0x103E
                                           	JBSET	PFLAG,0
                                           	DECR	r0x103F
                                           	MOVAR	r0x1040
                                           	ORAR	r0x1041
                                           	JBCLR	PFLAG,2
                                           	GOTO	_00107_DS_
                                           ;	.line	306; "user.h"	Nop();
                                           	nop	
                                           	GOTO	_00105_DS_
                                           _00107_DS_
                                           ;	.line	308; "user.h"	xms--; // 把 --操作放在while()判断条件外面，更节省空间
                                           	MOVAI	0xff
                                           	ADDRA	r0x103D
                                           	JBSET	PFLAG,0
                                           	DECR	r0x103C
                                           ;	.line	312; "user.h"	__endasm;
                                           	;
                                           	clrwdt;
                                           	
                                           	GOTO	_00108_DS_
                                           _00111_DS_
                                           ;	.line	314; "user.h"	}
                                           	RETURN	
                                           ; exit point of _delay_ms
                                           
                                           
                                           ;	code size estimation:
                                           ;	 1475+    0 =  1475 instructions ( 2950 byte)
                                           
                                           	end


MEMORY USAGE MAP ('X' = Used,  '-' = Unused)

0000 : XX-------------- XXXXXXXXXXXXXXXX XXXXXXXXXXXXXXXX XXXXXXXXXXXXXXXX
0040 : XXXXXXXXXXXXXXXX XXXXXXXXXXXXXXXX XXXXXXXXXXXXXXXX XXXXXXXXXXXXXXXX
0080 : XXXXXXXXXXXXXXXX XXXXXXXXXXXXXXXX XXXXXXXXXXXXXXXX XXXXXXXXXXXXXXXX
00C0 : XXXXXXXXXXXXXXXX XXXXXXXXXXXXXXXX XXXXXXXXXXXXXXXX XXXXXXXXXXXXXXXX
0100 : XXXXXXXXXXXXXXXX XXXXXXXXXXXXXXXX XXXXXXXXXXXXXXXX XXXXXXXXXXXXXXXX
0140 : XXXXXXXXXXXXXXXX XXXXXXXXXXXXXXXX XXXXXXXXXXXXXXXX XXXXXXXXXXXXXXXX
0180 : XXXXXXXXXXXXXXXX XXXXXXXXXXXXXXXX XXXXXXXXXXXXXXXX XXXXXXXXXXXXXXXX
01C0 : XXXXXXXXXXXXXXXX XXXXXXXXXXXXXXXX XXXXXXXXXXXXXXXX XXXXXXXXXXXXXXXX
0200 : XXXXXXXXXXXXXXXX XXXXXXXXXXXXXXXX XXXXXXXXXXXXXXXX XXXXXXXXXXXXXXXX
0240 : XXXXXXXXXXXXXXXX XXXXXXXXXXXXXXXX XXXXXXXXXXXXXXXX XXXXXXXXXXXXXXXX
0280 : XXXXXXXXXXXXXXXX XXXXXXXXXXXXXXXX XXXXXXXXXXXXXXXX XXXXXXXXXXXXXXXX
02C0 : XXXXXXXXXXXXXXXX XXXXXXXXXXXXXXXX XXXXXXXXXXXXXXXX XXXXXXXXXXXXXXXX
0300 : XXXXXXXXXXXXXXXX XXXXXXXXXXXXXXXX XXXXXXXXXXXXXXXX XXXXXXXXXXXXXXXX
0340 : XXXXXXXXXXXXXXXX XXXXXXXXXXXXXXXX XXXXXXXXXXXXXXXX XXXXXXXXXXXXXXXX
0380 : XXXXXXXXXXXXXXXX XXXXXXXXXXXXXXXX XXXXXXXXXXXXXXXX XXXXXXXXXXXXXXXX
03C0 : XXXXXXXXXXXXXXXX XXXXXXXXXXXXXXXX XXXXXXXXXXXXXXXX XXXXXXXXXXXXXXXX
0400 : XXXXXXXXXXXXXXXX XXXXXXXXXXXXXXXX XXXXXXXXXXXXXXXX XXXXXXXXXXXXXXXX
0440 : XXXXXXXXXXXXXXXX XXXXXXXXXXXXXXXX XXXXXXXXXXXXXXXX XXXXXXXXXXXXXXXX
0480 : XXXXXXXXXXXXXXXX XXXXXXXXXXXXXXXX XXXXXXXXXXXXXXXX XXXXXXXXXXXXXXXX
04C0 : XXXXXXXXXXXXXXXX XXXXXXXXXXXXXXXX XXXXXXXXXXXXXXXX XXXXXXXXXXXXXXXX
0500 : XXXXXXXXXXXXXXXX XXXXXXXXXXXXXXXX XXXXXXXXXXXXXXXX XXXXXXXXXXXXXXXX
0540 : XXXXXXXXXXXXXXXX XXXXXXXXXXXXXXXX XXXXXXXXXXXXXXXX XXXXXXXXXXXXXXXX
0580 : XXXXXXXXXXXXXXXX XXXXXXXXXXXXXXXX XXXXXXXXXXXXXXXX XXXXXXXXXXXXXXXX
05C0 : XXXXXXXXXXXXXXXX XXXXXXXXXXXXXXXX XXXXXXXXXXXXXXXX XXXXXXXXXXXXXXXX
0600 : XXXXXXXXXXXXXXXX XXXXXXXXXXXXXXXX XXXXXXXXXXXXXXXX XXXXXXXXXXXXXXXX
0640 : XXXXXXXXXXXXXXXX XXXXXXXXXXXXXXXX XXXXXXXXXXXXXXXX XXXXXXXXXXXXXXXX
0680 : XXXXXXXXXXXXXXXX XXXXXXXXXXXXXXXX XXXXXXXXXXXXXXXX XXXXXXXXXXXXXXXX
06C0 : XXXXXXXXXXXXXXXX XXXXXXXXXXXXXXXX XXXXXXXXXXXXXXXX XXXXXXXXXXXXXXXX
0700 : XXXXXXXXXXXXXXXX XXXXXXXXXXXXXXXX XXXXXXXXXXXXXXXX XXXXXXXXXXXXXXXX
0740 : XXXXXXXXXXXXXXXX XXXXXXXXXXXXXXXX XXXXXXXXXXXXXXXX XXXXXXXXXXXXXXXX
0780 : XXXXXXXXXXXXXXXX XXXXXXXXXXXXXXXX XXXXXXXXXXXXXXXX XXXXXXXXXXXXXXXX
07C0 : XXXXXXXXXXXXXXXX XXXXXXXXXXXXXXXX XXXXXXXXXXXXXXXX XXXXXXXXXXXXXXXX
0800 : XXXXXXXXXXXXXXXX XXXXXXXXXXXXXXXX XXXXXXXXXXXXXXXX XXXXXXXXXXXXXXXX
0840 : XXXXXXXXXXXXXXXX XXXXXXXXXXXXXXXX XXXXXXXXXXXXXXXX XXXXXXXXXXXXXXXX
0880 : XXXXXXXXXXXXXXXX XXXXXXXXXXXXXXXX XXXXXXXXXXXXXXXX XXXXXXXXXXXXXXXX
08C0 : XXXXXXXXXXXXXXXX XXXXXXXXXXXXXXXX XXXXXXXXXXXXXXXX XXXXXXXXXXXXXXXX
0900 : XXXXXXXXXXXXXXXX XXXXXXXXXXXXXXXX XXXXXXXXXXXXXXXX XXXXXXXXXXXXXXXX
0940 : XXXXXXXXXXXXXXXX XXXXXXXXXXXXXXXX XXXXXXXXXXXXXXXX XXXXXXXXXXXXXXXX
0980 : XXXXXXXXXXXXXXXX XXXXXXXXXXXXXXXX XXXXXXXXXXXXXXXX XXXXXXXXXXXXXXXX
09C0 : XXXXXXXXXXXXXXXX XXXXXXXXXXXXXXXX XXXXXXXXXXXXXXXX XXXXXXXXXXXXXXXX
0A00 : XXXXXXXXXXXXXXXX XXXXXXXXXXXXXXXX XXXXXXXXXXXXXXXX XXXXXXXXXXXXXXXX
0A40 : XXXXXXXXXXXXXXXX XXXXXXXXXXXXXXXX XXXXXXXXXXXXXXXX XXXXXXXXXXXXXXXX
0A80 : XXXXXXXXXXXXXXXX XXXXXXXXXXXXXXXX XXXXXXXXXXXXXXXX XXXXXXXXXXXXXXXX
0AC0 : XXXXXXXXXXXXXXXX XXXXXXXXXXXXXXXX XXXXXXXXXXXXXXXX XXXXXXXXXXXXXXXX
0B00 : XXXXXXXXXXXXXXXX XXXXXXXXXXXXXXXX XXXXXXXXXXXXXXXX XXXXXXXXXXXXXXXX
0B40 : XXXXXXXXXXXXXXXX XXXXXXXXXXXXXXXX XXXXXXXXXXXXXXXX XXXXXXXXXXXXXXXX
0B80 : XXXXXXXXXXXXXXXX XXXXXXXXXXXXXXXX XXXXXXXXXXXXXXXX XXXXXXXXXXXXXXXX
0BC0 : XXXXXXXXXXXXXXXX XXXXXXXXXXXXXXXX XXXXXXXXXXXXXXXX XXXXXXXXXXXXXXXX
0C00 : XXXXXXXXXXXXXXXX XXXXXXXXXXXXXXXX XXXXXXXXXXXXXXXX XXXXXXXXXXXXXXXX
0C40 : XXXXXXXXXXXXXXXX XXXXXXXXXXXXXXXX XXXXXXXXXXXXXXXX XXXXXXXXXXXXXXXX
0C80 : XXXXXXXXXXXXXXXX XXXXXXXXXXXXXXXX XXXXXXXXXXXXXXXX XXXXXXXXXXXXXXXX
0CC0 : XXXXXXXXXXXXXXXX XXXXXXXXXXXXXXXX XXXXXXXXXXXXXXXX XXXXXXXXXXXXXXXX
0D00 : XXXXXXXXXXXXXXXX XXXXXXXXXXXXXXXX XXXXXXXXXXXXXXXX XXXXXXXXXXXXXXXX
0D40 : XXXXXXXXXXXXXXXX XXXXXXXXXXXXXXXX XXXXXXXXXXXXXXXX XXXXXXXXXXXXXXXX
0D80 : XXXXXXXXXXXXXXXX XXXXXXXXXXXXXXXX XXXXXXXXXXXXXXXX XXXXXXXXXX------

All other memory blocks unused.

Program Memory Words Used:  1750

