gplink-2.2.37 (Jan 22 2024)
Listing File Generated: 2025-1-7  16:34:44
 
 
Address  Value    Disassembly              Source
-------  -----    -----------              ------
                                           ;--------------------------------------------------------
                                           ; external declarations
                                           ;--------------------------------------------------------
                                           	extern	__mullong
                                           	extern	__divulong
                                           	extern	_INDF0bits
                                           	extern	_INDF1bits
                                           	extern	_INDF2bits
                                           	extern	_HIBYTEbits
                                           	extern	_FSR0bits
                                           	extern	_FSR1bits
                                           	extern	_PCLbits
                                           	extern	_PFLAGbits
                                           	extern	_MCRbits
                                           	extern	_INDF3bits
                                           	extern	_INTEbits
                                           	extern	_INTFbits
                                           	extern	_DRVCRbits
                                           	extern	_PFRCCRbits
                                           	extern	_P1KBCRbits
                                           	extern	_PFRCCALbits
                                           	extern	_IOP0bits
                                           	extern	_OEP0bits
                                           	extern	_PUP0bits
                                           	extern	_PDP0bits
                                           	extern	_IOP1bits
                                           	extern	_OEP1bits
                                           	extern	_PUP1bits
                                           	extern	_PDP1bits
                                           	extern	_T0CRbits
                                           	extern	_T0CNTbits
                                           	extern	_T0LOADbits
                                           	extern	_T0DATAbits
                                           	extern	_T1CRbits
                                           	extern	_T1CNTbits
                                           	extern	_T1LOADbits
                                           	extern	_T1DATAbits
                                           	extern	_T2CRbits
                                           	extern	_T2CNTbits
                                           	extern	_T2LOADbits
                                           	extern	_T2DATAbits
                                           	extern	_T3CRbits
                                           	extern	_T3CNTbits
                                           	extern	_T3LOADbits
                                           	extern	_PWM0DRbits
                                           	extern	_PWM1DRbits
                                           	extern	_PWM2DRbits
                                           	extern	_PWMCR0bits
                                           	extern	_PWMCR1bits
                                           	extern	_OSCMRbits
                                           	extern	_LVDCRbits
                                           	extern	_ADCR0bits
                                           	extern	_ADCR1bits
                                           	extern	_ADCR2bits
                                           	extern	_OSADJCRbits
                                           	extern	_ADRHbits
                                           	extern	_ADRLbits
                                           	extern	_ADIOS0bits
                                           	extern	_ADIOS1bits
                                           	extern	_PMODbits
                                           	extern	_PWMCR3bits
                                           	extern	_PWMCR2bits
                                           	extern	_PFRCAUXbits
                                           	extern	_HIRCCALbits
                                           	extern	_INDF0
                                           	extern	_INDF1
                                           	extern	_INDF2
                                           	extern	_HIBYTE
                                           	extern	_FSR0
                                           	extern	_FSR1
                                           	extern	_PCL
                                           	extern	_PFLAG
                                           	extern	_MCR
                                           	extern	_INDF3
                                           	extern	_INTE
                                           	extern	_INTF
                                           	extern	_DRVCR
                                           	extern	_PFRCCR
                                           	extern	_P1KBCR
                                           	extern	_PFRCCAL
                                           	extern	_IOP0
                                           	extern	_OEP0
                                           	extern	_PUP0
                                           	extern	_PDP0
                                           	extern	_IOP1
                                           	extern	_OEP1
                                           	extern	_PUP1
                                           	extern	_PDP1
                                           	extern	_T0CR
                                           	extern	_T0CNT
                                           	extern	_T0LOAD
                                           	extern	_T0DATA
                                           	extern	_T1CR
                                           	extern	_T1CNT
                                           	extern	_T1LOAD
                                           	extern	_T1DATA
                                           	extern	_T2CR
                                           	extern	_T2CNT
                                           	extern	_T2LOAD
                                           	extern	_T2DATA
                                           	extern	_T3CR
                                           	extern	_T3CNT
                                           	extern	_T3LOAD
                                           	extern	_PWM0DR
                                           	extern	_PWM1DR
                                           	extern	_PWM2DR
                                           	extern	_PWMCR0
                                           	extern	_PWMCR1
                                           	extern	_OSCMR
                                           	extern	_LVDCR
                                           	extern	_ADCR0
                                           	extern	_ADCR1
                                           	extern	_ADCR2
                                           	extern	_OSADJCR
                                           	extern	_ADRH
                                           	extern	_ADRL
                                           	extern	_ADIOS0
                                           	extern	_ADIOS1
                                           	extern	_PMOD
                                           	extern	_PWMCR3
                                           	extern	_PWMCR2
                                           	extern	_PFRCAUX
                                           	extern	_HIRCCAL
                                           ;--------------------------------------------------------
                                           ; global declarations
                                           ;--------------------------------------------------------
                                           	global	_delay_ms
                                           	global	_CLR_RAM
                                           	global	_IO_Init
                                           	global	_adc_config
                                           	global	_timer0_pwm_config
                                           	global	_timer1_pwm_config
                                           	global	_timer2_pwm_config
                                           	global	_timer3_config
                                           	global	_key_config
                                           	global	_adc_sel_pin
                                           	global	_adc_get_val
                                           	global	_adc_get_val_once
                                           	global	_Sys_Init
                                           	global	_key_scan_handle
                                           	global	_adc_scan_handle
                                           	global	_turn_dir_scan_handle
                                           	global	_shutdown_scan_handle
                                           	global	_low_power_scan_handle
                                           	global	_main
                                           	global	_int_isr
                                           	global	_flag1
                                           	global	_flag2
                                           	global	_mode_flag
                                           	global	_key_press_flag
                                           	global	_i
                                           	global	_adc_val
                                           	global	_turn_dir_ms_cnt
                                           	global	_shut_down_ms_cnt
                                           	global	_adc_bat_val
                                           	global	_adc_charging_val
                                           	global	_max_pwm_val
                                           	global	_last_pwm_val
                                           	global	_tmp_val
                                           	global	_tmp_val_l
                                           	global	_tmp_val_cnt
                                           	global	_flag_bat_is_empty
                                           	global	_tmp_bat_val
                                           	global	_over_charging_cnt
                                           	global	_full_charge_cnt
                                           	global	_abuf
                                           	global	_statusbuf
                                           
                                           	global STK06
                                           	global STK05
                                           	global STK04
                                           	global STK03
                                           	global STK02
                                           	global STK01
                                           	global STK00
                                           
                                           sharebank udata_ovr 0x0000
                                           STK06	res 1
                                           STK05	res 1
                                           STK04	res 1
                                           STK03	res 1
                                           STK02	res 1
                                           STK01	res 1
                                           STK00	res 1
                                           
                                           ;--------------------------------------------------------
                                           ; global definitions
                                           ;--------------------------------------------------------
                                           UD_MC32P7351_0	udata
                                           _flag1	res	1
                                           
                                           UD_MC32P7351_1	udata
                                           _flag2	res	1
                                           
                                           UD_MC32P7351_2	udata
                                           _mode_flag	res	1
                                           
                                           UD_MC32P7351_3	udata
                                           _key_press_flag	res	1
                                           
                                           UD_MC32P7351_4	udata
                                           _i	res	1
                                           
                                           UD_MC32P7351_5	udata
                                           _adc_val	res	2
                                           
                                           UD_MC32P7351_6	udata
                                           _turn_dir_ms_cnt	res	4
                                           
                                           UD_MC32P7351_7	udata
                                           _shut_down_ms_cnt	res	4
                                           
                                           UD_MC32P7351_8	udata
                                           _adc_bat_val	res	4
                                           
                                           UD_MC32P7351_9	udata
                                           _adc_charging_val	res	2
                                           
                                           UD_MC32P7351_10	udata
                                           _max_pwm_val	res	4
                                           
                                           UD_MC32P7351_11	udata
                                           _last_pwm_val	res	2
                                           
                                           UD_MC32P7351_12	udata
                                           _tmp_val	res	2
                                           
                                           UD_MC32P7351_13	udata
                                           _tmp_val_l	res	16
                                           
                                           UD_MC32P7351_14	udata
                                           _tmp_val_cnt	res	1
                                           
                                           UD_MC32P7351_15	udata
                                           _flag_bat_is_empty	res	1
                                           
                                           UD_MC32P7351_16	udata
                                           _tmp_bat_val	res	2
                                           
                                           UD_MC32P7351_17	udata
                                           _over_charging_cnt	res	1
                                           
                                           UD_MC32P7351_18	udata
                                           _full_charge_cnt	res	1
                                           
                                           UD_MC32P7351_19	udata
                                           _abuf	res	1
                                           
                                           UD_MC32P7351_20	udata
                                           _statusbuf	res	1
                                           
                                           ;--------------------------------------------------------
                                           ; absolute symbol definitions
                                           ;--------------------------------------------------------
                                           ;--------------------------------------------------------
                                           ; compiler-defined variables
                                           ;--------------------------------------------------------
                                           UDL_MC32P7351_0	udata
                                           r0x1036	res	1
                                           r0x1035	res	1
                                           r0x1037	res	1
                                           r0x1038	res	1
                                           r0x1039	res	1
                                           r0x103A	res	1
                                           r0x103B	res	1
                                           r0x103C	res	1
                                           r0x103D	res	1
                                           r0x103E	res	1
                                           r0x103F	res	1
                                           r0x1041	res	1
                                           r0x1040	res	1
                                           r0x1042	res	1
                                           r0x1043	res	1
                                           r0x1044	res	1
                                           r0x1045	res	1
                                           r0x1047	res	1
                                           r0x1046	res	1
                                           r0x1048	res	1
                                           r0x1049	res	1
                                           r0x104A	res	1
                                           r0x104B	res	1
                                           r0x104C	res	1
                                           r0x104D	res	1
                                           r0x104E	res	1
                                           r0x104F	res	1
                                           _key_scan_handle_flag_is_key_mode_hold_131072_36	res	1
                                           _adc_scan_handle_cnt_65536_73	res	1
                                           _adc_scan_handle_need_charge_cnt_65536_73	res	1
                                           ;--------------------------------------------------------
                                           ; initialized data
                                           ;--------------------------------------------------------
                                           
                                           ;@Allocation info for local variables in function 'delay_ms'
                                           ;@delay_ms delay_ms                  Allocated to registers ;size:2
                                           ;@delay_ms INDF0bits                 Allocated to registers ;size:1
                                           ;@delay_ms INDF1bits                 Allocated to registers ;size:1
                                           ;@delay_ms INDF2bits                 Allocated to registers ;size:1
                                           ;@delay_ms HIBYTEbits                Allocated to registers ;size:1
                                           ;@delay_ms FSR0bits                  Allocated to registers ;size:1
                                           ;@delay_ms FSR1bits                  Allocated to registers ;size:1
                                           ;@delay_ms PCLbits                   Allocated to registers ;size:1
                                           ;@delay_ms PFLAGbits                 Allocated to registers ;size:1
                                           ;@delay_ms MCRbits                   Allocated to registers ;size:1
                                           ;@delay_ms INDF3bits                 Allocated to registers ;size:1
                                           ;@delay_ms INTEbits                  Allocated to registers ;size:1
                                           ;@delay_ms INTFbits                  Allocated to registers ;size:1
                                           ;@delay_ms DRVCRbits                 Allocated to registers ;size:1
                                           ;@delay_ms PFRCCRbits                Allocated to registers ;size:1
                                           ;@delay_ms P1KBCRbits                Allocated to registers ;size:1
                                           ;@delay_ms PFRCCALbits               Allocated to registers ;size:1
                                           ;@delay_ms IOP0bits                  Allocated to registers ;size:1
                                           ;@delay_ms OEP0bits                  Allocated to registers ;size:1
                                           ;@delay_ms PUP0bits                  Allocated to registers ;size:1
                                           ;@delay_ms PDP0bits                  Allocated to registers ;size:1
                                           ;@delay_ms IOP1bits                  Allocated to registers ;size:1
                                           ;@delay_ms OEP1bits                  Allocated to registers ;size:1
                                           ;@delay_ms PUP1bits                  Allocated to registers ;size:1
                                           ;@delay_ms PDP1bits                  Allocated to registers ;size:1
                                           ;@delay_ms T0CRbits                  Allocated to registers ;size:1
                                           ;@delay_ms T0CNTbits                 Allocated to registers ;size:1
                                           ;@delay_ms T0LOADbits                Allocated to registers ;size:1
                                           ;@delay_ms T0DATAbits                Allocated to registers ;size:1
                                           ;@delay_ms T1CRbits                  Allocated to registers ;size:1
                                           ;@delay_ms T1CNTbits                 Allocated to registers ;size:1
                                           ;@delay_ms T1LOADbits                Allocated to registers ;size:1
                                           ;@delay_ms T1DATAbits                Allocated to registers ;size:1
                                           ;@delay_ms T2CRbits                  Allocated to registers ;size:1
                                           ;@delay_ms T2CNTbits                 Allocated to registers ;size:1
                                           ;@delay_ms T2LOADbits                Allocated to registers ;size:1
                                           ;@delay_ms T2DATAbits                Allocated to registers ;size:1
                                           ;@delay_ms T3CRbits                  Allocated to registers ;size:1
                                           ;@delay_ms T3CNTbits                 Allocated to registers ;size:1
                                           ;@delay_ms T3LOADbits                Allocated to registers ;size:1
                                           ;@delay_ms PWM0DRbits                Allocated to registers ;size:1
                                           ;@delay_ms PWM1DRbits                Allocated to registers ;size:1
                                           ;@delay_ms PWM2DRbits                Allocated to registers ;size:1
                                           ;@delay_ms PWMCR0bits                Allocated to registers ;size:1
                                           ;@delay_ms PWMCR1bits                Allocated to registers ;size:1
                                           ;@delay_ms OSCMRbits                 Allocated to registers ;size:1
                                           ;@delay_ms LVDCRbits                 Allocated to registers ;size:1
                                           ;@delay_ms ADCR0bits                 Allocated to registers ;size:1
                                           ;@delay_ms ADCR1bits                 Allocated to registers ;size:1
                                           ;@delay_ms ADCR2bits                 Allocated to registers ;size:1
                                           ;@delay_ms OSADJCRbits               Allocated to registers ;size:1
                                           ;@delay_ms ADRHbits                  Allocated to registers ;size:1
                                           ;@delay_ms ADRLbits                  Allocated to registers ;size:1
                                           ;@delay_ms ADIOS0bits                Allocated to registers ;size:1
                                           ;@delay_ms ADIOS1bits                Allocated to registers ;size:1
                                           ;@delay_ms PMODbits                  Allocated to registers ;size:1
                                           ;@delay_ms PWMCR3bits                Allocated to registers ;size:1
                                           ;@delay_ms PWMCR2bits                Allocated to registers ;size:1
                                           ;@delay_ms PFRCAUXbits               Allocated to registers ;size:1
                                           ;@delay_ms HIRCCALbits               Allocated to registers ;size:1
                                           ;@delay_ms flag1                     Allocated to registers ;size:1
                                           ;@delay_ms flag2                     Allocated to registers ;size:1
                                           ;@delay_ms mode_flag                 Allocated to registers ;size:1
                                           ;@delay_ms key_press_flag            Allocated to registers ;size:1
                                           ;@delay_ms i                         Allocated to registers ;size:1
                                           ;@delay_ms adc_val                   Allocated to registers ;size:2
                                           ;@delay_ms turn_dir_ms_cnt           Allocated to registers ;size:4
                                           ;@delay_ms shut_down_ms_cnt          Allocated to registers ;size:4
                                           ;@delay_ms adc_bat_val               Allocated to registers ;size:4
                                           ;@delay_ms adc_charging_val          Allocated to registers ;size:2
                                           ;@delay_ms max_pwm_val               Allocated to registers ;size:4
                                           ;@delay_ms last_pwm_val              Allocated to registers ;size:2
                                           ;@delay_ms tmp_val                   Allocated to registers ;size:2
                                           ;@delay_ms tmp_val_l                 Allocated to registers ;size:16
                                           ;@delay_ms tmp_val_cnt               Allocated to registers ;size:1
                                           ;@delay_ms flag_bat_is_empty         Allocated to registers ;size:1
                                           ;@delay_ms tmp_bat_val               Allocated to registers ;size:2
                                           ;@delay_ms over_charging_cnt         Allocated to registers ;size:1
                                           ;@delay_ms full_charge_cnt           Allocated to registers ;size:1
                                           ;@delay_ms abuf                      Allocated to registers ;size:1
                                           ;@delay_ms statusbuf                 Allocated to registers ;size:1
                                           ;@delay_ms xms                       Allocated to registers ;size:2
                                           ;@delay_ms i                         Allocated to registers r0x1037 r0x1038 ;size:2
                                           ;@delay_ms INDF0                     Allocated to registers ;size:1
                                           ;@delay_ms INDF1                     Allocated to registers ;size:1
                                           ;@delay_ms INDF2                     Allocated to registers ;size:1
                                           ;@delay_ms HIBYTE                    Allocated to registers ;size:1
                                           ;@delay_ms FSR0                      Allocated to registers ;size:1
                                           ;@delay_ms FSR1                      Allocated to registers ;size:1
                                           ;@delay_ms PCL                       Allocated to registers ;size:1
                                           ;@delay_ms PFLAG                     Allocated to registers ;size:1
                                           ;@delay_ms MCR                       Allocated to registers ;size:1
                                           ;@delay_ms INDF3                     Allocated to registers ;size:1
                                           ;@delay_ms INTE                      Allocated to registers ;size:1
                                           ;@delay_ms INTF                      Allocated to registers ;size:1
                                           ;@delay_ms DRVCR                     Allocated to registers ;size:1
                                           ;@delay_ms PFRCCR                    Allocated to registers ;size:1
                                           ;@delay_ms P1KBCR                    Allocated to registers ;size:1
                                           ;@delay_ms PFRCCAL                   Allocated to registers ;size:1
                                           ;@delay_ms IOP0                      Allocated to registers ;size:1
                                           ;@delay_ms OEP0                      Allocated to registers ;size:1
                                           ;@delay_ms PUP0                      Allocated to registers ;size:1
                                           ;@delay_ms PDP0                      Allocated to registers ;size:1
                                           ;@delay_ms IOP1                      Allocated to registers ;size:1
                                           ;@delay_ms OEP1                      Allocated to registers ;size:1
                                           ;@delay_ms PUP1                      Allocated to registers ;size:1
                                           ;@delay_ms PDP1                      Allocated to registers ;size:1
                                           ;@delay_ms T0CR                      Allocated to registers ;size:1
                                           ;@delay_ms T0CNT                     Allocated to registers ;size:1
                                           ;@delay_ms T0LOAD                    Allocated to registers ;size:1
                                           ;@delay_ms T0DATA                    Allocated to registers ;size:1
                                           ;@delay_ms T1CR                      Allocated to registers ;size:1
                                           ;@delay_ms T1CNT                     Allocated to registers ;size:1
                                           ;@delay_ms T1LOAD                    Allocated to registers ;size:1
                                           ;@delay_ms T1DATA                    Allocated to registers ;size:1
                                           ;@delay_ms T2CR                      Allocated to registers ;size:1
                                           ;@delay_ms T2CNT                     Allocated to registers ;size:1
                                           ;@delay_ms T2LOAD                    Allocated to registers ;size:1
                                           ;@delay_ms T2DATA                    Allocated to registers ;size:1
                                           ;@delay_ms T3CR                      Allocated to registers ;size:1
                                           ;@delay_ms T3CNT                     Allocated to registers ;size:1
                                           ;@delay_ms T3LOAD                    Allocated to registers ;size:1
                                           ;@delay_ms PWM0DR                    Allocated to registers ;size:1
                                           ;@delay_ms PWM1DR                    Allocated to registers ;size:1
                                           ;@delay_ms PWM2DR                    Allocated to registers ;size:1
                                           ;@delay_ms PWMCR0                    Allocated to registers ;size:1
                                           ;@delay_ms PWMCR1                    Allocated to registers ;size:1
                                           ;@delay_ms OSCMR                     Allocated to registers ;size:1
                                           ;@delay_ms LVDCR                     Allocated to registers ;size:1
                                           ;@delay_ms ADCR0                     Allocated to registers ;size:1
                                           ;@delay_ms ADCR1                     Allocated to registers ;size:1
                                           ;@delay_ms ADCR2                     Allocated to registers ;size:1
                                           ;@delay_ms OSADJCR                   Allocated to registers ;size:1
                                           ;@delay_ms ADRH                      Allocated to registers ;size:1
                                           ;@delay_ms ADRL                      Allocated to registers ;size:1
                                           ;@delay_ms ADIOS0                    Allocated to registers ;size:1
                                           ;@delay_ms ADIOS1                    Allocated to registers ;size:1
                                           ;@delay_ms PMOD                      Allocated to registers ;size:1
                                           ;@delay_ms PWMCR3                    Allocated to registers ;size:1
                                           ;@delay_ms PWMCR2                    Allocated to registers ;size:1
                                           ;@delay_ms PFRCAUX                   Allocated to registers ;size:1
                                           ;@delay_ms HIRCCAL                   Allocated to registers ;size:1
                                           ;@end Allocation info for local variables in function 'delay_ms';
                                           ;@Allocation info for local variables in function 'CLR_RAM'
                                           ;@end Allocation info for local variables in function 'CLR_RAM';
                                           ;@Allocation info for local variables in function 'IO_Init'
                                           ;@end Allocation info for local variables in function 'IO_Init';
                                           ;@Allocation info for local variables in function 'adc_config'
                                           ;@end Allocation info for local variables in function 'adc_config';
                                           ;@Allocation info for local variables in function 'timer0_pwm_config'
                                           ;@end Allocation info for local variables in function 'timer0_pwm_config';
                                           ;@Allocation info for local variables in function 'timer1_pwm_config'
                                           ;@end Allocation info for local variables in function 'timer1_pwm_config';
                                           ;@Allocation info for local variables in function 'timer2_pwm_config'
                                           ;@end Allocation info for local variables in function 'timer2_pwm_config';
                                           ;@Allocation info for local variables in function 'timer3_config'
                                           ;@end Allocation info for local variables in function 'timer3_config';
                                           ;@Allocation info for local variables in function 'key_config'
                                           ;@end Allocation info for local variables in function 'key_config';
                                           ;@Allocation info for local variables in function 'adc_sel_pin'
                                           ;@adc_sel_pin adc_pin                   Allocated to registers r0x103B ;size:1
                                           ;@end Allocation info for local variables in function 'adc_sel_pin';
                                           ;@Allocation info for local variables in function 'adc_get_val'
                                           ;@adc_get_val i                         Allocated to registers r0x103D ;size:1
                                           ;@adc_get_val g_temp_value              Allocated to registers r0x103E r0x103F ;size:2
                                           ;@adc_get_val g_tmpbuff                 Allocated to registers r0x1039 r0x103A r0x1040 r0x1042 ;size:4
                                           ;@adc_get_val g_adcmax                  Allocated to registers r0x1039 r0x103A ;size:2
                                           ;@adc_get_val g_adcmin                  Allocated to registers r0x103B r0x103C ;size:2
                                           ;@end Allocation info for local variables in function 'adc_get_val';
                                           ;@Allocation info for local variables in function 'adc_get_val_once'
                                           ;@adc_get_val_once g_temp_value              Allocated to registers r0x1038 r0x1037 ;size:2
                                           ;@end Allocation info for local variables in function 'adc_get_val_once';
                                           ;@Allocation info for local variables in function 'Sys_Init'
                                           ;@end Allocation info for local variables in function 'Sys_Init';
                                           ;@Allocation info for local variables in function 'key_scan_handle'
                                           ;@key_scan_handle flag_is_key_mode_hold     Allocated to registers ;size:1
                                           ;@key_scan_handle press_cnt                 Allocated to registers r0x103B r0x103C ;size:2
                                           ;@key_scan_handle press_cnt                 Allocated to registers r0x103B r0x103C ;size:2
                                           ;@end Allocation info for local variables in function 'key_scan_handle';
                                           ;@Allocation info for local variables in function 'key_scan_handle'
                                           ;@key_scan_handle flag_is_key_mode_hold     Allocated to registers ;size:1
                                           ;@key_scan_handle press_cnt                 Allocated to registers r0x103B r0x103C ;size:2
                                           ;@key_scan_handle press_cnt                 Allocated to registers r0x103B r0x103C ;size:2
                                           ;@end Allocation info for local variables in function 'key_scan_handle';
                                           ;@Allocation info for local variables in function 'adc_scan_handle'
                                           ;@adc_scan_handle cnt                       Allocated to registers ;size:1
                                           ;@adc_scan_handle need_charge_cnt           Allocated to registers ;size:1
                                           ;@end Allocation info for local variables in function 'adc_scan_handle';
                                           ;@Allocation info for local variables in function 'turn_dir_scan_handle'
                                           ;@end Allocation info for local variables in function 'turn_dir_scan_handle';
                                           ;@Allocation info for local variables in function 'shutdown_scan_handle'
                                           ;@end Allocation info for local variables in function 'shutdown_scan_handle';
                                           ;@Allocation info for local variables in function 'low_power_scan_handle'
                                           ;@end Allocation info for local variables in function 'low_power_scan_handle';
                                           ;@Allocation info for local variables in function 'main'
                                           ;@end Allocation info for local variables in function 'main';
                                           ;@Allocation info for local variables in function 'int_isr'
                                           ;@end Allocation info for local variables in function 'int_isr';
                                           
                                           ;--------------------------------------------------------
                                           ; overlayable items in internal ram 
                                           ;--------------------------------------------------------
                                           ;	udata_ovr
                                           ;--------------------------------------------------------
                                           ; reset vector 
                                           ;--------------------------------------------------------
                                           STARTUP	code 0x0000
000000   a02d     goto    0x2d             	goto	_main
                                           ;--------------------------------------------------------
                                           ; interrupt and initialization code
                                           ;--------------------------------------------------------
                                           c_interrupt	code	0x8
                                           __sdcc_interrupt
                                           ;***
                                           ;  pBlock Stats: dbName = I
                                           ;***
                                           ;entry:  _int_isr	;Function start
                                           ; 0 exit points
                                           ;2 compiler assigned registers:
                                           ;   r0x104E
                                           ;   r0x104F
                                           ;; Starting pCode block
                                           _int_isr	;Function start
                                           ; 0 exit points
                                           ;	.line	1098; "MC32P7351.c"	__endasm;
                                           	;
000008   5679     movra   0x79             	movra	_abuf;
000009   4587     swapar  0x187            	swapar	_PFLAG;
00000a   567a     movra   0x7a             	movra	_statusbuf;
                                           	
                                           ;	.line	1105; "MC32P7351.c"	if (T3IF & T3IE)
00000b   7620     clrr    0x20             	CLRR	r0x104E
00000c   ff8b     jbclr   0x18b, 0x7       	JBCLR	_INTFbits,7
00000d   6620     incr    0x20             	INCR	r0x104E
00000e   7621     clrr    0x21             	CLRR	r0x104F
00000f   ff8a     jbclr   0x18a, 0x7       	JBCLR	_INTEbits,7
000010   6621     incr    0x21             	INCR	r0x104F
000011   5821     movar   0x21             	MOVAR	r0x104F
000012   7a20     andra   0x20             	ANDRA	r0x104E
000013   3c00     movai   0                	MOVAI	0x00
000014   5c20     orar    0x20             	ORAR	r0x104E
000015   f587     jbclr   0x187, 0x2       	JBCLR	PFLAG,2
000016   a028     goto    0x28             	GOTO	_00952_DS_
                                           ;	.line	1108; "MC32P7351.c"	if (FLAG_IS_DEVICE_OPEN)
000017   e070     jbset   0x70, 0          	JBSET	_flag1,0
000018   a027     goto    0x27             	GOTO	_00950_DS_
                                           ;	.line	1110; "MC32P7351.c"	turn_dir_ms_cnt++; // 会在 turn_dir_scan_handle() 内处理并清零
000019   6656     incr    0x56             	INCR	_turn_dir_ms_cnt
00001a   f587     jbclr   0x187, 0x2       	JBCLR	PFLAG,2
00001b   6657     incr    0x57             	INCR	(_turn_dir_ms_cnt + 1)
00001c   f587     jbclr   0x187, 0x2       	JBCLR	PFLAG,2
00001d   6658     incr    0x58             	INCR	(_turn_dir_ms_cnt + 2)
00001e   f587     jbclr   0x187, 0x2       	JBCLR	PFLAG,2
00001f   6659     incr    0x59             	INCR	(_turn_dir_ms_cnt + 3)
                                           ;	.line	1111; "MC32P7351.c"	shut_down_ms_cnt++; // 会在 shutdown_scan_handle() 内处理并清零
000020   665a     incr    0x5a             	INCR	_shut_down_ms_cnt
000021   f587     jbclr   0x187, 0x2       	JBCLR	PFLAG,2
000022   665b     incr    0x5b             	INCR	(_shut_down_ms_cnt + 1)
000023   f587     jbclr   0x187, 0x2       	JBCLR	PFLAG,2
000024   665c     incr    0x5c             	INCR	(_shut_down_ms_cnt + 2)
000025   f587     jbclr   0x187, 0x2       	JBCLR	PFLAG,2
000026   665d     incr    0x5d             	INCR	(_shut_down_ms_cnt + 3)
                                           _00950_DS_
                                           ;	.line	1119; "MC32P7351.c"	T3IF = 0;
000027   df8b     bclr    0x18b, 0x7       	BCLR	_INTFbits,7
                                           _00952_DS_
                                           ;	.line	1127; "MC32P7351.c"	__endasm;
                                           	;
000028   447a     swapar  0x7a             	swapar	_statusbuf;
000029   5787     movra   0x187            	movra	_PFLAG;
00002a   4679     swapr   0x79             	swapr	_abuf;
00002b   4479     swapar  0x79             	swapar	_abuf;
                                           	
                                           END_OF_INTERRUPT
                                           ;	.line	1128; "MC32P7351.c"	}
00002c   000d     retie                    	RETIE	
                                           
                                           ;--------------------------------------------------------
                                           ; code
                                           ;--------------------------------------------------------
                                           code_MC32P7351	code
                                           ;***
                                           ;  pBlock Stats: dbName = M
                                           ;***
                                           ;entry:  _main	;Function start
                                           ; 2 exit points
                                           ;has an exit
                                           ;functions called:
                                           ;   _Sys_Init
                                           ;   _delay_ms
                                           ;   _adc_sel_pin
                                           ;   _adc_get_val
                                           ;   _key_scan_handle
                                           ;   _adc_scan_handle
                                           ;   _turn_dir_scan_handle
                                           ;   _shutdown_scan_handle
                                           ;   __mullong
                                           ;   __divulong
                                           ;   __mullong
                                           ;   __mullong
                                           ;   __divulong
                                           ;   __divulong
                                           ;   _delay_ms
                                           ;   _delay_ms
                                           ;   _key_scan_handle
                                           ;   _delay_ms
                                           ;   _key_scan_handle
                                           ;   _delay_ms
                                           ;   _low_power_scan_handle
                                           ;   _Sys_Init
                                           ;   _delay_ms
                                           ;   _adc_sel_pin
                                           ;   _adc_get_val
                                           ;   _key_scan_handle
                                           ;   _adc_scan_handle
                                           ;   _turn_dir_scan_handle
                                           ;   _shutdown_scan_handle
                                           ;   __mullong
                                           ;   __divulong
                                           ;   __mullong
                                           ;   __mullong
                                           ;   __divulong
                                           ;   __divulong
                                           ;   _delay_ms
                                           ;   _delay_ms
                                           ;   _key_scan_handle
                                           ;   _delay_ms
                                           ;   _key_scan_handle
                                           ;   _delay_ms
                                           ;   _low_power_scan_handle
                                           ;17 compiler assigned registers:
                                           ;   STK00
                                           ;   r0x1044
                                           ;   r0x1045
                                           ;   STK06
                                           ;   STK05
                                           ;   STK04
                                           ;   STK03
                                           ;   STK02
                                           ;   STK01
                                           ;   r0x1046
                                           ;   r0x1047
                                           ;   r0x1048
                                           ;   r0x1049
                                           ;   r0x104A
                                           ;   r0x104B
                                           ;   r0x104C
                                           ;   r0x104D
                                           ;; Starting pCode block
                                           _main	;Function start
                                           ; 2 exit points
                                           ;	.line	825; "MC32P7351.c"	Sys_Init();
00002d   84a3     call    0x4a3            	CALL	_Sys_Init
                                           ;	.line	828; "MC32P7351.c"	LED_WORKING_OFF();
00002e   c994     bset    0x194, 0x4       	BSET	_IOP1bits,4
                                           ;	.line	829; "MC32P7351.c"	LED_FULL_CHARGE_OFF();
00002f   c790     bset    0x190, 0x3       	BSET	_IOP0bits,3
                                           ;	.line	830; "MC32P7351.c"	LED_CHARGING_OFF();
000030   c990     bset    0x190, 0x4       	BSET	_IOP0bits,4
                                           ;	.line	832; "MC32P7351.c"	delay_ms(100); // 等待系统稳定
000031   3c64     movai   0x64             	MOVAI	0x64
000032   5606     movra   0x6              	MOVRA	STK00
000033   3c00     movai   0                	MOVAI	0x00
000034   85cb     call    0x5cb            	CALL	_delay_ms
                                           ;	.line	837; "MC32P7351.c"	PWM2EC = 1; // 打开控制升压电路的pwm
000035   cda0     bset    0x1a0, 0x6       	BSET	_T2CRbits,6
                                           ;	.line	838; "MC32P7351.c"	T2DATA = 100;
000036   3c64     movai   0x64             	MOVAI	0x64
000037   57a3     movra   0x1a3            	MOVRA	_T2DATA
                                           ;	.line	839; "MC32P7351.c"	adc_sel_pin(ADC_PIN_P02_AN1); // 切换到检测电池降压后的电压的检测引脚
000038   3c02     movai   0x2              	MOVAI	0x02
000039   8567     call    0x567            	CALL	_adc_sel_pin
                                           ;	.line	840; "MC32P7351.c"	for (i = 0; i < 10; i++)      // 每55ms进入一次，循环内每次间隔约4.8ms
00003a   7674     clrr    0x74             	CLRR	_i
                                           ;;unsigned compare: left < lit(0xA=10), size=1
                                           _00825_DS_
00003b   3c0a     movai   0xa              	MOVAI	0x0a
00003c   4874     rsubar  0x74             	RSUBAR	_i
00003d   f187     jbclr   0x187, 0         	JBCLR	PFLAG,0
00003e   a050     goto    0x50             	GOTO	_00769_DS_
                                           ;;genSkipc:3291: created from rifx:013B5EFC
                                           ;	.line	842; "MC32P7351.c"	adc_val = adc_get_val();
00003f   84ca     call    0x4ca            	CALL	_adc_get_val
000040   5667     movra   0x67             	MOVRA	(_adc_val + 1)
000041   5806     movar   0x6              	MOVAR	STK00
000042   5666     movra   0x66             	MOVRA	_adc_val
                                           ;;unsigned compare: left < lit(0xFA0=4000), size=2
                                           ;	.line	843; "MC32P7351.c"	if (adc_val >= ADCDETECT_BAT_FULL + ADCDETECT_BAT_NULL_EX)
000043   3c0f     movai   0xf              	MOVAI	0x0f
000044   4867     rsubar  0x67             	RSUBAR	(_adc_val + 1)
000045   e587     jbset   0x187, 0x2       	JBSET	PFLAG,2
000046   a049     goto    0x49             	GOTO	_00935_DS_
000047   3ca0     movai   0xa0             	MOVAI	0xa0
000048   4866     rsubar  0x66             	RSUBAR	_adc_val
                                           _00935_DS_
000049   e187     jbset   0x187, 0         	JBSET	PFLAG,0
00004a   a04e     goto    0x4e             	GOTO	_00826_DS_
                                           ;;genSkipc:3291: created from rifx:013B5EFC
                                           ;	.line	845; "MC32P7351.c"	flag_bat_is_empty = 1;
00004b   3c01     movai   0x1              	MOVAI	0x01
00004c   5676     movra   0x76             	MOVRA	_flag_bat_is_empty
                                           ;	.line	846; "MC32P7351.c"	FLAG_DURING_CHARGING_BAT_IS_NULL = 1; // 标志位置一，在主循环让绿灯快闪
00004d   ce70     bset    0x70, 0x7        	BSET	_flag1,7
                                           _00826_DS_
                                           ;	.line	840; "MC32P7351.c"	for (i = 0; i < 10; i++)      // 每55ms进入一次，循环内每次间隔约4.8ms
00004e   6674     incr    0x74             	INCR	_i
00004f   a03b     goto    0x3b             	GOTO	_00825_DS_
                                           _00769_DS_
                                           ;	.line	849; "MC32P7351.c"	PWM2EC = 0; // 关闭控制升压电路的pwm
000050   dda0     bclr    0x1a0, 0x6       	BCLR	_T2CRbits,6
                                           ;	.line	850; "MC32P7351.c"	T2DATA = 0;
000051   77a3     clrr    0x1a3            	CLRR	_T2DATA
                                           _00822_DS_
                                           ;	.line	872; "MC32P7351.c"	key_scan_handle(); // 按键扫描和处理函数
000052   83f5     call    0x3f5            	CALL	_key_scan_handle
                                           ;	.line	873; "MC32P7351.c"	adc_scan_handle(); // 充电扫描和处理函数(约占用89ms)
000053   8304     call    0x304            	CALL	_adc_scan_handle
                                           ;	.line	875; "MC32P7351.c"	turn_dir_scan_handle();
000054   82d7     call    0x2d7            	CALL	_turn_dir_scan_handle
                                           ;	.line	876; "MC32P7351.c"	shutdown_scan_handle(); // 自动关机检测和处理函数
000055   82b7     call    0x2b7            	CALL	_shutdown_scan_handle
                                           ;	.line	880; "MC32P7351.c"	if (FLAG_IS_IN_CHARGING)
000056   e470     jbset   0x70, 0x2        	JBSET	_flag1,2
000057   a245     goto    0x245            	GOTO	_00802_DS_
                                           ;	.line	882; "MC32P7351.c"	last_pwm_val = T2DATA;      // 读出上一次PWM占空比对应的值
000058   59a3     movar   0x1a3            	MOVAR	_T2DATA
000059   566a     movra   0x6a             	MOVRA	_last_pwm_val
00005a   766b     clrr    0x6b             	CLRR	(_last_pwm_val + 1)
                                           ;	.line	883; "MC32P7351.c"	max_pwm_val = (T2LOAD + 1); // 读出PWM占空比设定的、最大的值
00005b   59a2     movar   0x1a2            	MOVAR	_T2LOAD
00005c   5616     movra   0x16             	MOVRA	r0x1044
00005d   7617     clrr    0x17             	CLRR	r0x1045
00005e   3c01     movai   0x1              	MOVAI	0x01
00005f   7c16     addar   0x16             	ADDAR	r0x1044
000060   5662     movra   0x62             	MOVRA	_max_pwm_val
000061   7663     clrr    0x63             	CLRR	(_max_pwm_val + 1)
000062   5263     rlr     0x63             	RLR	(_max_pwm_val + 1)
000063   3c00     movai   0                	MOVAI	0x00
000064   7e63     addra   0x63             	ADDRA	(_max_pwm_val + 1)
000065   7664     clrr    0x64             	CLRR	(_max_pwm_val + 2)
000066   7665     clrr    0x65             	CLRR	(_max_pwm_val + 3)
                                           ;;unsigned compare: left < lit(0xA3B=2619), size=4
                                           ;	.line	900; "MC32P7351.c"	if (adc_bat_val < 2619) // 如果在充电时检测到电池电压小于6.0V
000067   3c00     movai   0                	MOVAI	0x00
000068   4861     rsubar  0x61             	RSUBAR	(_adc_bat_val + 3)
000069   e587     jbset   0x187, 0x2       	JBSET	PFLAG,2
00006a   a075     goto    0x75             	GOTO	_00936_DS_
00006b   3c00     movai   0                	MOVAI	0x00
00006c   4860     rsubar  0x60             	RSUBAR	(_adc_bat_val + 2)
00006d   e587     jbset   0x187, 0x2       	JBSET	PFLAG,2
00006e   a075     goto    0x75             	GOTO	_00936_DS_
00006f   3c0a     movai   0xa              	MOVAI	0x0a
000070   485f     rsubar  0x5f             	RSUBAR	(_adc_bat_val + 1)
000071   e587     jbset   0x187, 0x2       	JBSET	PFLAG,2
000072   a075     goto    0x75             	GOTO	_00936_DS_
000073   3c3b     movai   0x3b             	MOVAI	0x3b
000074   485e     rsubar  0x5e             	RSUBAR	_adc_bat_val
                                           _00936_DS_
000075   f187     jbclr   0x187, 0         	JBCLR	PFLAG,0
000076   a083     goto    0x83             	GOTO	_00783_DS_
                                           ;;genSkipc:3291: created from rifx:013B5EFC
                                           ;	.line	904; "MC32P7351.c"	tmp_bat_val = (adc_bat_val + 37);
000077   585e     movar   0x5e             	MOVAR	_adc_bat_val
000078   5616     movra   0x16             	MOVRA	r0x1044
000079   585f     movar   0x5f             	MOVAR	(_adc_bat_val + 1)
00007a   5617     movra   0x17             	MOVRA	r0x1045
00007b   3c25     movai   0x25             	MOVAI	0x25
00007c   7c16     addar   0x16             	ADDAR	r0x1044
00007d   566e     movra   0x6e             	MOVRA	_tmp_bat_val
00007e   766f     clrr    0x6f             	CLRR	(_tmp_bat_val + 1)
00007f   526f     rlr     0x6f             	RLR	(_tmp_bat_val + 1)
000080   5817     movar   0x17             	MOVAR	r0x1045
000081   7e6f     addra   0x6f             	ADDRA	(_tmp_bat_val + 1)
000082   a131     goto    0x131            	GOTO	_00784_DS_
                                           ;;swapping arguments (AOP_TYPEs 1/3)
                                           ;;unsigned compare: left >= lit(0xB16=2838), size=4
                                           _00783_DS_
                                           ;	.line	906; "MC32P7351.c"	else if (adc_bat_val <= 2837) // 如果检测电池电压小于 6.5V
000083   3c00     movai   0                	MOVAI	0x00
000084   4861     rsubar  0x61             	RSUBAR	(_adc_bat_val + 3)
000085   e587     jbset   0x187, 0x2       	JBSET	PFLAG,2
000086   a091     goto    0x91             	GOTO	_00937_DS_
000087   3c00     movai   0                	MOVAI	0x00
000088   4860     rsubar  0x60             	RSUBAR	(_adc_bat_val + 2)
000089   e587     jbset   0x187, 0x2       	JBSET	PFLAG,2
00008a   a091     goto    0x91             	GOTO	_00937_DS_
00008b   3c0b     movai   0xb              	MOVAI	0x0b
00008c   485f     rsubar  0x5f             	RSUBAR	(_adc_bat_val + 1)
00008d   e587     jbset   0x187, 0x2       	JBSET	PFLAG,2
00008e   a091     goto    0x91             	GOTO	_00937_DS_
00008f   3c16     movai   0x16             	MOVAI	0x16
000090   485e     rsubar  0x5e             	RSUBAR	_adc_bat_val
                                           _00937_DS_
000091   f187     jbclr   0x187, 0         	JBCLR	PFLAG,0
000092   a09f     goto    0x9f             	GOTO	_00780_DS_
                                           ;;genSkipc:3291: created from rifx:013B5EFC
                                           ;	.line	908; "MC32P7351.c"	tmp_bat_val = (adc_bat_val + 37);
000093   585e     movar   0x5e             	MOVAR	_adc_bat_val
000094   5616     movra   0x16             	MOVRA	r0x1044
000095   585f     movar   0x5f             	MOVAR	(_adc_bat_val + 1)
000096   5617     movra   0x17             	MOVRA	r0x1045
000097   3c25     movai   0x25             	MOVAI	0x25
000098   7c16     addar   0x16             	ADDAR	r0x1044
000099   566e     movra   0x6e             	MOVRA	_tmp_bat_val
00009a   766f     clrr    0x6f             	CLRR	(_tmp_bat_val + 1)
00009b   526f     rlr     0x6f             	RLR	(_tmp_bat_val + 1)
00009c   5817     movar   0x17             	MOVAR	r0x1045
00009d   7e6f     addra   0x6f             	ADDRA	(_tmp_bat_val + 1)
00009e   a131     goto    0x131            	GOTO	_00784_DS_
                                           ;;swapping arguments (AOP_TYPEs 1/3)
                                           ;;unsigned compare: left >= lit(0xBF1=3057), size=4
                                           _00780_DS_
                                           ;	.line	910; "MC32P7351.c"	else if (adc_bat_val <= 3056) // 如果检测电池电压小于 7.0V
00009f   3c00     movai   0                	MOVAI	0x00
0000a0   4861     rsubar  0x61             	RSUBAR	(_adc_bat_val + 3)
0000a1   e587     jbset   0x187, 0x2       	JBSET	PFLAG,2
0000a2   a0ad     goto    0xad             	GOTO	_00938_DS_
0000a3   3c00     movai   0                	MOVAI	0x00
0000a4   4860     rsubar  0x60             	RSUBAR	(_adc_bat_val + 2)
0000a5   e587     jbset   0x187, 0x2       	JBSET	PFLAG,2
0000a6   a0ad     goto    0xad             	GOTO	_00938_DS_
0000a7   3c0b     movai   0xb              	MOVAI	0x0b
0000a8   485f     rsubar  0x5f             	RSUBAR	(_adc_bat_val + 1)
0000a9   e587     jbset   0x187, 0x2       	JBSET	PFLAG,2
0000aa   a0ad     goto    0xad             	GOTO	_00938_DS_
0000ab   3cf1     movai   0xf1             	MOVAI	0xf1
0000ac   485e     rsubar  0x5e             	RSUBAR	_adc_bat_val
                                           _00938_DS_
0000ad   f187     jbclr   0x187, 0         	JBCLR	PFLAG,0
0000ae   a0bb     goto    0xbb             	GOTO	_00777_DS_
                                           ;;genSkipc:3291: created from rifx:013B5EFC
                                           ;	.line	913; "MC32P7351.c"	tmp_bat_val = (adc_bat_val + 27);
0000af   585e     movar   0x5e             	MOVAR	_adc_bat_val
0000b0   5616     movra   0x16             	MOVRA	r0x1044
0000b1   585f     movar   0x5f             	MOVAR	(_adc_bat_val + 1)
0000b2   5617     movra   0x17             	MOVRA	r0x1045
0000b3   3c1b     movai   0x1b             	MOVAI	0x1b
0000b4   7c16     addar   0x16             	ADDAR	r0x1044
0000b5   566e     movra   0x6e             	MOVRA	_tmp_bat_val
0000b6   766f     clrr    0x6f             	CLRR	(_tmp_bat_val + 1)
0000b7   526f     rlr     0x6f             	RLR	(_tmp_bat_val + 1)
0000b8   5817     movar   0x17             	MOVAR	r0x1045
0000b9   7e6f     addra   0x6f             	ADDRA	(_tmp_bat_val + 1)
0000ba   a131     goto    0x131            	GOTO	_00784_DS_
                                           ;;swapping arguments (AOP_TYPEs 1/3)
                                           ;;unsigned compare: left >= lit(0xC75=3189), size=4
                                           _00777_DS_
                                           ;	.line	915; "MC32P7351.c"	else if (adc_bat_val <= 3188) // 如果检测电池电压小于 7.3V
0000bb   3c00     movai   0                	MOVAI	0x00
0000bc   4861     rsubar  0x61             	RSUBAR	(_adc_bat_val + 3)
0000bd   e587     jbset   0x187, 0x2       	JBSET	PFLAG,2
0000be   a0c9     goto    0xc9             	GOTO	_00939_DS_
0000bf   3c00     movai   0                	MOVAI	0x00
0000c0   4860     rsubar  0x60             	RSUBAR	(_adc_bat_val + 2)
0000c1   e587     jbset   0x187, 0x2       	JBSET	PFLAG,2
0000c2   a0c9     goto    0xc9             	GOTO	_00939_DS_
0000c3   3c0c     movai   0xc              	MOVAI	0x0c
0000c4   485f     rsubar  0x5f             	RSUBAR	(_adc_bat_val + 1)
0000c5   e587     jbset   0x187, 0x2       	JBSET	PFLAG,2
0000c6   a0c9     goto    0xc9             	GOTO	_00939_DS_
0000c7   3c75     movai   0x75             	MOVAI	0x75
0000c8   485e     rsubar  0x5e             	RSUBAR	_adc_bat_val
                                           _00939_DS_
0000c9   f187     jbclr   0x187, 0         	JBCLR	PFLAG,0
0000ca   a0d7     goto    0xd7             	GOTO	_00774_DS_
                                           ;;genSkipc:3291: created from rifx:013B5EFC
                                           ;	.line	918; "MC32P7351.c"	tmp_bat_val = (adc_bat_val + 16);
0000cb   585e     movar   0x5e             	MOVAR	_adc_bat_val
0000cc   5616     movra   0x16             	MOVRA	r0x1044
0000cd   585f     movar   0x5f             	MOVAR	(_adc_bat_val + 1)
0000ce   5617     movra   0x17             	MOVRA	r0x1045
0000cf   3c10     movai   0x10             	MOVAI	0x10
0000d0   7c16     addar   0x16             	ADDAR	r0x1044
0000d1   566e     movra   0x6e             	MOVRA	_tmp_bat_val
0000d2   766f     clrr    0x6f             	CLRR	(_tmp_bat_val + 1)
0000d3   526f     rlr     0x6f             	RLR	(_tmp_bat_val + 1)
0000d4   5817     movar   0x17             	MOVAR	r0x1045
0000d5   7e6f     addra   0x6f             	ADDRA	(_tmp_bat_val + 1)
0000d6   a131     goto    0x131            	GOTO	_00784_DS_
                                           ;;swapping arguments (AOP_TYPEs 1/3)
                                           ;;unsigned compare: left >= lit(0xCFF=3327), size=4
                                           _00774_DS_
                                           ;	.line	920; "MC32P7351.c"	else if (adc_bat_val <= 3326) // 如果检测电池电压小于 7.62V
0000d7   3c00     movai   0                	MOVAI	0x00
0000d8   4861     rsubar  0x61             	RSUBAR	(_adc_bat_val + 3)
0000d9   e587     jbset   0x187, 0x2       	JBSET	PFLAG,2
0000da   a0e5     goto    0xe5             	GOTO	_00940_DS_
0000db   3c00     movai   0                	MOVAI	0x00
0000dc   4860     rsubar  0x60             	RSUBAR	(_adc_bat_val + 2)
0000dd   e587     jbset   0x187, 0x2       	JBSET	PFLAG,2
0000de   a0e5     goto    0xe5             	GOTO	_00940_DS_
0000df   3c0c     movai   0xc              	MOVAI	0x0c
0000e0   485f     rsubar  0x5f             	RSUBAR	(_adc_bat_val + 1)
0000e1   e587     jbset   0x187, 0x2       	JBSET	PFLAG,2
0000e2   a0e5     goto    0xe5             	GOTO	_00940_DS_
0000e3   3cff     movai   0xff             	MOVAI	0xff
0000e4   485e     rsubar  0x5e             	RSUBAR	_adc_bat_val
                                           _00940_DS_
0000e5   f187     jbclr   0x187, 0         	JBCLR	PFLAG,0
0000e6   a0ec     goto    0xec             	GOTO	_00771_DS_
                                           ;;genSkipc:3291: created from rifx:013B5EFC
                                           ;	.line	923; "MC32P7351.c"	tmp_bat_val = (adc_bat_val + 0);
0000e7   585e     movar   0x5e             	MOVAR	_adc_bat_val
0000e8   566e     movra   0x6e             	MOVRA	_tmp_bat_val
0000e9   585f     movar   0x5f             	MOVAR	(_adc_bat_val + 1)
0000ea   566f     movra   0x6f             	MOVRA	(_tmp_bat_val + 1)
0000eb   a131     goto    0x131            	GOTO	_00784_DS_
                                           _00771_DS_
                                           ;	.line	936; "MC32P7351.c"	tmp_bat_val = (u32)adc_bat_val - ((u32)adc_bat_val * 157 / 1000 - 522);
0000ec   585e     movar   0x5e             	MOVAR	_adc_bat_val
0000ed   5600     movra   0                	MOVRA	STK06
0000ee   585f     movar   0x5f             	MOVAR	(_adc_bat_val + 1)
0000ef   5601     movra   0x1              	MOVRA	STK05
0000f0   5860     movar   0x60             	MOVAR	(_adc_bat_val + 2)
0000f1   5602     movra   0x2              	MOVRA	STK04
0000f2   5861     movar   0x61             	MOVAR	(_adc_bat_val + 3)
0000f3   5603     movra   0x3              	MOVRA	STK03
0000f4   3c9d     movai   0x9d             	MOVAI	0x9d
0000f5   5604     movra   0x4              	MOVRA	STK02
0000f6   3c00     movai   0                	MOVAI	0x00
0000f7   5605     movra   0x5              	MOVRA	STK01
0000f8   3c00     movai   0                	MOVAI	0x00
0000f9   5606     movra   0x6              	MOVRA	STK00
0000fa   3c00     movai   0                	MOVAI	0x00
0000fb   85eb     call    0x5eb            	CALL	__mullong
0000fc   5619     movra   0x19             	MOVRA	r0x1046
0000fd   5806     movar   0x6              	MOVAR	STK00
0000fe   5618     movra   0x18             	MOVRA	r0x1047
0000ff   5805     movar   0x5              	MOVAR	STK01
000100   5617     movra   0x17             	MOVRA	r0x1045
000101   5804     movar   0x4              	MOVAR	STK02
000102   5616     movra   0x16             	MOVRA	r0x1044
000103   3ce8     movai   0xe8             	MOVAI	0xe8
000104   5600     movra   0                	MOVRA	STK06
000105   3c03     movai   0x3              	MOVAI	0x03
000106   5601     movra   0x1              	MOVRA	STK05
000107   3c00     movai   0                	MOVAI	0x00
000108   5602     movra   0x2              	MOVRA	STK04
000109   3c00     movai   0                	MOVAI	0x00
00010a   5603     movra   0x3              	MOVRA	STK03
00010b   5816     movar   0x16             	MOVAR	r0x1044
00010c   5604     movra   0x4              	MOVRA	STK02
00010d   5817     movar   0x17             	MOVAR	r0x1045
00010e   5605     movra   0x5              	MOVRA	STK01
00010f   5818     movar   0x18             	MOVAR	r0x1047
000110   5606     movra   0x6              	MOVRA	STK00
000111   5819     movar   0x19             	MOVAR	r0x1046
000112   8676     call    0x676            	CALL	__divulong
000113   5619     movra   0x19             	MOVRA	r0x1046
000114   5806     movar   0x6              	MOVAR	STK00
000115   5618     movra   0x18             	MOVRA	r0x1047
000116   5805     movar   0x5              	MOVAR	STK01
000117   561b     movra   0x1b             	MOVRA	r0x1049
000118   5617     movra   0x17             	MOVRA	r0x1045
000119   5804     movar   0x4              	MOVAR	STK02
00011a   561a     movra   0x1a             	MOVRA	r0x1048
00011b   5616     movra   0x16             	MOVRA	r0x1044
                                           ;;124	MOVAR	r0x1044
                                           ;;125	MOVAR	r0x1045
00011c   3cf6     movai   0xf6             	MOVAI	0xf6
00011d   7c1a     addar   0x1a             	ADDAR	r0x1048
00011e   5616     movra   0x16             	MOVRA	r0x1044
00011f   3cfd     movai   0xfd             	MOVAI	0xfd
000120   5617     movra   0x17             	MOVRA	r0x1045
000121   581b     movar   0x1b             	MOVAR	r0x1049
000122   f187     jbclr   0x187, 0         	JBCLR	PFLAG,0
000123   601b     jzar    0x1b             	JZAR	r0x1049
000124   7e17     addra   0x17             	ADDRA	r0x1045
000125   585e     movar   0x5e             	MOVAR	_adc_bat_val
000126   561a     movra   0x1a             	MOVRA	r0x1048
000127   585f     movar   0x5f             	MOVAR	(_adc_bat_val + 1)
000128   561b     movra   0x1b             	MOVRA	r0x1049
000129   5816     movar   0x16             	MOVAR	r0x1044
00012a   481a     rsubar  0x1a             	RSUBAR	r0x1048
00012b   566e     movra   0x6e             	MOVRA	_tmp_bat_val
00012c   5817     movar   0x17             	MOVAR	r0x1045
00012d   e187     jbset   0x187, 0         	JBSET	PFLAG,0
00012e   6417     incar   0x17             	INCAR	r0x1045
00012f   481b     rsubar  0x1b             	RSUBAR	r0x1049
000130   566f     movra   0x6f             	MOVRA	(_tmp_bat_val + 1)
                                           _00784_DS_
                                           ;	.line	958; "MC32P7351.c"	tmp_bat_val += 55;
000131   3c37     movai   0x37             	MOVAI	0x37
000132   7e6e     addra   0x6e             	ADDRA	_tmp_bat_val
000133   f187     jbclr   0x187, 0         	JBCLR	PFLAG,0
000134   666f     incr    0x6f             	INCR	(_tmp_bat_val + 1)
                                           ;	.line	1004; "MC32P7351.c"	tmp_val = max_pwm_val - (adc_charging_val * max_pwm_val * 94 / 147) / tmp_bat_val;
000135   5868     movar   0x68             	MOVAR	_adc_charging_val
000136   5616     movra   0x16             	MOVRA	r0x1044
000137   5869     movar   0x69             	MOVAR	(_adc_charging_val + 1)
000138   5617     movra   0x17             	MOVRA	r0x1045
000139   761a     clrr    0x1a             	CLRR	r0x1048
00013a   761b     clrr    0x1b             	CLRR	r0x1049
00013b   5862     movar   0x62             	MOVAR	_max_pwm_val
00013c   5600     movra   0                	MOVRA	STK06
00013d   5863     movar   0x63             	MOVAR	(_max_pwm_val + 1)
00013e   5601     movra   0x1              	MOVRA	STK05
00013f   5864     movar   0x64             	MOVAR	(_max_pwm_val + 2)
000140   5602     movra   0x2              	MOVRA	STK04
000141   5865     movar   0x65             	MOVAR	(_max_pwm_val + 3)
000142   5603     movra   0x3              	MOVRA	STK03
000143   5816     movar   0x16             	MOVAR	r0x1044
000144   5604     movra   0x4              	MOVRA	STK02
000145   5817     movar   0x17             	MOVAR	r0x1045
000146   5605     movra   0x5              	MOVRA	STK01
000147   3c00     movai   0                	MOVAI	0x00
000148   5606     movra   0x6              	MOVRA	STK00
000149   3c00     movai   0                	MOVAI	0x00
00014a   85eb     call    0x5eb            	CALL	__mullong
00014b   561b     movra   0x1b             	MOVRA	r0x1049
00014c   5806     movar   0x6              	MOVAR	STK00
00014d   561a     movra   0x1a             	MOVRA	r0x1048
00014e   5805     movar   0x5              	MOVAR	STK01
00014f   5617     movra   0x17             	MOVRA	r0x1045
000150   5804     movar   0x4              	MOVAR	STK02
000151   5616     movra   0x16             	MOVRA	r0x1044
000152   5816     movar   0x16             	MOVAR	r0x1044
000153   5600     movra   0                	MOVRA	STK06
000154   5817     movar   0x17             	MOVAR	r0x1045
000155   5601     movra   0x1              	MOVRA	STK05
000156   581a     movar   0x1a             	MOVAR	r0x1048
000157   5602     movra   0x2              	MOVRA	STK04
000158   581b     movar   0x1b             	MOVAR	r0x1049
000159   5603     movra   0x3              	MOVRA	STK03
00015a   3c5e     movai   0x5e             	MOVAI	0x5e
00015b   5604     movra   0x4              	MOVRA	STK02
00015c   3c00     movai   0                	MOVAI	0x00
00015d   5605     movra   0x5              	MOVRA	STK01
00015e   3c00     movai   0                	MOVAI	0x00
00015f   5606     movra   0x6              	MOVRA	STK00
000160   3c00     movai   0                	MOVAI	0x00
000161   85eb     call    0x5eb            	CALL	__mullong
000162   561b     movra   0x1b             	MOVRA	r0x1049
000163   5806     movar   0x6              	MOVAR	STK00
000164   561a     movra   0x1a             	MOVRA	r0x1048
000165   5805     movar   0x5              	MOVAR	STK01
000166   5617     movra   0x17             	MOVRA	r0x1045
000167   5804     movar   0x4              	MOVAR	STK02
000168   5616     movra   0x16             	MOVRA	r0x1044
000169   3c93     movai   0x93             	MOVAI	0x93
00016a   5600     movra   0                	MOVRA	STK06
00016b   3c00     movai   0                	MOVAI	0x00
00016c   5601     movra   0x1              	MOVRA	STK05
00016d   3c00     movai   0                	MOVAI	0x00
00016e   5602     movra   0x2              	MOVRA	STK04
00016f   3c00     movai   0                	MOVAI	0x00
000170   5603     movra   0x3              	MOVRA	STK03
000171   5816     movar   0x16             	MOVAR	r0x1044
000172   5604     movra   0x4              	MOVRA	STK02
000173   5817     movar   0x17             	MOVAR	r0x1045
000174   5605     movra   0x5              	MOVRA	STK01
000175   581a     movar   0x1a             	MOVAR	r0x1048
000176   5606     movra   0x6              	MOVRA	STK00
000177   581b     movar   0x1b             	MOVAR	r0x1049
000178   8676     call    0x676            	CALL	__divulong
000179   561b     movra   0x1b             	MOVRA	r0x1049
00017a   5806     movar   0x6              	MOVAR	STK00
00017b   561a     movra   0x1a             	MOVRA	r0x1048
00017c   5805     movar   0x5              	MOVAR	STK01
00017d   5617     movra   0x17             	MOVRA	r0x1045
00017e   5804     movar   0x4              	MOVAR	STK02
00017f   5616     movra   0x16             	MOVRA	r0x1044
000180   586e     movar   0x6e             	MOVAR	_tmp_bat_val
000181   561c     movra   0x1c             	MOVRA	r0x104A
000182   586f     movar   0x6f             	MOVAR	(_tmp_bat_val + 1)
000183   561d     movra   0x1d             	MOVRA	r0x104B
000184   761e     clrr    0x1e             	CLRR	r0x104C
000185   761f     clrr    0x1f             	CLRR	r0x104D
000186   581c     movar   0x1c             	MOVAR	r0x104A
000187   5600     movra   0                	MOVRA	STK06
000188   581d     movar   0x1d             	MOVAR	r0x104B
000189   5601     movra   0x1              	MOVRA	STK05
00018a   3c00     movai   0                	MOVAI	0x00
00018b   5602     movra   0x2              	MOVRA	STK04
00018c   3c00     movai   0                	MOVAI	0x00
00018d   5603     movra   0x3              	MOVRA	STK03
00018e   5816     movar   0x16             	MOVAR	r0x1044
00018f   5604     movra   0x4              	MOVRA	STK02
000190   5817     movar   0x17             	MOVAR	r0x1045
000191   5605     movra   0x5              	MOVRA	STK01
000192   581a     movar   0x1a             	MOVAR	r0x1048
000193   5606     movra   0x6              	MOVRA	STK00
000194   581b     movar   0x1b             	MOVAR	r0x1049
000195   8676     call    0x676            	CALL	__divulong
000196   561b     movra   0x1b             	MOVRA	r0x1049
000197   5806     movar   0x6              	MOVAR	STK00
000198   561a     movra   0x1a             	MOVRA	r0x1048
000199   5805     movar   0x5              	MOVAR	STK01
00019a   561f     movra   0x1f             	MOVRA	r0x104D
00019b   5617     movra   0x17             	MOVRA	r0x1045
00019c   5804     movar   0x4              	MOVAR	STK02
00019d   561e     movra   0x1e             	MOVRA	r0x104C
00019e   5616     movra   0x16             	MOVRA	r0x1044
00019f   5862     movar   0x62             	MOVAR	_max_pwm_val
0001a0   561c     movra   0x1c             	MOVRA	r0x104A
0001a1   5863     movar   0x63             	MOVAR	(_max_pwm_val + 1)
0001a2   561d     movra   0x1d             	MOVRA	r0x104B
                                           ;;121	MOVAR	r0x1044
                                           ;;122	MOVAR	r0x1045
0001a3   581e     movar   0x1e             	MOVAR	r0x104C
0001a4   481c     rsubar  0x1c             	RSUBAR	r0x104A
0001a5   566c     movra   0x6c             	MOVRA	_tmp_val
0001a6   581f     movar   0x1f             	MOVAR	r0x104D
0001a7   e187     jbset   0x187, 0         	JBSET	PFLAG,0
0001a8   641f     incar   0x1f             	INCAR	r0x104D
0001a9   481d     rsubar  0x1d             	RSUBAR	r0x104B
0001aa   566d     movra   0x6d             	MOVRA	(_tmp_val + 1)
                                           ;	.line	1006; "MC32P7351.c"	if (tmp_val >= max_pwm_val)
0001ab   586c     movar   0x6c             	MOVAR	_tmp_val
0001ac   5616     movra   0x16             	MOVRA	r0x1044
0001ad   586d     movar   0x6d             	MOVAR	(_tmp_val + 1)
0001ae   5617     movra   0x17             	MOVRA	r0x1045
0001af   761a     clrr    0x1a             	CLRR	r0x1048
0001b0   761b     clrr    0x1b             	CLRR	r0x1049
0001b1   5865     movar   0x65             	MOVAR	(_max_pwm_val + 3)
0001b2   481b     rsubar  0x1b             	RSUBAR	r0x1049
0001b3   e587     jbset   0x187, 0x2       	JBSET	PFLAG,2
0001b4   a1bf     goto    0x1bf            	GOTO	_00941_DS_
0001b5   5864     movar   0x64             	MOVAR	(_max_pwm_val + 2)
0001b6   481a     rsubar  0x1a             	RSUBAR	r0x1048
0001b7   e587     jbset   0x187, 0x2       	JBSET	PFLAG,2
0001b8   a1bf     goto    0x1bf            	GOTO	_00941_DS_
0001b9   5863     movar   0x63             	MOVAR	(_max_pwm_val + 1)
0001ba   4817     rsubar  0x17             	RSUBAR	r0x1045
0001bb   e587     jbset   0x187, 0x2       	JBSET	PFLAG,2
0001bc   a1bf     goto    0x1bf            	GOTO	_00941_DS_
0001bd   5862     movar   0x62             	MOVAR	_max_pwm_val
0001be   4816     rsubar  0x16             	RSUBAR	r0x1044
                                           _00941_DS_
0001bf   e187     jbset   0x187, 0         	JBSET	PFLAG,0
0001c0   a1c3     goto    0x1c3            	GOTO	_00786_DS_
                                           ;;genSkipc:3291: created from rifx:013B5EFC
                                           ;	.line	1009; "MC32P7351.c"	tmp_val = 0;
0001c1   766c     clrr    0x6c             	CLRR	_tmp_val
0001c2   766d     clrr    0x6d             	CLRR	(_tmp_val + 1)
                                           _00786_DS_
                                           ;	.line	1013; "MC32P7351.c"	tmp_val_cnt++;
0001c3   6675     incr    0x75             	INCR	_tmp_val_cnt
                                           ;	.line	1014; "MC32P7351.c"	tmp_val_cnt &= 0x07;
0001c4   3c07     movai   0x7              	MOVAI	0x07
0001c5   7a75     andra   0x75             	ANDRA	_tmp_val_cnt
                                           ;	.line	1015; "MC32P7351.c"	tmp_val_l[tmp_val_cnt] = (tmp_val_l[tmp_val_cnt] + tmp_val) >> 1;
0001c6   d187     bclr    0x187, 0         	BCLR	PFLAG,0
0001c7   5075     rlar    0x75             	RLAR	_tmp_val_cnt
0001c8   5616     movra   0x16             	MOVRA	r0x1044
0001c9   5816     movar   0x16             	MOVAR	r0x1044
0001ca   3f36     addai   0x36             	ADDAI	(_tmp_val_l + 0)
0001cb   5616     movra   0x16             	MOVRA	r0x1044
0001cc   3c00     movai   0                	MOVAI	high (_tmp_val_l + 0)
0001cd   f187     jbclr   0x187, 0         	JBCLR	PFLAG,0
0001ce   3f01     addai   0x1              	ADDAI	0x01
0001cf   5617     movra   0x17             	MOVRA	r0x1045
0001d0   d187     bclr    0x187, 0         	BCLR	PFLAG,0
0001d1   5075     rlar    0x75             	RLAR	_tmp_val_cnt
0001d2   561a     movra   0x1a             	MOVRA	r0x1048
0001d3   581a     movar   0x1a             	MOVAR	r0x1048
0001d4   3f36     addai   0x36             	ADDAI	(_tmp_val_l + 0)
0001d5   561a     movra   0x1a             	MOVRA	r0x1048
0001d6   3c00     movai   0                	MOVAI	high (_tmp_val_l + 0)
0001d7   f187     jbclr   0x187, 0         	JBCLR	PFLAG,0
0001d8   3f01     addai   0x1              	ADDAI	0x01
0001d9   561b     movra   0x1b             	MOVRA	r0x1049
0001da   581a     movar   0x1a             	MOVAR	r0x1048
0001db   5784     movra   0x184            	MOVRA	FSR0
0001dc   581b     movar   0x1b             	MOVAR	r0x1049
0001dd   5785     movra   0x185            	MOVRA	FSR1
0001de   5982     movar   0x182            	MOVAR	INDF2
0001df   561c     movra   0x1c             	MOVRA	r0x104A
0001e0   6784     incr    0x184            	INCR	FSR0
0001e1   f587     jbclr   0x187, 0x2       	JBCLR	PFLAG,2
0001e2   6785     incr    0x185            	INCR	FSR1
0001e3   5982     movar   0x182            	MOVAR	INDF2
0001e4   561b     movra   0x1b             	MOVRA	r0x1049
0001e5   561d     movra   0x1d             	MOVRA	r0x104B
0001e6   586c     movar   0x6c             	MOVAR	_tmp_val
0001e7   7c1c     addar   0x1c             	ADDAR	r0x104A
0001e8   561a     movra   0x1a             	MOVRA	r0x1048
                                           ;;123	MOVAR	r0x104B
0001e9   586d     movar   0x6d             	MOVAR	(_tmp_val + 1)
0001ea   f187     jbclr   0x187, 0         	JBCLR	PFLAG,0
0001eb   606d     jzar    0x6d             	JZAR	(_tmp_val + 1)
0001ec   7e1b     addra   0x1b             	ADDRA	r0x1049
                                           ;;shiftRight_Left2ResultLit:5339: shCount=1, size=2, sign=0, same=0, offr=0
0001ed   d187     bclr    0x187, 0         	BCLR	PFLAG,0
0001ee   4c1b     rrar    0x1b             	RRAR	r0x1049
0001ef   561d     movra   0x1d             	MOVRA	r0x104B
0001f0   4c1a     rrar    0x1a             	RRAR	r0x1048
0001f1   561c     movra   0x1c             	MOVRA	r0x104A
0001f2   5816     movar   0x16             	MOVAR	r0x1044
0001f3   5784     movra   0x184            	MOVRA	FSR0
0001f4   5817     movar   0x17             	MOVAR	r0x1045
0001f5   5785     movra   0x185            	MOVRA	FSR1
0001f6   581c     movar   0x1c             	MOVAR	r0x104A
0001f7   5782     movra   0x182            	MOVRA	INDF2
0001f8   6784     incr    0x184            	INCR	FSR0
0001f9   f587     jbclr   0x187, 0x2       	JBCLR	PFLAG,2
0001fa   6785     incr    0x185            	INCR	FSR1
0001fb   581d     movar   0x1d             	MOVAR	r0x104B
0001fc   5782     movra   0x182            	MOVRA	INDF2
                                           ;	.line	1016; "MC32P7351.c"	tmp_val = 0;
0001fd   766c     clrr    0x6c             	CLRR	_tmp_val
0001fe   766d     clrr    0x6d             	CLRR	(_tmp_val + 1)
                                           ;	.line	1017; "MC32P7351.c"	for (i = 0; i < 8; i++)
0001ff   7674     clrr    0x74             	CLRR	_i
                                           ;;unsigned compare: left < lit(0x8=8), size=1
                                           _00828_DS_
000200   3c08     movai   0x8              	MOVAI	0x08
000201   4874     rsubar  0x74             	RSUBAR	_i
000202   f187     jbclr   0x187, 0         	JBCLR	PFLAG,0
000203   a221     goto    0x221            	GOTO	_00787_DS_
                                           ;;genSkipc:3291: created from rifx:013B5EFC
                                           ;	.line	1019; "MC32P7351.c"	tmp_val += tmp_val_l[i];
000204   d187     bclr    0x187, 0         	BCLR	PFLAG,0
000205   5074     rlar    0x74             	RLAR	_i
000206   5616     movra   0x16             	MOVRA	r0x1044
000207   5816     movar   0x16             	MOVAR	r0x1044
000208   3f36     addai   0x36             	ADDAI	(_tmp_val_l + 0)
000209   5616     movra   0x16             	MOVRA	r0x1044
00020a   3c00     movai   0                	MOVAI	high (_tmp_val_l + 0)
00020b   f187     jbclr   0x187, 0         	JBCLR	PFLAG,0
00020c   3f01     addai   0x1              	ADDAI	0x01
00020d   5617     movra   0x17             	MOVRA	r0x1045
00020e   5816     movar   0x16             	MOVAR	r0x1044
00020f   5784     movra   0x184            	MOVRA	FSR0
000210   5817     movar   0x17             	MOVAR	r0x1045
000211   5785     movra   0x185            	MOVRA	FSR1
000212   5982     movar   0x182            	MOVAR	INDF2
000213   561a     movra   0x1a             	MOVRA	r0x1048
000214   6784     incr    0x184            	INCR	FSR0
000215   f587     jbclr   0x187, 0x2       	JBCLR	PFLAG,2
000216   6785     incr    0x185            	INCR	FSR1
000217   5982     movar   0x182            	MOVAR	INDF2
000218   561b     movra   0x1b             	MOVRA	r0x1049
000219   581a     movar   0x1a             	MOVAR	r0x1048
00021a   7e6c     addra   0x6c             	ADDRA	_tmp_val
00021b   581b     movar   0x1b             	MOVAR	r0x1049
00021c   f187     jbclr   0x187, 0         	JBCLR	PFLAG,0
00021d   601b     jzar    0x1b             	JZAR	r0x1049
00021e   7e6d     addra   0x6d             	ADDRA	(_tmp_val + 1)
                                           ;	.line	1017; "MC32P7351.c"	for (i = 0; i < 8; i++)
00021f   6674     incr    0x74             	INCR	_i
000220   a200     goto    0x200            	GOTO	_00828_DS_
                                           ;;shiftRight_Left2ResultLit:5339: shCount=1, size=2, sign=0, same=1, offr=0
                                           _00787_DS_
                                           ;	.line	1021; "MC32P7351.c"	tmp_val >>= 3;
000221   d187     bclr    0x187, 0         	BCLR	PFLAG,0
000222   4e6d     rrr     0x6d             	RRR	(_tmp_val + 1)
000223   4e6c     rrr     0x6c             	RRR	_tmp_val
                                           ;;shiftRight_Left2ResultLit:5339: shCount=1, size=2, sign=0, same=1, offr=0
000224   d187     bclr    0x187, 0         	BCLR	PFLAG,0
000225   4e6d     rrr     0x6d             	RRR	(_tmp_val + 1)
000226   4e6c     rrr     0x6c             	RRR	_tmp_val
                                           ;;shiftRight_Left2ResultLit:5339: shCount=1, size=2, sign=0, same=1, offr=0
000227   d187     bclr    0x187, 0         	BCLR	PFLAG,0
000228   4e6d     rrr     0x6d             	RRR	(_tmp_val + 1)
000229   4e6c     rrr     0x6c             	RRR	_tmp_val
                                           ;	.line	1023; "MC32P7351.c"	if (tmp_val > last_pwm_val)
00022a   586d     movar   0x6d             	MOVAR	(_tmp_val + 1)
00022b   486b     rsubar  0x6b             	RSUBAR	(_last_pwm_val + 1)
00022c   e587     jbset   0x187, 0x2       	JBSET	PFLAG,2
00022d   a230     goto    0x230            	GOTO	_00943_DS_
00022e   586c     movar   0x6c             	MOVAR	_tmp_val
00022f   486a     rsubar  0x6a             	RSUBAR	_last_pwm_val
                                           _00943_DS_
000230   f187     jbclr   0x187, 0         	JBCLR	PFLAG,0
000231   a236     goto    0x236            	GOTO	_00791_DS_
                                           ;;genSkipc:3291: created from rifx:013B5EFC
                                           ;	.line	1025; "MC32P7351.c"	last_pwm_val = last_pwm_val + 1;
000232   666a     incr    0x6a             	INCR	_last_pwm_val
000233   f587     jbclr   0x187, 0x2       	JBCLR	PFLAG,2
000234   666b     incr    0x6b             	INCR	(_last_pwm_val + 1)
000235   a242     goto    0x242            	GOTO	_00792_DS_
                                           _00791_DS_
                                           ;	.line	1027; "MC32P7351.c"	else if (tmp_val < last_pwm_val)
000236   586b     movar   0x6b             	MOVAR	(_last_pwm_val + 1)
000237   486d     rsubar  0x6d             	RSUBAR	(_tmp_val + 1)
000238   e587     jbset   0x187, 0x2       	JBSET	PFLAG,2
000239   a23c     goto    0x23c            	GOTO	_00944_DS_
00023a   586a     movar   0x6a             	MOVAR	_last_pwm_val
00023b   486c     rsubar  0x6c             	RSUBAR	_tmp_val
                                           _00944_DS_
00023c   f187     jbclr   0x187, 0         	JBCLR	PFLAG,0
00023d   a242     goto    0x242            	GOTO	_00792_DS_
                                           ;;genSkipc:3291: created from rifx:013B5EFC
                                           ;	.line	1029; "MC32P7351.c"	last_pwm_val = last_pwm_val - 1;
00023e   3cff     movai   0xff             	MOVAI	0xff
00023f   7e6a     addra   0x6a             	ADDRA	_last_pwm_val
000240   e187     jbset   0x187, 0         	JBSET	PFLAG,0
000241   6e6b     decr    0x6b             	DECR	(_last_pwm_val + 1)
                                           _00792_DS_
                                           ;	.line	1032; "MC32P7351.c"	T2DATA = last_pwm_val;
000242   586a     movar   0x6a             	MOVAR	_last_pwm_val
000243   57a3     movra   0x1a3            	MOVRA	_T2DATA
000244   a251     goto    0x251            	GOTO	_00803_DS_
                                           _00802_DS_
                                           ;	.line	1036; "MC32P7351.c"	if (FLAG_DURING_CHARGING_BAT_IS_NULL)
000245   ee70     jbset   0x70, 0x7        	JBSET	_flag1,7
000246   a251     goto    0x251            	GOTO	_00803_DS_
                                           ;	.line	1039; "MC32P7351.c"	LED_FULL_CHARGE_ON();
000247   d790     bclr    0x190, 0x3       	BCLR	_IOP0bits,3
                                           ;	.line	1040; "MC32P7351.c"	delay_ms(200);
000248   3cc8     movai   0xc8             	MOVAI	0xc8
000249   5606     movra   0x6              	MOVRA	STK00
00024a   3c00     movai   0                	MOVAI	0x00
00024b   85cb     call    0x5cb            	CALL	_delay_ms
                                           ;	.line	1041; "MC32P7351.c"	LED_FULL_CHARGE_OFF();
00024c   c790     bset    0x190, 0x3       	BSET	_IOP0bits,3
                                           ;	.line	1042; "MC32P7351.c"	delay_ms(200);
00024d   3cc8     movai   0xc8             	MOVAI	0xc8
00024e   5606     movra   0x6              	MOVRA	STK00
00024f   3c00     movai   0                	MOVAI	0x00
000250   85cb     call    0x5cb            	CALL	_delay_ms
                                           _00803_DS_
                                           ;	.line	1046; "MC32P7351.c"	if (flag_is_low_battery && FLAG_IS_DEVICE_OPEN)
000251   e471     jbset   0x71, 0x2        	JBSET	_flag2,2
000252   a270     goto    0x270            	GOTO	_00816_DS_
000253   e070     jbset   0x70, 0          	JBSET	_flag1,0
000254   a270     goto    0x270            	GOTO	_00816_DS_
                                           ;	.line	1048; "MC32P7351.c"	LED_WORKING_OFF();
000255   c994     bset    0x194, 0x4       	BSET	_IOP1bits,4
                                           ;	.line	1051; "MC32P7351.c"	LED_CHARGING_ON();
000256   d990     bclr    0x190, 0x4       	BCLR	_IOP0bits,4
                                           ;	.line	1053; "MC32P7351.c"	for (i = 0; i < 20; i++)
000257   7674     clrr    0x74             	CLRR	_i
                                           ;;unsigned compare: left < lit(0x14=20), size=1
                                           _00831_DS_
000258   3c14     movai   0x14             	MOVAI	0x14
000259   4874     rsubar  0x74             	RSUBAR	_i
00025a   f187     jbclr   0x187, 0         	JBCLR	PFLAG,0
00025b   a263     goto    0x263            	GOTO	_00811_DS_
                                           ;;genSkipc:3291: created from rifx:013B5EFC
                                           ;	.line	1055; "MC32P7351.c"	key_scan_handle();
00025c   83f5     call    0x3f5            	CALL	_key_scan_handle
                                           ;	.line	1056; "MC32P7351.c"	delay_ms(10);
00025d   3c0a     movai   0xa              	MOVAI	0x0a
00025e   5606     movra   0x6              	MOVRA	STK00
00025f   3c00     movai   0                	MOVAI	0x00
000260   85cb     call    0x5cb            	CALL	_delay_ms
                                           ;	.line	1053; "MC32P7351.c"	for (i = 0; i < 20; i++)
000261   6674     incr    0x74             	INCR	_i
000262   a258     goto    0x258            	GOTO	_00831_DS_
                                           _00811_DS_
                                           ;	.line	1059; "MC32P7351.c"	LED_CHARGING_OFF();
000263   c990     bset    0x190, 0x4       	BSET	_IOP0bits,4
                                           ;	.line	1061; "MC32P7351.c"	for (i = 0; i < 20; i++)
000264   7674     clrr    0x74             	CLRR	_i
                                           ;;unsigned compare: left < lit(0x14=20), size=1
                                           _00834_DS_
000265   3c14     movai   0x14             	MOVAI	0x14
000266   4874     rsubar  0x74             	RSUBAR	_i
000267   f187     jbclr   0x187, 0         	JBCLR	PFLAG,0
000268   a270     goto    0x270            	GOTO	_00816_DS_
                                           ;;genSkipc:3291: created from rifx:013B5EFC
                                           ;	.line	1063; "MC32P7351.c"	key_scan_handle();
000269   83f5     call    0x3f5            	CALL	_key_scan_handle
                                           ;	.line	1064; "MC32P7351.c"	delay_ms(10);
00026a   3c0a     movai   0xa              	MOVAI	0x0a
00026b   5606     movra   0x6              	MOVRA	STK00
00026c   3c00     movai   0                	MOVAI	0x00
00026d   85cb     call    0x5cb            	CALL	_delay_ms
                                           ;	.line	1061; "MC32P7351.c"	for (i = 0; i < 20; i++)
00026e   6674     incr    0x74             	INCR	_i
00026f   a265     goto    0x265            	GOTO	_00834_DS_
                                           _00816_DS_
                                           ;	.line	1068; "MC32P7351.c"	if (FLAG_IS_DEVICE_OPEN && FLAG_IS_IN_CHARGING)
000270   e070     jbset   0x70, 0          	JBSET	_flag1,0
000271   a275     goto    0x275            	GOTO	_00819_DS_
000272   e470     jbset   0x70, 0x2        	JBSET	_flag1,2
000273   a275     goto    0x275            	GOTO	_00819_DS_
                                           ;	.line	1071; "MC32P7351.c"	flag_is_low_battery = 0;
000274   d471     bclr    0x71, 0x2        	BCLR	_flag2,2
                                           _00819_DS_
                                           ;	.line	1074; "MC32P7351.c"	low_power_scan_handle();
000275   8279     call    0x279            	CALL	_low_power_scan_handle
                                           ;	.line	1081; "MC32P7351.c"	__endasm;
                                           	;
000276   000e     clrwdt                   	CLRWDT;
                                           	
000277   a052     goto    0x52             	GOTO	_00822_DS_
                                           ;	.line	1084; "MC32P7351.c"	}
000278   000c     return                   	RETURN	
                                           ; exit point of _main
                                           
                                           ;***
                                           ;  pBlock Stats: dbName = C
                                           ;***
                                           ;entry:  _low_power_scan_handle	;Function start
                                           ; 2 exit points
                                           ;has an exit
                                           ;functions called:
                                           ;   _CLR_RAM
                                           ;   _adc_config
                                           ;   _adc_sel_pin
                                           ;   _adc_get_val_once
                                           ;   _Sys_Init
                                           ;   _delay_ms
                                           ;   _CLR_RAM
                                           ;   _adc_config
                                           ;   _adc_sel_pin
                                           ;   _adc_get_val_once
                                           ;   _Sys_Init
                                           ;   _delay_ms
                                           ;1 compiler assigned register :
                                           ;   STK00
                                           ;; Starting pCode block
                                           _low_power_scan_handle	;Function start
                                           ; 2 exit points
                                           ;	.line	725; "MC32P7351.c"	if (FLAG_DURING_CHARGING_BAT_IS_NULL) // 只插着充电器且没有电池时，不进入低功耗
000279   ee70     jbset   0x70, 0x7        	JBSET	_flag1,7
00027a   a27c     goto    0x27c            	GOTO	_00713_DS_
                                           ;	.line	727; "MC32P7351.c"	return;
00027b   a2b6     goto    0x2b6            	GOTO	_00731_DS_
                                           _00713_DS_
                                           ;	.line	730; "MC32P7351.c"	if (FLAG_IS_DEVICE_OPEN)
00027c   e070     jbset   0x70, 0          	JBSET	_flag1,0
00027d   a27f     goto    0x27f            	GOTO	_00715_DS_
                                           ;	.line	733; "MC32P7351.c"	return;
00027e   a2b6     goto    0x2b6            	GOTO	_00731_DS_
                                           _00715_DS_
                                           ;	.line	738; "MC32P7351.c"	if (FLAG_IS_IN_CHARGING)
00027f   e470     jbset   0x70, 0x2        	JBSET	_flag1,2
000280   a282     goto    0x282            	GOTO	_00718_DS_
                                           ;	.line	741; "MC32P7351.c"	return;
000281   a2b6     goto    0x2b6            	GOTO	_00731_DS_
                                           _00718_DS_
                                           ;	.line	745; "MC32P7351.c"	GIE = 0;  // 禁用所有中断
000282   df88     bclr    0x188, 0x7       	BCLR	_MCRbits,7
                                           ;	.line	746; "MC32P7351.c"	T0EN = 0; // 关闭定时器和PWM输出
000283   df98     bclr    0x198, 0x7       	BCLR	_T0CRbits,7
                                           ;	.line	747; "MC32P7351.c"	T1EN = 0;
000284   df9c     bclr    0x19c, 0x7       	BCLR	_T1CRbits,7
                                           ;	.line	748; "MC32P7351.c"	T2EN = 0;
000285   dfa0     bclr    0x1a0, 0x7       	BCLR	_T2CRbits,7
                                           ;	.line	749; "MC32P7351.c"	T3EN = 0;
000286   dfa4     bclr    0x1a4, 0x7       	BCLR	_T3CRbits,7
                                           ;	.line	751; "MC32P7351.c"	PWM0EC = 0;
000287   dd98     bclr    0x198, 0x6       	BCLR	_T0CRbits,6
                                           ;	.line	752; "MC32P7351.c"	PWM1EC = 0;
000288   dd9c     bclr    0x19c, 0x6       	BCLR	_T1CRbits,6
                                           ;	.line	753; "MC32P7351.c"	PWM2EC = 0;
000289   dda0     bclr    0x1a0, 0x6       	BCLR	_T2CRbits,6
                                           ;	.line	754; "MC32P7351.c"	T2DATA = 0;
00028a   77a3     clrr    0x1a3            	CLRR	_T2DATA
                                           ;	.line	755; "MC32P7351.c"	ADEN = 0; // 不使能ad
00028b   d1b0     bclr    0x1b0, 0         	BCLR	_ADCR0bits,0
                                           ;	.line	758; "MC32P7351.c"	P14OE = 0;
00028c   d995     bclr    0x195, 0x4       	BCLR	_OEP1bits,4
                                           ;	.line	759; "MC32P7351.c"	P04OE = 0;
00028d   d991     bclr    0x191, 0x4       	BCLR	_OEP0bits,4
                                           ;	.line	760; "MC32P7351.c"	P03OE = 0;
00028e   d791     bclr    0x191, 0x3       	BCLR	_OEP0bits,3
                                           ;	.line	763; "MC32P7351.c"	P01PU = 1;
00028f   c392     bset    0x192, 0x1       	BSET	_PUP0bits,1
                                           ;	.line	764; "MC32P7351.c"	P01OE = 0;
000290   d391     bclr    0x191, 0x1       	BCLR	_OEP0bits,1
                                           ;	.line	767; "MC32P7351.c"	P00PD = 1;
000291   c193     bset    0x193, 0         	BSET	_PDP0bits,0
                                           ;	.line	768; "MC32P7351.c"	P00OE = 0;
000292   d191     bclr    0x191, 0         	BCLR	_OEP0bits,0
                                           ;	.line	770; "MC32P7351.c"	HFEN = 0; // 关闭高速时钟
000293   d1ae     bclr    0x1ae, 0         	BCLR	_OSCMRbits,0
                                           ;	.line	771; "MC32P7351.c"	LFEN = 1;
000294   c3ae     bset    0x1ae, 0x1       	BSET	_OSCMRbits,1
                                           ;	.line	774; "MC32P7351.c"	Nop();
000295   0000     nop                      	nop	
                                           ;	.line	775; "MC32P7351.c"	Nop();
000296   0000     nop                      	nop	
                                           ;	.line	776; "MC32P7351.c"	Stop();
000297   000b     stop                     	stop	
                                           ;	.line	777; "MC32P7351.c"	Nop();
000298   0000     nop                      	nop	
                                           ;	.line	778; "MC32P7351.c"	Nop();
000299   0000     nop                      	nop	
                                           ;	.line	780; "MC32P7351.c"	HFEN = 1; // 开启高速时钟
00029a   c1ae     bset    0x1ae, 0         	BSET	_OSCMRbits,0
                                           ;	.line	782; "MC32P7351.c"	CLR_RAM();
00029b   85bf     call    0x5bf            	CALL	_CLR_RAM
                                           ;	.line	784; "MC32P7351.c"	adc_config();
00029c   85a3     call    0x5a3            	CALL	_adc_config
                                           ;	.line	785; "MC32P7351.c"	adc_sel_pin(ADC_PIN_P00_AN0);
00029d   3c01     movai   0x1              	MOVAI	0x01
00029e   8567     call    0x567            	CALL	_adc_sel_pin
                                           ;	.line	786; "MC32P7351.c"	adc_val = adc_get_val_once();
00029f   84ae     call    0x4ae            	CALL	_adc_get_val_once
0002a0   5667     movra   0x67             	MOVRA	(_adc_val + 1)
0002a1   5806     movar   0x6              	MOVAR	STK00
0002a2   5666     movra   0x66             	MOVRA	_adc_val
                                           ;;unsigned compare: left < lit(0x800=2048), size=2
                                           ;	.line	787; "MC32P7351.c"	if (adc_val < ADCDETECT_CHARING_THRESHOLD && P01D) // 如果按下开机按键/插入充电器，不会满足条件
0002a3   3c08     movai   0x8              	MOVAI	0x08
0002a4   4867     rsubar  0x67             	RSUBAR	(_adc_val + 1)
0002a5   e587     jbset   0x187, 0x2       	JBSET	PFLAG,2
0002a6   a2a9     goto    0x2a9            	GOTO	_00753_DS_
0002a7   3c00     movai   0                	MOVAI	0x00
0002a8   4866     rsubar  0x66             	RSUBAR	_adc_val
                                           _00753_DS_
0002a9   f187     jbclr   0x187, 0         	JBCLR	PFLAG,0
0002aa   a2ad     goto    0x2ad            	GOTO	_00720_DS_
                                           ;;genSkipc:3291: created from rifx:013B5EFC
0002ab   f390     jbclr   0x190, 0x1       	JBCLR	_IOP0bits,1
0002ac   a282     goto    0x282            	GOTO	_00718_DS_
                                           _00720_DS_
                                           ;	.line	813; "MC32P7351.c"	Sys_Init();
0002ad   84a3     call    0x4a3            	CALL	_Sys_Init
                                           ;	.line	815; "MC32P7351.c"	LED_WORKING_OFF();
0002ae   c994     bset    0x194, 0x4       	BSET	_IOP1bits,4
                                           ;	.line	816; "MC32P7351.c"	LED_FULL_CHARGE_OFF();
0002af   c790     bset    0x190, 0x3       	BSET	_IOP0bits,3
                                           ;	.line	817; "MC32P7351.c"	LED_CHARGING_OFF();
0002b0   c990     bset    0x190, 0x4       	BSET	_IOP0bits,4
                                           ;	.line	818; "MC32P7351.c"	GIE = 1;
0002b1   cf88     bset    0x188, 0x7       	BSET	_MCRbits,7
                                           ;	.line	820; "MC32P7351.c"	delay_ms(100); // 等待系统稳定
0002b2   3c64     movai   0x64             	MOVAI	0x64
0002b3   5606     movra   0x6              	MOVRA	STK00
0002b4   3c00     movai   0                	MOVAI	0x00
0002b5   85cb     call    0x5cb            	CALL	_delay_ms
                                           _00731_DS_
                                           ;	.line	821; "MC32P7351.c"	}
0002b6   000c     return                   	RETURN	
                                           ; exit point of _low_power_scan_handle
                                           
                                           ;***
                                           ;  pBlock Stats: dbName = C
                                           ;***
                                           ;entry:  _shutdown_scan_handle	;Function start
                                           ; 2 exit points
                                           ;has an exit
                                           ;; Starting pCode block
                                           _shutdown_scan_handle	;Function start
                                           ; 2 exit points
                                           ;	.line	697; "MC32P7351.c"	if (FLAG_IS_DEVICE_OPEN)
0002b7   e070     jbset   0x70, 0          	JBSET	_flag1,0
0002b8   a2d2     goto    0x2d2            	GOTO	_00695_DS_
                                           ;;unsigned compare: left < lit(0xDBBA0=900000), size=4
                                           ;	.line	701; "MC32P7351.c"	if (shut_down_ms_cnt >= 900000)
0002b9   3c00     movai   0                	MOVAI	0x00
0002ba   485d     rsubar  0x5d             	RSUBAR	(_shut_down_ms_cnt + 3)
0002bb   e587     jbset   0x187, 0x2       	JBSET	PFLAG,2
0002bc   a2c7     goto    0x2c7            	GOTO	_00707_DS_
0002bd   3c0d     movai   0xd              	MOVAI	0x0d
0002be   485c     rsubar  0x5c             	RSUBAR	(_shut_down_ms_cnt + 2)
0002bf   e587     jbset   0x187, 0x2       	JBSET	PFLAG,2
0002c0   a2c7     goto    0x2c7            	GOTO	_00707_DS_
0002c1   3cbb     movai   0xbb             	MOVAI	0xbb
0002c2   485b     rsubar  0x5b             	RSUBAR	(_shut_down_ms_cnt + 1)
0002c3   e587     jbset   0x187, 0x2       	JBSET	PFLAG,2
0002c4   a2c7     goto    0x2c7            	GOTO	_00707_DS_
0002c5   3ca0     movai   0xa0             	MOVAI	0xa0
0002c6   485a     rsubar  0x5a             	RSUBAR	_shut_down_ms_cnt
                                           _00707_DS_
0002c7   e187     jbset   0x187, 0         	JBSET	PFLAG,0
0002c8   a2d6     goto    0x2d6            	GOTO	_00697_DS_
                                           ;;genSkipc:3291: created from rifx:013B5EFC
                                           ;	.line	705; "MC32P7351.c"	LED_WORKING_OFF(); // 关闭电源指示灯
0002c9   c994     bset    0x194, 0x4       	BSET	_IOP1bits,4
                                           ;	.line	706; "MC32P7351.c"	HEATING_OFF();     // 关闭加热
0002ca   d594     bclr    0x194, 0x2       	BCLR	_IOP1bits,2
                                           ;	.line	707; "MC32P7351.c"	FLAG_IS_HEATING = 0;
0002cb   d270     bclr    0x70, 0x1        	BCLR	_flag1,1
                                           ;	.line	708; "MC32P7351.c"	mode_flag = MODE_3; // 下一次切换模式时，会变成 MODE_1
0002cc   3c02     movai   0x2              	MOVAI	0x02
0002cd   5672     movra   0x72             	MOVRA	_mode_flag
                                           ;	.line	710; "MC32P7351.c"	PWM0EC = 0;
0002ce   dd98     bclr    0x198, 0x6       	BCLR	_T0CRbits,6
                                           ;	.line	711; "MC32P7351.c"	PWM1EC = 0;
0002cf   dd9c     bclr    0x19c, 0x6       	BCLR	_T1CRbits,6
                                           ;	.line	713; "MC32P7351.c"	FLAG_IS_DEVICE_OPEN = 0;
0002d0   d070     bclr    0x70, 0          	BCLR	_flag1,0
0002d1   a2d6     goto    0x2d6            	GOTO	_00697_DS_
                                           _00695_DS_
                                           ;	.line	719; "MC32P7351.c"	shut_down_ms_cnt = 0;
0002d2   765a     clrr    0x5a             	CLRR	_shut_down_ms_cnt
0002d3   765b     clrr    0x5b             	CLRR	(_shut_down_ms_cnt + 1)
0002d4   765c     clrr    0x5c             	CLRR	(_shut_down_ms_cnt + 2)
0002d5   765d     clrr    0x5d             	CLRR	(_shut_down_ms_cnt + 3)
                                           _00697_DS_
                                           ;	.line	721; "MC32P7351.c"	}
0002d6   000c     return                   	RETURN	
                                           ; exit point of _shutdown_scan_handle
                                           
                                           ;***
                                           ;  pBlock Stats: dbName = C
                                           ;***
                                           ;entry:  _turn_dir_scan_handle	;Function start
                                           ; 2 exit points
                                           ;has an exit
                                           ;functions called:
                                           ;   _delay_ms
                                           ;   _delay_ms
                                           ;   _delay_ms
                                           ;   _delay_ms
                                           ;1 compiler assigned register :
                                           ;   STK00
                                           ;; Starting pCode block
                                           _turn_dir_scan_handle	;Function start
                                           ; 2 exit points
                                           ;	.line	661; "MC32P7351.c"	if (FLAG_IS_DEVICE_OPEN)
0002d7   e070     jbset   0x70, 0          	JBSET	_flag1,0
0002d8   a2ff     goto    0x2ff            	GOTO	_00665_DS_
                                           ;;unsigned compare: left < lit(0x1D4C0=120000), size=4
                                           ;	.line	665; "MC32P7351.c"	if (turn_dir_ms_cnt >= (120000)) // 原本设定是2min
0002d9   3c00     movai   0                	MOVAI	0x00
0002da   4859     rsubar  0x59             	RSUBAR	(_turn_dir_ms_cnt + 3)
0002db   e587     jbset   0x187, 0x2       	JBSET	PFLAG,2
0002dc   a2e7     goto    0x2e7            	GOTO	_00681_DS_
0002dd   3c01     movai   0x1              	MOVAI	0x01
0002de   4858     rsubar  0x58             	RSUBAR	(_turn_dir_ms_cnt + 2)
0002df   e587     jbset   0x187, 0x2       	JBSET	PFLAG,2
0002e0   a2e7     goto    0x2e7            	GOTO	_00681_DS_
0002e1   3cd4     movai   0xd4             	MOVAI	0xd4
0002e2   4857     rsubar  0x57             	RSUBAR	(_turn_dir_ms_cnt + 1)
0002e3   e587     jbset   0x187, 0x2       	JBSET	PFLAG,2
0002e4   a2e7     goto    0x2e7            	GOTO	_00681_DS_
0002e5   3cc0     movai   0xc0             	MOVAI	0xc0
0002e6   4856     rsubar  0x56             	RSUBAR	_turn_dir_ms_cnt
                                           _00681_DS_
0002e7   e187     jbset   0x187, 0         	JBSET	PFLAG,0
0002e8   a303     goto    0x303            	GOTO	_00667_DS_
                                           ;;genSkipc:3291: created from rifx:013B5EFC
                                           ;	.line	668; "MC32P7351.c"	if (0 == FLAG_DIR)
0002e9   f670     jbclr   0x70, 0x3        	JBCLR	_flag1,3
0002ea   a2f3     goto    0x2f3            	GOTO	_00660_DS_
                                           ;	.line	671; "MC32P7351.c"	PWM0EC = 0; // 关闭驱动正转的pwm
0002eb   dd98     bclr    0x198, 0x6       	BCLR	_T0CRbits,6
                                           ;	.line	672; "MC32P7351.c"	delay_ms(500);
0002ec   3cf4     movai   0xf4             	MOVAI	0xf4
0002ed   5606     movra   0x6              	MOVRA	STK00
0002ee   3c01     movai   0x1              	MOVAI	0x01
0002ef   85cb     call    0x5cb            	CALL	_delay_ms
                                           ;	.line	673; "MC32P7351.c"	PWM1EC = 1;   // 打开驱动反转的pwm
0002f0   cd9c     bset    0x19c, 0x6       	BSET	_T1CRbits,6
                                           ;	.line	674; "MC32P7351.c"	FLAG_DIR = 1; // 表示当前为反转
0002f1   c670     bset    0x70, 0x3        	BSET	_flag1,3
0002f2   a2fa     goto    0x2fa            	GOTO	_00661_DS_
                                           _00660_DS_
                                           ;	.line	679; "MC32P7351.c"	PWM1EC = 0; // 关闭驱动反转的pwm
0002f3   dd9c     bclr    0x19c, 0x6       	BCLR	_T1CRbits,6
                                           ;	.line	680; "MC32P7351.c"	delay_ms(500);
0002f4   3cf4     movai   0xf4             	MOVAI	0xf4
0002f5   5606     movra   0x6              	MOVRA	STK00
0002f6   3c01     movai   0x1              	MOVAI	0x01
0002f7   85cb     call    0x5cb            	CALL	_delay_ms
                                           ;	.line	681; "MC32P7351.c"	PWM0EC = 1;   // 打开驱动正转的pwm
0002f8   cd98     bset    0x198, 0x6       	BSET	_T0CRbits,6
                                           ;	.line	682; "MC32P7351.c"	FLAG_DIR = 0; // 表示当前为正转
0002f9   d670     bclr    0x70, 0x3        	BCLR	_flag1,3
                                           _00661_DS_
                                           ;	.line	685; "MC32P7351.c"	turn_dir_ms_cnt = 0;
0002fa   7656     clrr    0x56             	CLRR	_turn_dir_ms_cnt
0002fb   7657     clrr    0x57             	CLRR	(_turn_dir_ms_cnt + 1)
0002fc   7658     clrr    0x58             	CLRR	(_turn_dir_ms_cnt + 2)
0002fd   7659     clrr    0x59             	CLRR	(_turn_dir_ms_cnt + 3)
0002fe   a303     goto    0x303            	GOTO	_00667_DS_
                                           _00665_DS_
                                           ;	.line	690; "MC32P7351.c"	turn_dir_ms_cnt = 0; // 设备未运行时，清空计数值
0002ff   7656     clrr    0x56             	CLRR	_turn_dir_ms_cnt
000300   7657     clrr    0x57             	CLRR	(_turn_dir_ms_cnt + 1)
000301   7658     clrr    0x58             	CLRR	(_turn_dir_ms_cnt + 2)
000302   7659     clrr    0x59             	CLRR	(_turn_dir_ms_cnt + 3)
                                           _00667_DS_
                                           ;	.line	692; "MC32P7351.c"	}
000303   000c     return                   	RETURN	
                                           ; exit point of _turn_dir_scan_handle
                                           
                                           ;***
                                           ;  pBlock Stats: dbName = C
                                           ;***
                                           ;entry:  _adc_scan_handle	;Function start
                                           ; 2 exit points
                                           ;has an exit
                                           ;functions called:
                                           ;   _adc_sel_pin
                                           ;   _adc_get_val
                                           ;   _key_scan_handle
                                           ;   _adc_sel_pin
                                           ;   _adc_get_val
                                           ;   _key_scan_handle
                                           ;   _adc_sel_pin
                                           ;   _adc_get_val
                                           ;   _key_scan_handle
                                           ;   _adc_sel_pin
                                           ;   _adc_get_val
                                           ;   _key_scan_handle
                                           ;1 compiler assigned register :
                                           ;   STK00
                                           ;; Starting pCode block
                                           _adc_scan_handle	;Function start
                                           ; 2 exit points
                                           ;	.line	435; "MC32P7351.c"	volatile u8 cnt = 0;             // 计数值，用于检测电池是否满电，也是用于检测是否插入/拔出充电器的计数值
000304   7623     clrr    0x23             	CLRR	_adc_scan_handle_cnt_65536_73
                                           ;	.line	436; "MC32P7351.c"	volatile u8 need_charge_cnt = 0; // 计数值，用于检测是否要快速充电
000305   7624     clrr    0x24             	CLRR	_adc_scan_handle_need_charge_cnt_65536_73
                                           ;	.line	438; "MC32P7351.c"	adc_bat_val = 0;
000306   765e     clrr    0x5e             	CLRR	_adc_bat_val
000307   765f     clrr    0x5f             	CLRR	(_adc_bat_val + 1)
000308   7660     clrr    0x60             	CLRR	(_adc_bat_val + 2)
000309   7661     clrr    0x61             	CLRR	(_adc_bat_val + 3)
                                           ;	.line	439; "MC32P7351.c"	adc_charging_val = 0;
00030a   7668     clrr    0x68             	CLRR	_adc_charging_val
00030b   7669     clrr    0x69             	CLRR	(_adc_charging_val + 1)
                                           ;	.line	441; "MC32P7351.c"	adc_sel_pin(ADC_PIN_P02_AN1); // 切换到检测电池降压后的电压的检测引脚
00030c   3c02     movai   0x2              	MOVAI	0x02
00030d   8567     call    0x567            	CALL	_adc_sel_pin
                                           ;	.line	442; "MC32P7351.c"	for (i = 0; i < 10; i++)      //  // 每55ms进入一次，循环内每次间隔约4.8ms
00030e   7674     clrr    0x74             	CLRR	_i
                                           ;;unsigned compare: left < lit(0xA=10), size=1
                                           _00508_DS_
00030f   3c0a     movai   0xa              	MOVAI	0x0a
000310   4874     rsubar  0x74             	RSUBAR	_i
000311   f187     jbclr   0x187, 0         	JBCLR	PFLAG,0
000312   a393     goto    0x393            	GOTO	_00464_DS_
                                           ;;genSkipc:3291: created from rifx:013B5EFC
                                           ;	.line	444; "MC32P7351.c"	adc_val = adc_get_val();
000313   84ca     call    0x4ca            	CALL	_adc_get_val
000314   5667     movra   0x67             	MOVRA	(_adc_val + 1)
000315   5806     movar   0x6              	MOVAR	STK00
000316   5666     movra   0x66             	MOVRA	_adc_val
                                           ;	.line	446; "MC32P7351.c"	if (i == 0)
000317   3c00     movai   0                	MOVAI	0x00
000318   5c74     orar    0x74             	ORAR	_i
000319   e587     jbset   0x187, 0x2       	JBSET	PFLAG,2
00031a   a321     goto    0x321            	GOTO	_00417_DS_
                                           ;	.line	448; "MC32P7351.c"	adc_bat_val = adc_val;
00031b   5866     movar   0x66             	MOVAR	_adc_val
00031c   565e     movra   0x5e             	MOVRA	_adc_bat_val
00031d   5867     movar   0x67             	MOVAR	(_adc_val + 1)
00031e   565f     movra   0x5f             	MOVRA	(_adc_bat_val + 1)
00031f   7660     clrr    0x60             	CLRR	(_adc_bat_val + 2)
000320   7661     clrr    0x61             	CLRR	(_adc_bat_val + 3)
                                           _00417_DS_
                                           ;	.line	451; "MC32P7351.c"	if (FLAG_IS_IN_CHARGING)
000321   e470     jbset   0x70, 0x2        	JBSET	_flag1,2
000322   a36d     goto    0x36d            	GOTO	_00462_DS_
                                           ;;unsigned compare: left < lit(0xFA0=4000), size=2
                                           ;	.line	454; "MC32P7351.c"	if (adc_val >= ADCDETECT_BAT_FULL + ADCDETECT_BAT_NULL_EX)
000323   3c0f     movai   0xf              	MOVAI	0x0f
000324   4867     rsubar  0x67             	RSUBAR	(_adc_val + 1)
000325   e587     jbset   0x187, 0x2       	JBSET	PFLAG,2
000326   a329     goto    0x329            	GOTO	_00640_DS_
000327   3ca0     movai   0xa0             	MOVAI	0xa0
000328   4866     rsubar  0x66             	RSUBAR	_adc_val
                                           _00640_DS_
000329   e187     jbset   0x187, 0         	JBSET	PFLAG,0
00032a   a32d     goto    0x32d            	GOTO	_00419_DS_
                                           ;;genSkipc:3291: created from rifx:013B5EFC
                                           ;	.line	457; "MC32P7351.c"	T2DATA = 0;
00032b   77a3     clrr    0x1a3            	CLRR	_T2DATA
                                           ;	.line	458; "MC32P7351.c"	over_charging_cnt++;
00032c   6677     incr    0x77             	INCR	_over_charging_cnt
                                           ;;unsigned compare: left < lit(0xE88=3720), size=2
                                           _00419_DS_
                                           ;	.line	461; "MC32P7351.c"	if (adc_val >= ADCDETECT_BAT_FULL) // 检测电池是否满电
00032d   3c0e     movai   0xe              	MOVAI	0x0e
00032e   4867     rsubar  0x67             	RSUBAR	(_adc_val + 1)
00032f   e587     jbset   0x187, 0x2       	JBSET	PFLAG,2
000330   a333     goto    0x333            	GOTO	_00641_DS_
000331   3c88     movai   0x88             	MOVAI	0x88
000332   4866     rsubar  0x66             	RSUBAR	_adc_val
                                           _00641_DS_
000333   e187     jbset   0x187, 0         	JBSET	PFLAG,0
000334   a337     goto    0x337            	GOTO	_00423_DS_
                                           ;;genSkipc:3291: created from rifx:013B5EFC
                                           ;	.line	463; "MC32P7351.c"	cnt++;
000335   6623     incr    0x23             	INCR	_adc_scan_handle_cnt_65536_73
000336   a340     goto    0x340            	GOTO	_00424_DS_
                                           ;;unsigned compare: left < lit(0xD90=3472), size=2
                                           _00423_DS_
                                           ;	.line	465; "MC32P7351.c"	else if (adc_val < ADCDETECT_BAT_WILL_FULL) // 检测是否要快速充电
000337   3c0d     movai   0xd              	MOVAI	0x0d
000338   4867     rsubar  0x67             	RSUBAR	(_adc_val + 1)
000339   e587     jbset   0x187, 0x2       	JBSET	PFLAG,2
00033a   a33d     goto    0x33d            	GOTO	_00642_DS_
00033b   3c90     movai   0x90             	MOVAI	0x90
00033c   4866     rsubar  0x66             	RSUBAR	_adc_val
                                           _00642_DS_
00033d   f187     jbclr   0x187, 0         	JBCLR	PFLAG,0
00033e   a340     goto    0x340            	GOTO	_00424_DS_
                                           ;;genSkipc:3291: created from rifx:013B5EFC
                                           ;	.line	467; "MC32P7351.c"	need_charge_cnt++;
00033f   6624     incr    0x24             	INCR	_adc_scan_handle_need_charge_cnt_65536_73
                                           _00424_DS_
                                           ;	.line	470; "MC32P7351.c"	if (flag_bat_is_empty)
000340   3c00     movai   0                	MOVAI	0x00
000341   5c76     orar    0x76             	ORAR	_flag_bat_is_empty
000342   f587     jbclr   0x187, 0x2       	JBCLR	PFLAG,2
000343   a34a     goto    0x34a            	GOTO	_00450_DS_
                                           ;	.line	474; "MC32P7351.c"	LED_CHARGING_OFF(); // 关闭充电指示灯
000344   c990     bset    0x190, 0x4       	BSET	_IOP0bits,4
                                           ;	.line	475; "MC32P7351.c"	PWM2EC = 0;         // 关闭控制升压电路的pwm（建议是，插上充钱器时，不关闭控制升压电路的PWM，但是在测试时，充电一侧会严重发热）
000345   dda0     bclr    0x1a0, 0x6       	BCLR	_T2CRbits,6
                                           ;	.line	476; "MC32P7351.c"	T2DATA = 0;
000346   77a3     clrr    0x1a3            	CLRR	_T2DATA
                                           ;	.line	477; "MC32P7351.c"	FLAG_BAT_IS_NEED_CHARGE = 0;
000347   d870     bclr    0x70, 0x4        	BCLR	_flag1,4
                                           ;	.line	478; "MC32P7351.c"	FLAG_DURING_CHARGING_BAT_IS_NULL = 1; // 标志位置一，在主循环让绿灯快闪
000348   ce70     bset    0x70, 0x7        	BSET	_flag1,7
                                           ;	.line	480; "MC32P7351.c"	break;
000349   a393     goto    0x393            	GOTO	_00464_DS_
                                           ;;unsigned compare: left < lit(0x8=8), size=1
                                           _00450_DS_
                                           ;	.line	482; "MC32P7351.c"	else if (cnt >= 8 || over_charging_cnt >= 8)
00034a   3c08     movai   0x8              	MOVAI	0x08
00034b   4823     rsubar  0x23             	RSUBAR	_adc_scan_handle_cnt_65536_73
00034c   f187     jbclr   0x187, 0         	JBCLR	PFLAG,0
00034d   a352     goto    0x352            	GOTO	_00445_DS_
                                           ;;genSkipc:3291: created from rifx:013B5EFC
                                           ;;unsigned compare: left < lit(0x8=8), size=1
00034e   3c08     movai   0x8              	MOVAI	0x08
00034f   4877     rsubar  0x77             	RSUBAR	_over_charging_cnt
000350   e187     jbset   0x187, 0         	JBSET	PFLAG,0
000351   a365     goto    0x365            	GOTO	_00446_DS_
                                           ;;genSkipc:3291: created from rifx:013B5EFC
                                           _00445_DS_
                                           ;	.line	485; "MC32P7351.c"	full_charge_cnt++;
000352   6678     incr    0x78             	INCR	_full_charge_cnt
                                           ;;unsigned compare: left < lit(0x64=100), size=1
                                           ;	.line	486; "MC32P7351.c"	if (full_charge_cnt >= 100 || over_charging_cnt >= 8) // 5.5s或者是连续触发了若干次过充保护
000353   3c64     movai   0x64             	MOVAI	0x64
000354   4878     rsubar  0x78             	RSUBAR	_full_charge_cnt
000355   f187     jbclr   0x187, 0         	JBCLR	PFLAG,0
000356   a35b     goto    0x35b            	GOTO	_00437_DS_
                                           ;;genSkipc:3291: created from rifx:013B5EFC
                                           ;;unsigned compare: left < lit(0x8=8), size=1
000357   3c08     movai   0x8              	MOVAI	0x08
000358   4877     rsubar  0x77             	RSUBAR	_over_charging_cnt
000359   e187     jbset   0x187, 0         	JBSET	PFLAG,0
00035a   a390     goto    0x390            	GOTO	_00463_DS_
                                           ;;genSkipc:3291: created from rifx:013B5EFC
                                           _00437_DS_
                                           ;	.line	488; "MC32P7351.c"	full_charge_cnt = 0; //
00035b   7678     clrr    0x78             	CLRR	_full_charge_cnt
                                           ;	.line	490; "MC32P7351.c"	if (FLAG_IS_DEVICE_OPEN)
00035c   f070     jbclr   0x70, 0          	JBCLR	_flag1,0
00035d   a360     goto    0x360            	GOTO	_00436_DS_
                                           ;	.line	496; "MC32P7351.c"	LED_CHARGING_OFF(); // 关闭充电指示灯
00035e   c990     bset    0x190, 0x4       	BSET	_IOP0bits,4
                                           ;	.line	498; "MC32P7351.c"	LED_FULL_CHARGE_ON(); // 开启电池充满电的指示灯
00035f   d790     bclr    0x190, 0x3       	BCLR	_IOP0bits,3
                                           _00436_DS_
                                           ;	.line	501; "MC32P7351.c"	PWM2EC = 0; // 关闭控制升压电路的pwm
000360   dda0     bclr    0x1a0, 0x6       	BCLR	_T2CRbits,6
                                           ;	.line	502; "MC32P7351.c"	T2DATA = 0;
000361   77a3     clrr    0x1a3            	CLRR	_T2DATA
                                           ;	.line	504; "MC32P7351.c"	FLAG_BAT_IS_NEED_CHARGE = 0;
000362   d870     bclr    0x70, 0x4        	BCLR	_flag1,4
                                           ;	.line	505; "MC32P7351.c"	FLAG_BAT_IS_FULL = 1;
000363   ca70     bset    0x70, 0x5        	BSET	_flag1,5
                                           ;	.line	506; "MC32P7351.c"	break;
000364   a393     goto    0x393            	GOTO	_00464_DS_
                                           ;;unsigned compare: left < lit(0x8=8), size=1
                                           _00446_DS_
                                           ;	.line	509; "MC32P7351.c"	else if (need_charge_cnt >= 8)
000365   3c08     movai   0x8              	MOVAI	0x08
000366   4824     rsubar  0x24             	RSUBAR	_adc_scan_handle_need_charge_cnt_65536_73
000367   e187     jbset   0x187, 0         	JBSET	PFLAG,0
000368   a390     goto    0x390            	GOTO	_00463_DS_
                                           ;;genSkipc:3291: created from rifx:013B5EFC
                                           ;	.line	513; "MC32P7351.c"	LED_FULL_CHARGE_OFF(); // 关闭充满电的指示灯
000369   c790     bset    0x190, 0x3       	BSET	_IOP0bits,3
                                           ;	.line	514; "MC32P7351.c"	FLAG_BAT_IS_NEED_CHARGE = 1;
00036a   c870     bset    0x70, 0x4        	BSET	_flag1,4
                                           ;	.line	515; "MC32P7351.c"	FLAG_BAT_IS_FULL = 0;
00036b   da70     bclr    0x70, 0x5        	BCLR	_flag1,5
                                           ;	.line	516; "MC32P7351.c"	break;
00036c   a393     goto    0x393            	GOTO	_00464_DS_
                                           _00462_DS_
                                           ;	.line	522; "MC32P7351.c"	if (flag_bat_is_empty == 0 && adc_val <= ADCDETECT_BAT_FULL - ((ADCDETECT_BAT_FULL - ADCDETECT_BAT_WILL_FULL) / 2))
00036d   3c00     movai   0                	MOVAI	0x00
00036e   5c76     orar    0x76             	ORAR	_flag_bat_is_empty
00036f   e587     jbset   0x187, 0x2       	JBSET	PFLAG,2
000370   a37a     goto    0x37a            	GOTO	_00453_DS_
                                           ;;swapping arguments (AOP_TYPEs 1/3)
                                           ;;unsigned compare: left >= lit(0xE0D=3597), size=2
000371   3c0e     movai   0xe              	MOVAI	0x0e
000372   4867     rsubar  0x67             	RSUBAR	(_adc_val + 1)
000373   e587     jbset   0x187, 0x2       	JBSET	PFLAG,2
000374   a377     goto    0x377            	GOTO	_00648_DS_
000375   3c0d     movai   0xd              	MOVAI	0x0d
000376   4866     rsubar  0x66             	RSUBAR	_adc_val
                                           _00648_DS_
000377   f187     jbclr   0x187, 0         	JBCLR	PFLAG,0
000378   a37a     goto    0x37a            	GOTO	_00453_DS_
                                           ;;genSkipc:3291: created from rifx:013B5EFC
                                           ;	.line	524; "MC32P7351.c"	cnt++;
000379   6623     incr    0x23             	INCR	_adc_scan_handle_cnt_65536_73
                                           ;;unsigned compare: left < lit(0x8=8), size=1
                                           _00453_DS_
                                           ;	.line	527; "MC32P7351.c"	if (cnt >= 8)
00037a   3c08     movai   0x8              	MOVAI	0x08
00037b   4823     rsubar  0x23             	RSUBAR	_adc_scan_handle_cnt_65536_73
00037c   e187     jbset   0x187, 0         	JBSET	PFLAG,0
00037d   a381     goto    0x381            	GOTO	_00456_DS_
                                           ;;genSkipc:3291: created from rifx:013B5EFC
                                           ;	.line	530; "MC32P7351.c"	FLAG_BAT_IS_NEED_CHARGE = 1;
00037e   c870     bset    0x70, 0x4        	BSET	_flag1,4
                                           ;	.line	531; "MC32P7351.c"	FLAG_BAT_IS_FULL = 0;
00037f   da70     bclr    0x70, 0x5        	BCLR	_flag1,5
                                           ;	.line	532; "MC32P7351.c"	break;
000380   a393     goto    0x393            	GOTO	_00464_DS_
                                           _00456_DS_
                                           ;	.line	536; "MC32P7351.c"	if (flag_bat_is_empty == 0 &&
000381   3c00     movai   0                	MOVAI	0x00
000382   5c76     orar    0x76             	ORAR	_flag_bat_is_empty
000383   e587     jbset   0x187, 0x2       	JBSET	PFLAG,2
000384   a390     goto    0x390            	GOTO	_00463_DS_
                                           ;	.line	537; "MC32P7351.c"	FLAG_IS_DEVICE_OPEN &&
000385   e070     jbset   0x70, 0          	JBSET	_flag1,0
000386   a390     goto    0x390            	GOTO	_00463_DS_
                                           ;;unsigned compare: left < lit(0xBEF=3055), size=2
                                           ;	.line	538; "MC32P7351.c"	adc_val < LOW_BATTERY_AD_VAL)
000387   3c0b     movai   0xb              	MOVAI	0x0b
000388   4867     rsubar  0x67             	RSUBAR	(_adc_val + 1)
000389   e587     jbset   0x187, 0x2       	JBSET	PFLAG,2
00038a   a38d     goto    0x38d            	GOTO	_00650_DS_
00038b   3cef     movai   0xef             	MOVAI	0xef
00038c   4866     rsubar  0x66             	RSUBAR	_adc_val
                                           _00650_DS_
00038d   f187     jbclr   0x187, 0         	JBCLR	PFLAG,0
00038e   a390     goto    0x390            	GOTO	_00463_DS_
                                           ;;genSkipc:3291: created from rifx:013B5EFC
                                           ;	.line	540; "MC32P7351.c"	flag_is_low_battery = 1;
00038f   c471     bset    0x71, 0x2        	BSET	_flag2,2
                                           _00463_DS_
                                           ;	.line	544; "MC32P7351.c"	key_scan_handle(); // 按键扫描和处理函数
000390   83f5     call    0x3f5            	CALL	_key_scan_handle
                                           ;	.line	442; "MC32P7351.c"	for (i = 0; i < 10; i++)      //  // 每55ms进入一次，循环内每次间隔约4.8ms
000391   6674     incr    0x74             	INCR	_i
000392   a30f     goto    0x30f            	GOTO	_00508_DS_
                                           _00464_DS_
                                           ;	.line	547; "MC32P7351.c"	cnt = 0;
000393   7623     clrr    0x23             	CLRR	_adc_scan_handle_cnt_65536_73
                                           ;	.line	548; "MC32P7351.c"	adc_sel_pin(ADC_PIN_P00_AN0); // 切换到检测充电的电压检测引脚(检测到的充电电压 == USB-C口电压 / 2)
000394   3c01     movai   0x1              	MOVAI	0x01
000395   8567     call    0x567            	CALL	_adc_sel_pin
                                           ;	.line	549; "MC32P7351.c"	for (i = 0; i < 10; i++)
000396   7674     clrr    0x74             	CLRR	_i
                                           ;;unsigned compare: left < lit(0xA=10), size=1
                                           _00511_DS_
000397   3c0a     movai   0xa              	MOVAI	0x0a
000398   4874     rsubar  0x74             	RSUBAR	_i
000399   f187     jbclr   0x187, 0         	JBCLR	PFLAG,0
00039a   a3f4     goto    0x3f4            	GOTO	_00513_DS_
                                           ;;genSkipc:3291: created from rifx:013B5EFC
                                           ;	.line	551; "MC32P7351.c"	adc_val = adc_get_val();
00039b   84ca     call    0x4ca            	CALL	_adc_get_val
00039c   5667     movra   0x67             	MOVRA	(_adc_val + 1)
00039d   5806     movar   0x6              	MOVAR	STK00
00039e   5666     movra   0x66             	MOVRA	_adc_val
                                           ;	.line	552; "MC32P7351.c"	if (flag_bat_is_empty) // 如果电池为空
00039f   3c00     movai   0                	MOVAI	0x00
0003a0   5c76     orar    0x76             	ORAR	_flag_bat_is_empty
0003a1   f587     jbclr   0x187, 0x2       	JBCLR	PFLAG,2
0003a2   a3a7     goto    0x3a7            	GOTO	_00466_DS_
                                           ;	.line	554; "MC32P7351.c"	adc_val = 4095; // 防止进入下面的if (adc_val < ADCDETECT_CHARING_THRESHOLD)
0003a3   3cff     movai   0xff             	MOVAI	0xff
0003a4   5666     movra   0x66             	MOVRA	_adc_val
0003a5   3c0f     movai   0xf              	MOVAI	0x0f
0003a6   5667     movra   0x67             	MOVRA	(_adc_val + 1)
                                           _00466_DS_
                                           ;	.line	557; "MC32P7351.c"	if (adc_charging_val != 0)
0003a7   5868     movar   0x68             	MOVAR	_adc_charging_val
0003a8   5c69     orar    0x69             	ORAR	(_adc_charging_val + 1)
0003a9   f587     jbclr   0x187, 0x2       	JBCLR	PFLAG,2
0003aa   a3b5     goto    0x3b5            	GOTO	_00468_DS_
                                           ;	.line	559; "MC32P7351.c"	adc_charging_val += adc_val;
0003ab   5866     movar   0x66             	MOVAR	_adc_val
0003ac   7e68     addra   0x68             	ADDRA	_adc_charging_val
0003ad   5867     movar   0x67             	MOVAR	(_adc_val + 1)
0003ae   f187     jbclr   0x187, 0         	JBCLR	PFLAG,0
0003af   6067     jzar    0x67             	JZAR	(_adc_val + 1)
0003b0   7e69     addra   0x69             	ADDRA	(_adc_charging_val + 1)
                                           ;;shiftRight_Left2ResultLit:5339: shCount=1, size=2, sign=0, same=1, offr=0
                                           ;	.line	560; "MC32P7351.c"	adc_charging_val /= 2;
0003b1   d187     bclr    0x187, 0         	BCLR	PFLAG,0
0003b2   4e69     rrr     0x69             	RRR	(_adc_charging_val + 1)
0003b3   4e68     rrr     0x68             	RRR	_adc_charging_val
0003b4   a3bb     goto    0x3bb            	GOTO	_00469_DS_
                                           _00468_DS_
                                           ;	.line	564; "MC32P7351.c"	adc_charging_val += adc_val;
0003b5   5866     movar   0x66             	MOVAR	_adc_val
0003b6   7e68     addra   0x68             	ADDRA	_adc_charging_val
0003b7   5867     movar   0x67             	MOVAR	(_adc_val + 1)
0003b8   f187     jbclr   0x187, 0         	JBCLR	PFLAG,0
0003b9   6067     jzar    0x67             	JZAR	(_adc_val + 1)
0003ba   7e69     addra   0x69             	ADDRA	(_adc_charging_val + 1)
                                           _00469_DS_
                                           ;	.line	567; "MC32P7351.c"	if (FLAG_IS_IN_CHARGING)
0003bb   e470     jbset   0x70, 0x2        	JBSET	_flag1,2
0003bc   a3d8     goto    0x3d8            	GOTO	_00504_DS_
                                           ;;unsigned compare: left < lit(0x800=2048), size=2
                                           ;	.line	570; "MC32P7351.c"	if (adc_val < ADCDETECT_CHARING_THRESHOLD)
0003bd   3c08     movai   0x8              	MOVAI	0x08
0003be   4867     rsubar  0x67             	RSUBAR	(_adc_val + 1)
0003bf   e587     jbset   0x187, 0x2       	JBSET	PFLAG,2
0003c0   a3c3     goto    0x3c3            	GOTO	_00652_DS_
0003c1   3c00     movai   0                	MOVAI	0x00
0003c2   4866     rsubar  0x66             	RSUBAR	_adc_val
                                           _00652_DS_
0003c3   f187     jbclr   0x187, 0         	JBCLR	PFLAG,0
0003c4   a3c6     goto    0x3c6            	GOTO	_00471_DS_
                                           ;;genSkipc:3291: created from rifx:013B5EFC
                                           ;	.line	572; "MC32P7351.c"	cnt++;
0003c5   6623     incr    0x23             	INCR	_adc_scan_handle_cnt_65536_73
                                           ;;unsigned compare: left < lit(0x8=8), size=1
                                           _00471_DS_
                                           ;	.line	575; "MC32P7351.c"	if (cnt >= 8)
0003c6   3c08     movai   0x8              	MOVAI	0x08
0003c7   4823     rsubar  0x23             	RSUBAR	_adc_scan_handle_cnt_65536_73
0003c8   e187     jbset   0x187, 0         	JBSET	PFLAG,0
0003c9   a3d1     goto    0x3d1            	GOTO	_00479_DS_
                                           ;;genSkipc:3291: created from rifx:013B5EFC
                                           ;	.line	578; "MC32P7351.c"	LED_CHARGING_OFF(); // 关闭充电指示灯
0003ca   c990     bset    0x190, 0x4       	BSET	_IOP0bits,4
                                           ;	.line	579; "MC32P7351.c"	PWM2EC = 0;         // 关闭控制升压电路的pwm
0003cb   dda0     bclr    0x1a0, 0x6       	BCLR	_T2CRbits,6
                                           ;	.line	580; "MC32P7351.c"	T2DATA = 0;
0003cc   77a3     clrr    0x1a3            	CLRR	_T2DATA
                                           ;	.line	581; "MC32P7351.c"	LED_FULL_CHARGE_OFF(); // 关闭电池充满电的指示灯
0003cd   c790     bset    0x190, 0x3       	BSET	_IOP0bits,3
                                           ;	.line	583; "MC32P7351.c"	FLAG_IS_IN_CHARGING = 0;
0003ce   d470     bclr    0x70, 0x2        	BCLR	_flag1,2
                                           ;	.line	584; "MC32P7351.c"	FLAG_DURING_CHARGING_BAT_IS_NULL = 0; // 清空该标志位，因为已经不在充电的情况下
0003cf   de70     bclr    0x70, 0x7        	BCLR	_flag1,7
                                           ;	.line	585; "MC32P7351.c"	break;
0003d0   a3f4     goto    0x3f4            	GOTO	_00513_DS_
                                           _00479_DS_
                                           ;	.line	588; "MC32P7351.c"	if (FLAG_IS_DEVICE_OPEN)
0003d1   f070     jbclr   0x70, 0          	JBCLR	_flag1,0
0003d2   a3f1     goto    0x3f1            	GOTO	_00505_DS_
                                           ;	.line	594; "MC32P7351.c"	if (FLAG_BAT_IS_FULL)
0003d3   fa70     jbclr   0x70, 0x5        	JBCLR	_flag1,5
0003d4   a3f1     goto    0x3f1            	GOTO	_00505_DS_
                                           ;	.line	600; "MC32P7351.c"	LED_FULL_CHARGE_OFF();
0003d5   c790     bset    0x190, 0x3       	BSET	_IOP0bits,3
                                           ;	.line	601; "MC32P7351.c"	LED_CHARGING_ON();
0003d6   d990     bclr    0x190, 0x4       	BCLR	_IOP0bits,4
0003d7   a3f1     goto    0x3f1            	GOTO	_00505_DS_
                                           _00504_DS_
                                           ;	.line	608; "MC32P7351.c"	if (flag_bat_is_empty == 0 && adc_val >= ADCDETECT_CHARING_THRESHOLD)
0003d8   3c00     movai   0                	MOVAI	0x00
0003d9   5c76     orar    0x76             	ORAR	_flag_bat_is_empty
0003da   e587     jbset   0x187, 0x2       	JBSET	PFLAG,2
0003db   a3e5     goto    0x3e5            	GOTO	_00493_DS_
                                           ;;unsigned compare: left < lit(0x800=2048), size=2
0003dc   3c08     movai   0x8              	MOVAI	0x08
0003dd   4867     rsubar  0x67             	RSUBAR	(_adc_val + 1)
0003de   e587     jbset   0x187, 0x2       	JBSET	PFLAG,2
0003df   a3e2     goto    0x3e2            	GOTO	_00654_DS_
0003e0   3c00     movai   0                	MOVAI	0x00
0003e1   4866     rsubar  0x66             	RSUBAR	_adc_val
                                           _00654_DS_
0003e2   e187     jbset   0x187, 0         	JBSET	PFLAG,0
0003e3   a3e5     goto    0x3e5            	GOTO	_00493_DS_
                                           ;;genSkipc:3291: created from rifx:013B5EFC
                                           ;	.line	610; "MC32P7351.c"	cnt++;
0003e4   6623     incr    0x23             	INCR	_adc_scan_handle_cnt_65536_73
                                           ;;unsigned compare: left < lit(0x8=8), size=1
                                           _00493_DS_
                                           ;	.line	634; "MC32P7351.c"	if (cnt >= 8)
0003e5   3c08     movai   0x8              	MOVAI	0x08
0003e6   4823     rsubar  0x23             	RSUBAR	_adc_scan_handle_cnt_65536_73
0003e7   e187     jbset   0x187, 0         	JBSET	PFLAG,0
0003e8   a3f1     goto    0x3f1            	GOTO	_00505_DS_
                                           ;;genSkipc:3291: created from rifx:013B5EFC
                                           ;	.line	637; "MC32P7351.c"	full_charge_cnt = 0;
0003e9   7678     clrr    0x78             	CLRR	_full_charge_cnt
                                           ;	.line	638; "MC32P7351.c"	over_charging_cnt = 0;
0003ea   7677     clrr    0x77             	CLRR	_over_charging_cnt
                                           ;	.line	640; "MC32P7351.c"	if (FLAG_IS_DEVICE_OPEN)
0003eb   f070     jbclr   0x70, 0          	JBCLR	_flag1,0
0003ec   a3ee     goto    0x3ee            	GOTO	_00500_DS_
                                           ;	.line	646; "MC32P7351.c"	LED_CHARGING_ON(); // 开启充电指示灯
0003ed   d990     bclr    0x190, 0x4       	BCLR	_IOP0bits,4
                                           _00500_DS_
                                           ;	.line	649; "MC32P7351.c"	PWM2EC = 1; // 开启控制升压电路的pwm
0003ee   cda0     bset    0x1a0, 0x6       	BSET	_T2CRbits,6
                                           ;	.line	650; "MC32P7351.c"	FLAG_IS_IN_CHARGING = 1;
0003ef   c470     bset    0x70, 0x2        	BSET	_flag1,2
                                           ;	.line	651; "MC32P7351.c"	break;
0003f0   a3f4     goto    0x3f4            	GOTO	_00513_DS_
                                           _00505_DS_
                                           ;	.line	655; "MC32P7351.c"	key_scan_handle(); // 按键扫描和处理函数
0003f1   83f5     call    0x3f5            	CALL	_key_scan_handle
                                           ;	.line	549; "MC32P7351.c"	for (i = 0; i < 10; i++)
0003f2   6674     incr    0x74             	INCR	_i
0003f3   a397     goto    0x397            	GOTO	_00511_DS_
                                           _00513_DS_
                                           ;	.line	657; "MC32P7351.c"	}
0003f4   000c     return                   	RETURN	
                                           ; exit point of _adc_scan_handle
                                           
                                           ;***
                                           ;  pBlock Stats: dbName = C
                                           ;***
                                           ;entry:  _key_scan_handle	;Function start
                                           ; 2 exit points
                                           ;has an exit
                                           ;functions called:
                                           ;   _delay_ms
                                           ;   _delay_ms
                                           ;   _delay_ms
                                           ;   _delay_ms
                                           ;   _delay_ms
                                           ;   _delay_ms
                                           ;   _delay_ms
                                           ;   _delay_ms
                                           ;5 compiler assigned registers:
                                           ;   r0x103B
                                           ;   r0x103C
                                           ;   STK00
                                           ;   r0x103D
                                           ;   r0x103E
                                           ;; Starting pCode block
                                           _key_scan_handle	;Function start
                                           ; 2 exit points
                                           ;	.line	279; "MC32P7351.c"	if (0 == KEY_MODE_PIN)
0003f5   f390     jbclr   0x190, 0x1       	JBCLR	_IOP0bits,1
0003f6   a475     goto    0x475            	GOTO	_00307_DS_
                                           ;	.line	284; "MC32P7351.c"	u16 press_cnt = 0;
0003f7   760d     clrr    0xd              	CLRR	r0x103B
0003f8   760e     clrr    0xe              	CLRR	r0x103C
                                           ;	.line	286; "MC32P7351.c"	delay_ms(20); // 延时消抖
0003f9   3c14     movai   0x14             	MOVAI	0x14
0003fa   5606     movra   0x6              	MOVRA	STK00
0003fb   3c00     movai   0                	MOVAI	0x00
0003fc   85cb     call    0x5cb            	CALL	_delay_ms
                                           ;	.line	288; "MC32P7351.c"	if (0 == KEY_MODE_PIN)
0003fd   f390     jbclr   0x190, 0x1       	JBCLR	_IOP0bits,1
0003fe   a4a2     goto    0x4a2            	GOTO	_00309_DS_
                                           ;	.line	291; "MC32P7351.c"	while (0 == KEY_MODE_PIN)
0003ff   760f     clrr    0xf              	CLRR	r0x103D
000400   7610     clrr    0x10             	CLRR	r0x103E
                                           _00265_DS_
000401   f390     jbclr   0x190, 0x1       	JBCLR	_IOP0bits,1
000402   a448     goto    0x448            	GOTO	_00267_DS_
                                           ;;unsigned compare: left < lit(0xFFFF=65535), size=2
                                           ;	.line	294; "MC32P7351.c"	if (press_cnt < 65535)
000403   3cff     movai   0xff             	MOVAI	0xff
000404   4810     rsubar  0x10             	RSUBAR	r0x103E
000405   e587     jbset   0x187, 0x2       	JBSET	PFLAG,2
000406   a409     goto    0x409            	GOTO	_00406_DS_
000407   3cff     movai   0xff             	MOVAI	0xff
000408   480f     rsubar  0xf              	RSUBAR	r0x103D
                                           _00406_DS_
000409   f187     jbclr   0x187, 0         	JBCLR	PFLAG,0
00040a   a412     goto    0x412            	GOTO	_00238_DS_
                                           ;;genSkipc:3291: created from rifx:013B5EFC
                                           ;	.line	295; "MC32P7351.c"	press_cnt++;
00040b   660f     incr    0xf              	INCR	r0x103D
00040c   f587     jbclr   0x187, 0x2       	JBCLR	PFLAG,2
00040d   6610     incr    0x10             	INCR	r0x103E
00040e   580f     movar   0xf              	MOVAR	r0x103D
00040f   560d     movra   0xd              	MOVRA	r0x103B
000410   5810     movar   0x10             	MOVAR	r0x103E
000411   560e     movra   0xe              	MOVRA	r0x103C
                                           _00238_DS_
                                           ;	.line	297; "MC32P7351.c"	if (0 == FLAG_IS_DEVICE_OPEN)
000412   f070     jbclr   0x70, 0          	JBCLR	_flag1,0
000413   a42d     goto    0x42d            	GOTO	_00263_DS_
                                           ;;unsigned compare: left < lit(0x3E8=1000), size=2
                                           ;	.line	299; "MC32P7351.c"	if (press_cnt >= 1000) // 1000ms加上看门狗唤醒的1024ms
000414   3c03     movai   0x3              	MOVAI	0x03
000415   4810     rsubar  0x10             	RSUBAR	r0x103E
000416   e587     jbset   0x187, 0x2       	JBSET	PFLAG,2
000417   a41a     goto    0x41a            	GOTO	_00407_DS_
000418   3ce8     movai   0xe8             	MOVAI	0xe8
000419   480f     rsubar  0xf              	RSUBAR	r0x103D
                                           _00407_DS_
00041a   e187     jbset   0x187, 0         	JBSET	PFLAG,0
00041b   a443     goto    0x443            	GOTO	_00264_DS_
                                           ;;genSkipc:3291: created from rifx:013B5EFC
                                           ;	.line	303; "MC32P7351.c"	if (0 == flag_is_key_mode_hold)
00041c   3c00     movai   0                	MOVAI	0x00
00041d   5c22     orar    0x22             	ORAR	_key_scan_handle_flag_is_key_mode_hold_131072_36
00041e   e587     jbset   0x187, 0x2       	JBSET	PFLAG,2
00041f   a443     goto    0x443            	GOTO	_00264_DS_
                                           ;	.line	305; "MC32P7351.c"	flag_is_key_mode_hold = 1; // 表示按键按下后未松手
000420   3c01     movai   0x1              	MOVAI	0x01
000421   5622     movra   0x22             	MOVRA	_key_scan_handle_flag_is_key_mode_hold_131072_36
                                           ;	.line	309; "MC32P7351.c"	LED_FULL_CHARGE_OFF(); // 关闭满电指示灯
000422   c790     bset    0x190, 0x3       	BSET	_IOP0bits,3
                                           ;	.line	310; "MC32P7351.c"	LED_CHARGING_OFF();    // 关闭充电指示灯
000423   c990     bset    0x190, 0x4       	BSET	_IOP0bits,4
                                           ;	.line	311; "MC32P7351.c"	LED_WORKING_ON();      // 打开电源指示灯
000424   d994     bclr    0x194, 0x4       	BCLR	_IOP1bits,4
                                           ;	.line	312; "MC32P7351.c"	FLAG_IS_DEVICE_OPEN = 1;
000425   c070     bset    0x70, 0          	BSET	_flag1,0
                                           ;	.line	317; "MC32P7351.c"	T0DATA = 103;
000426   3c67     movai   0x67             	MOVAI	0x67
000427   579b     movra   0x19b            	MOVRA	_T0DATA
                                           ;	.line	318; "MC32P7351.c"	T1DATA = 103;       // 约为 80.5%
000428   3c67     movai   0x67             	MOVAI	0x67
000429   579f     movra   0x19f            	MOVRA	_T1DATA
                                           ;	.line	319; "MC32P7351.c"	mode_flag = MODE_1; // 下一次切换模式时，会变成 MODE_2
00042a   7672     clrr    0x72             	CLRR	_mode_flag
                                           ;	.line	322; "MC32P7351.c"	PWM0EC = 1;
00042b   cd98     bset    0x198, 0x6       	BSET	_T0CRbits,6
                                           ;	.line	323; "MC32P7351.c"	break;
00042c   a448     goto    0x448            	GOTO	_00267_DS_
                                           ;;unsigned compare: left < lit(0x7D0=2000), size=2
                                           _00263_DS_
                                           ;	.line	329; "MC32P7351.c"	if (press_cnt >= 2000)
00042d   3c07     movai   0x7              	MOVAI	0x07
00042e   4810     rsubar  0x10             	RSUBAR	r0x103E
00042f   e587     jbset   0x187, 0x2       	JBSET	PFLAG,2
000430   a433     goto    0x433            	GOTO	_00408_DS_
000431   3cd0     movai   0xd0             	MOVAI	0xd0
000432   480f     rsubar  0xf              	RSUBAR	r0x103D
                                           _00408_DS_
000433   e187     jbset   0x187, 0         	JBSET	PFLAG,0
000434   a443     goto    0x443            	GOTO	_00264_DS_
                                           ;;genSkipc:3291: created from rifx:013B5EFC
                                           ;	.line	332; "MC32P7351.c"	if (0 == flag_is_key_mode_hold)
000435   3c00     movai   0                	MOVAI	0x00
000436   5c22     orar    0x22             	ORAR	_key_scan_handle_flag_is_key_mode_hold_131072_36
000437   e587     jbset   0x187, 0x2       	JBSET	PFLAG,2
000438   a443     goto    0x443            	GOTO	_00264_DS_
                                           ;	.line	334; "MC32P7351.c"	flag_is_key_mode_hold = 1; // 表示按键按下后未松手
000439   3c01     movai   0x1              	MOVAI	0x01
00043a   5622     movra   0x22             	MOVRA	_key_scan_handle_flag_is_key_mode_hold_131072_36
                                           ;	.line	337; "MC32P7351.c"	LED_WORKING_OFF(); // 关闭电源指示灯
00043b   c994     bset    0x194, 0x4       	BSET	_IOP1bits,4
                                           ;	.line	338; "MC32P7351.c"	HEATING_OFF();     // 关闭加热
00043c   d594     bclr    0x194, 0x2       	BCLR	_IOP1bits,2
                                           ;	.line	339; "MC32P7351.c"	FLAG_IS_DEVICE_OPEN = 0;
00043d   d070     bclr    0x70, 0          	BCLR	_flag1,0
                                           ;	.line	340; "MC32P7351.c"	FLAG_IS_HEATING = 0;
00043e   d270     bclr    0x70, 0x1        	BCLR	_flag1,1
                                           ;	.line	342; "MC32P7351.c"	mode_flag = MODE_1; // 下一次切换模式时，会变成 MODE_2
00043f   7672     clrr    0x72             	CLRR	_mode_flag
                                           ;	.line	345; "MC32P7351.c"	PWM0EC = 0;
000440   dd98     bclr    0x198, 0x6       	BCLR	_T0CRbits,6
                                           ;	.line	346; "MC32P7351.c"	PWM1EC = 0;
000441   dd9c     bclr    0x19c, 0x6       	BCLR	_T1CRbits,6
                                           ;	.line	348; "MC32P7351.c"	break;
000442   a448     goto    0x448            	GOTO	_00267_DS_
                                           _00264_DS_
                                           ;	.line	353; "MC32P7351.c"	delay_ms(1);
000443   3c01     movai   0x1              	MOVAI	0x01
000444   5606     movra   0x6              	MOVRA	STK00
000445   3c00     movai   0                	MOVAI	0x00
000446   85cb     call    0x5cb            	CALL	_delay_ms
000447   a401     goto    0x401            	GOTO	_00265_DS_
                                           _00267_DS_
                                           ;	.line	356; "MC32P7351.c"	flag_is_key_mode_hold = 0; // 表示该按键已经松手
000448   7622     clrr    0x22             	CLRR	_key_scan_handle_flag_is_key_mode_hold_131072_36
                                           ;;unsigned compare: left < lit(0x2EE=750), size=2
                                           ;	.line	358; "MC32P7351.c"	if (press_cnt < 750)
000449   3c02     movai   0x2              	MOVAI	0x02
00044a   480e     rsubar  0xe              	RSUBAR	r0x103C
00044b   e587     jbset   0x187, 0x2       	JBSET	PFLAG,2
00044c   a44f     goto    0x44f            	GOTO	_00409_DS_
00044d   3cee     movai   0xee             	MOVAI	0xee
00044e   480d     rsubar  0xd              	RSUBAR	r0x103B
                                           _00409_DS_
00044f   f187     jbclr   0x187, 0         	JBCLR	PFLAG,0
000450   a4a2     goto    0x4a2            	GOTO	_00309_DS_
                                           ;;genSkipc:3291: created from rifx:013B5EFC
                                           ;	.line	361; "MC32P7351.c"	if (FLAG_IS_DEVICE_OPEN)
000451   e070     jbset   0x70, 0          	JBSET	_flag1,0
000452   a4a2     goto    0x4a2            	GOTO	_00309_DS_
                                           ;	.line	364; "MC32P7351.c"	if (FLAG_IS_DEVICE_OPEN)
000453   e070     jbset   0x70, 0          	JBSET	_flag1,0
000454   a4a2     goto    0x4a2            	GOTO	_00309_DS_
                                           ;	.line	367; "MC32P7351.c"	if (MODE_1 == mode_flag)
000455   3c00     movai   0                	MOVAI	0x00
000456   5c72     orar    0x72             	ORAR	_mode_flag
000457   e587     jbset   0x187, 0x2       	JBSET	PFLAG,2
000458   a460     goto    0x460            	GOTO	_00274_DS_
                                           ;	.line	370; "MC32P7351.c"	T0DATA = 115;
000459   3c73     movai   0x73             	MOVAI	0x73
00045a   579b     movra   0x19b            	MOVRA	_T0DATA
                                           ;	.line	371; "MC32P7351.c"	T1DATA = 115; // 89.9%占空比
00045b   3c73     movai   0x73             	MOVAI	0x73
00045c   579f     movra   0x19f            	MOVRA	_T1DATA
                                           ;	.line	373; "MC32P7351.c"	mode_flag = MODE_2;
00045d   3c01     movai   0x1              	MOVAI	0x01
00045e   5672     movra   0x72             	MOVRA	_mode_flag
00045f   a4a2     goto    0x4a2            	GOTO	_00309_DS_
                                           _00274_DS_
                                           ;	.line	375; "MC32P7351.c"	else if (MODE_2 == mode_flag)
000460   5872     movar   0x72             	MOVAR	_mode_flag
000461   3901     xorai   0x1              	XORAI	0x01
000462   e587     jbset   0x187, 0x2       	JBSET	PFLAG,2
000463   a46b     goto    0x46b            	GOTO	_00271_DS_
                                           ;	.line	378; "MC32P7351.c"	T0DATA = 255;
000464   3cff     movai   0xff             	MOVAI	0xff
000465   579b     movra   0x19b            	MOVRA	_T0DATA
                                           ;	.line	379; "MC32P7351.c"	T1DATA = 255; // 100%占空比（确保大于TxLOAD的值就可以）
000466   3cff     movai   0xff             	MOVAI	0xff
000467   579f     movra   0x19f            	MOVRA	_T1DATA
                                           ;	.line	381; "MC32P7351.c"	mode_flag = MODE_3;
000468   3c02     movai   0x2              	MOVAI	0x02
000469   5672     movra   0x72             	MOVRA	_mode_flag
00046a   a4a2     goto    0x4a2            	GOTO	_00309_DS_
                                           _00271_DS_
                                           ;	.line	383; "MC32P7351.c"	else if (MODE_3 == mode_flag)
00046b   5872     movar   0x72             	MOVAR	_mode_flag
00046c   3902     xorai   0x2              	XORAI	0x02
00046d   e587     jbset   0x187, 0x2       	JBSET	PFLAG,2
00046e   a4a2     goto    0x4a2            	GOTO	_00309_DS_
                                           ;	.line	386; "MC32P7351.c"	T0DATA = 103;
00046f   3c67     movai   0x67             	MOVAI	0x67
000470   579b     movra   0x19b            	MOVRA	_T0DATA
                                           ;	.line	387; "MC32P7351.c"	T1DATA = 103; // 80.5%占空比
000471   3c67     movai   0x67             	MOVAI	0x67
000472   579f     movra   0x19f            	MOVRA	_T1DATA
                                           ;	.line	388; "MC32P7351.c"	mode_flag = MODE_1;
000473   7672     clrr    0x72             	CLRR	_mode_flag
000474   a4a2     goto    0x4a2            	GOTO	_00309_DS_
                                           _00307_DS_
                                           ;	.line	395; "MC32P7351.c"	else if (0 == KEY_HEAT_PIN)
000475   f394     jbclr   0x194, 0x1       	JBCLR	_IOP1bits,1
000476   a4a2     goto    0x4a2            	GOTO	_00309_DS_
                                           ;	.line	399; "MC32P7351.c"	delay_ms(20); // 延时消抖
000477   3c14     movai   0x14             	MOVAI	0x14
000478   5606     movra   0x6              	MOVRA	STK00
000479   3c00     movai   0                	MOVAI	0x00
00047a   85cb     call    0x5cb            	CALL	_delay_ms
                                           ;	.line	400; "MC32P7351.c"	if (0 == KEY_HEAT_PIN)
00047b   f394     jbclr   0x194, 0x1       	JBCLR	_IOP1bits,1
00047c   a4a2     goto    0x4a2            	GOTO	_00309_DS_
                                           ;	.line	403; "MC32P7351.c"	while (0 == KEY_HEAT_PIN)
00047d   760d     clrr    0xd              	CLRR	r0x103B
00047e   760e     clrr    0xe              	CLRR	r0x103C
                                           _00286_DS_
00047f   f394     jbclr   0x194, 0x1       	JBCLR	_IOP1bits,1
000480   a491     goto    0x491            	GOTO	_00288_DS_
                                           ;;unsigned compare: left < lit(0xFFFF=65535), size=2
                                           ;	.line	406; "MC32P7351.c"	if (press_cnt < 65535)
000481   3cff     movai   0xff             	MOVAI	0xff
000482   480e     rsubar  0xe              	RSUBAR	r0x103C
000483   e587     jbset   0x187, 0x2       	JBSET	PFLAG,2
000484   a487     goto    0x487            	GOTO	_00410_DS_
000485   3cff     movai   0xff             	MOVAI	0xff
000486   480d     rsubar  0xd              	RSUBAR	r0x103B
                                           _00410_DS_
000487   f187     jbclr   0x187, 0         	JBCLR	PFLAG,0
000488   a48c     goto    0x48c            	GOTO	_00285_DS_
                                           ;;genSkipc:3291: created from rifx:013B5EFC
                                           ;	.line	407; "MC32P7351.c"	press_cnt++;
000489   660d     incr    0xd              	INCR	r0x103B
00048a   f587     jbclr   0x187, 0x2       	JBCLR	PFLAG,2
00048b   660e     incr    0xe              	INCR	r0x103C
                                           _00285_DS_
                                           ;	.line	408; "MC32P7351.c"	delay_ms(1);
00048c   3c01     movai   0x1              	MOVAI	0x01
00048d   5606     movra   0x6              	MOVRA	STK00
00048e   3c00     movai   0                	MOVAI	0x00
00048f   85cb     call    0x5cb            	CALL	_delay_ms
000490   a47f     goto    0x47f            	GOTO	_00286_DS_
                                           ;;unsigned compare: left < lit(0x2EE=750), size=2
                                           _00288_DS_
                                           ;	.line	411; "MC32P7351.c"	if (press_cnt < 750)
000491   3c02     movai   0x2              	MOVAI	0x02
000492   480e     rsubar  0xe              	RSUBAR	r0x103C
000493   e587     jbset   0x187, 0x2       	JBSET	PFLAG,2
000494   a497     goto    0x497            	GOTO	_00411_DS_
000495   3cee     movai   0xee             	MOVAI	0xee
000496   480d     rsubar  0xd              	RSUBAR	r0x103B
                                           _00411_DS_
000497   f187     jbclr   0x187, 0         	JBCLR	PFLAG,0
000498   a4a2     goto    0x4a2            	GOTO	_00309_DS_
                                           ;;genSkipc:3291: created from rifx:013B5EFC
                                           ;	.line	414; "MC32P7351.c"	if (FLAG_IS_DEVICE_OPEN)
000499   e070     jbset   0x70, 0          	JBSET	_flag1,0
00049a   a4a2     goto    0x4a2            	GOTO	_00309_DS_
                                           ;	.line	417; "MC32P7351.c"	if (0 == FLAG_IS_HEATING)
00049b   f270     jbclr   0x70, 0x1        	JBCLR	_flag1,1
00049c   a4a0     goto    0x4a0            	GOTO	_00292_DS_
                                           ;	.line	419; "MC32P7351.c"	HEATING_ON(); // 打开加热
00049d   c594     bset    0x194, 0x2       	BSET	_IOP1bits,2
                                           ;	.line	420; "MC32P7351.c"	FLAG_IS_HEATING = 1;
00049e   c270     bset    0x70, 0x1        	BSET	_flag1,1
00049f   a4a2     goto    0x4a2            	GOTO	_00309_DS_
                                           _00292_DS_
                                           ;	.line	424; "MC32P7351.c"	HEATING_OFF(); // 关闭加热
0004a0   d594     bclr    0x194, 0x2       	BCLR	_IOP1bits,2
                                           ;	.line	425; "MC32P7351.c"	FLAG_IS_HEATING = 0;
0004a1   d270     bclr    0x70, 0x1        	BCLR	_flag1,1
                                           _00309_DS_
                                           ;	.line	431; "MC32P7351.c"	}
0004a2   000c     return                   	RETURN	
                                           ; exit point of _key_scan_handle
                                           
                                           ;***
                                           ;  pBlock Stats: dbName = C
                                           ;***
                                           ;entry:  _Sys_Init	;Function start
                                           ; 2 exit points
                                           ;has an exit
                                           ;functions called:
                                           ;   _CLR_RAM
                                           ;   _IO_Init
                                           ;   _timer0_pwm_config
                                           ;   _timer1_pwm_config
                                           ;   _timer2_pwm_config
                                           ;   _timer3_config
                                           ;   _key_config
                                           ;   _adc_config
                                           ;   _CLR_RAM
                                           ;   _IO_Init
                                           ;   _timer0_pwm_config
                                           ;   _timer1_pwm_config
                                           ;   _timer2_pwm_config
                                           ;   _timer3_config
                                           ;   _key_config
                                           ;   _adc_config
                                           ;; Starting pCode block
                                           _Sys_Init	;Function start
                                           ; 2 exit points
                                           ;	.line	260; "MC32P7351.c"	GIE = 0;
0004a3   df88     bclr    0x188, 0x7       	BCLR	_MCRbits,7
                                           ;	.line	261; "MC32P7351.c"	CLR_RAM();
0004a4   85bf     call    0x5bf            	CALL	_CLR_RAM
                                           ;	.line	262; "MC32P7351.c"	IO_Init();
0004a5   85af     call    0x5af            	CALL	_IO_Init
                                           ;	.line	264; "MC32P7351.c"	timer0_pwm_config();
0004a6   859b     call    0x59b            	CALL	_timer0_pwm_config
                                           ;	.line	265; "MC32P7351.c"	timer1_pwm_config();
0004a7   8593     call    0x593            	CALL	_timer1_pwm_config
                                           ;	.line	266; "MC32P7351.c"	timer2_pwm_config();
0004a8   8589     call    0x589            	CALL	_timer2_pwm_config
                                           ;	.line	268; "MC32P7351.c"	timer3_config();
0004a9   8583     call    0x583            	CALL	_timer3_config
                                           ;	.line	270; "MC32P7351.c"	key_config();
0004aa   857e     call    0x57e            	CALL	_key_config
                                           ;	.line	271; "MC32P7351.c"	adc_config();
0004ab   85a3     call    0x5a3            	CALL	_adc_config
                                           ;	.line	273; "MC32P7351.c"	GIE = 1;
0004ac   cf88     bset    0x188, 0x7       	BSET	_MCRbits,7
                                           ;	.line	274; "MC32P7351.c"	}
0004ad   000c     return                   	RETURN	
                                           ; exit point of _Sys_Init
                                           
                                           ;***
                                           ;  pBlock Stats: dbName = C
                                           ;***
                                           ;entry:  _adc_get_val_once	;Function start
                                           ; 2 exit points
                                           ;has an exit
                                           ;7 compiler assigned registers:
                                           ;   r0x1035
                                           ;   r0x1036
                                           ;   r0x1037
                                           ;   r0x1038
                                           ;   r0x1039
                                           ;   r0x103A
                                           ;   STK00
                                           ;; Starting pCode block
                                           _adc_get_val_once	;Function start
                                           ; 2 exit points
                                           ;	.line	221; "MC32P7351.c"	ADEOC = 0; // 清除ADC转换完成标志位，启动AD转换
0004ae   d3b0     bclr    0x1b0, 0x1       	BCLR	_ADCR0bits,1
                                           _00228_DS_
                                           ;	.line	222; "MC32P7351.c"	while (!ADEOC)
0004af   e3b0     jbset   0x1b0, 0x1       	JBSET	_ADCR0bits,1
0004b0   a4af     goto    0x4af            	GOTO	_00228_DS_
                                           ;	.line	224; "MC32P7351.c"	g_temp_value = ADRH; // 取出转换后的值
0004b1   59b4     movar   0x1b4            	MOVAR	_ADRH
0004b2   5608     movra   0x8              	MOVRA	r0x1035
0004b3   7607     clrr    0x7              	CLRR	r0x1036
                                           ;	.line	225; "MC32P7351.c"	g_temp_value = g_temp_value << 4 | (ADRL & 0x0F);
0004b4   4407     swapar  0x7              	SWAPAR	r0x1036
0004b5   3ef0     andai   0xf0             	ANDAI	0xf0
0004b6   5609     movra   0x9              	MOVRA	r0x1037
0004b7   4408     swapar  0x8              	SWAPAR	r0x1035
0004b8   560a     movra   0xa              	MOVRA	r0x1038
0004b9   3e0f     andai   0xf              	ANDAI	0x0f
0004ba   5e09     orra    0x9              	ORRA	r0x1037
0004bb   420a     xorra   0xa              	XORRA	r0x1038
0004bc   59b5     movar   0x1b5            	MOVAR	_ADRL
0004bd   5608     movra   0x8              	MOVRA	r0x1035
0004be   7607     clrr    0x7              	CLRR	r0x1036
0004bf   3c0f     movai   0xf              	MOVAI	0x0f
0004c0   7a08     andra   0x8              	ANDRA	r0x1035
0004c1   7607     clrr    0x7              	CLRR	r0x1036
                                           ;;101	MOVAR	r0x1035
                                           ;;99	MOVRA	r0x1039
                                           ;;104	MOVAR	r0x1036
                                           ;;102	MOVRA	r0x103A
                                           ;;100	MOVAR	r0x1039
0004c2   5808     movar   0x8              	MOVAR	r0x1035
0004c3   5e0a     orra    0xa              	ORRA	r0x1038
                                           ;;103	MOVAR	r0x103A
0004c4   3c00     movai   0                	MOVAI	0x00
0004c5   5e09     orra    0x9              	ORRA	r0x1037
                                           ;	.line	249; "MC32P7351.c"	return g_temp_value;
0004c6   580a     movar   0xa              	MOVAR	r0x1038
0004c7   5606     movra   0x6              	MOVRA	STK00
0004c8   5809     movar   0x9              	MOVAR	r0x1037
                                           ;	.line	250; "MC32P7351.c"	}
0004c9   000c     return                   	RETURN	
                                           ; exit point of _adc_get_val_once
                                           
                                           ;***
                                           ;  pBlock Stats: dbName = C
                                           ;***
                                           ;entry:  _adc_get_val	;Function start
                                           ; 2 exit points
                                           ;has an exit
                                           ;16 compiler assigned registers:
                                           ;   r0x1035
                                           ;   r0x1036
                                           ;   r0x1037
                                           ;   r0x1038
                                           ;   r0x1039
                                           ;   r0x103A
                                           ;   r0x103B
                                           ;   r0x103C
                                           ;   r0x103D
                                           ;   r0x103E
                                           ;   r0x103F
                                           ;   r0x1040
                                           ;   r0x1041
                                           ;   r0x1042
                                           ;   r0x1043
                                           ;   STK00
                                           ;; Starting pCode block
                                           _adc_get_val	;Function start
                                           ; 2 exit points
                                           ;	.line	168; "MC32P7351.c"	u32 g_tmpbuff = 0;
0004ca   7608     clrr    0x8              	CLRR	r0x1035
0004cb   7607     clrr    0x7              	CLRR	r0x1036
0004cc   7609     clrr    0x9              	CLRR	r0x1037
0004cd   760a     clrr    0xa              	CLRR	r0x1038
                                           ;	.line	169; "MC32P7351.c"	u16 g_adcmax = 0;
0004ce   760b     clrr    0xb              	CLRR	r0x1039
0004cf   760c     clrr    0xc              	CLRR	r0x103A
                                           ;	.line	170; "MC32P7351.c"	u16 g_adcmin = 0xFFFF;
0004d0   3cff     movai   0xff             	MOVAI	0xff
0004d1   560d     movra   0xd              	MOVRA	r0x103B
0004d2   560e     movra   0xe              	MOVRA	r0x103C
                                           ;	.line	173; "MC32P7351.c"	for (i = 0; i < 20; i++)
0004d3   760f     clrr    0xf              	CLRR	r0x103D
                                           _00182_DS_
                                           ;	.line	175; "MC32P7351.c"	ADEOC = 0; // 清除ADC转换完成标志位，启动AD转换
0004d4   d3b0     bclr    0x1b0, 0x1       	BCLR	_ADCR0bits,1
                                           _00171_DS_
                                           ;	.line	176; "MC32P7351.c"	while (!ADEOC)
0004d5   e3b0     jbset   0x1b0, 0x1       	JBSET	_ADCR0bits,1
0004d6   a4d5     goto    0x4d5            	GOTO	_00171_DS_
                                           ;	.line	178; "MC32P7351.c"	g_temp_value = ADRH; // 取出转换后的值
0004d7   59b4     movar   0x1b4            	MOVAR	_ADRH
0004d8   5610     movra   0x10             	MOVRA	r0x103E
0004d9   7611     clrr    0x11             	CLRR	r0x103F
                                           ;	.line	179; "MC32P7351.c"	g_temp_value = g_temp_value << 4 | (ADRL & 0x0F);
0004da   4411     swapar  0x11             	SWAPAR	r0x103F
0004db   3ef0     andai   0xf0             	ANDAI	0xf0
0004dc   5613     movra   0x13             	MOVRA	r0x1040
0004dd   4410     swapar  0x10             	SWAPAR	r0x103E
0004de   5612     movra   0x12             	MOVRA	r0x1041
0004df   3e0f     andai   0xf              	ANDAI	0x0f
0004e0   5e13     orra    0x13             	ORRA	r0x1040
0004e1   4212     xorra   0x12             	XORRA	r0x1041
0004e2   59b5     movar   0x1b5            	MOVAR	_ADRL
0004e3   5610     movra   0x10             	MOVRA	r0x103E
0004e4   7611     clrr    0x11             	CLRR	r0x103F
0004e5   3c0f     movai   0xf              	MOVAI	0x0f
0004e6   7a10     andra   0x10             	ANDRA	r0x103E
0004e7   7611     clrr    0x11             	CLRR	r0x103F
                                           ;;120	MOVAR	r0x103E
0004e8   3c00     movai   0                	MOVAI	0x00
0004e9   5615     movra   0x15             	MOVRA	r0x1043
                                           ;;119	MOVAR	r0x1042
0004ea   5810     movar   0x10             	MOVAR	r0x103E
0004eb   5614     movra   0x14             	MOVRA	r0x1042
0004ec   5c12     orar    0x12             	ORAR	r0x1041
0004ed   5610     movra   0x10             	MOVRA	r0x103E
0004ee   5815     movar   0x15             	MOVAR	r0x1043
0004ef   5c13     orar    0x13             	ORAR	r0x1040
0004f0   5611     movra   0x11             	MOVRA	r0x103F
                                           ;;unsigned compare: left < lit(0x2=2), size=1
                                           ;	.line	180; "MC32P7351.c"	if (i < 2)
0004f1   3c02     movai   0x2              	MOVAI	0x02
0004f2   480f     rsubar  0xf              	RSUBAR	r0x103D
0004f3   e187     jbset   0x187, 0         	JBSET	PFLAG,0
0004f4   a51f     goto    0x51f            	GOTO	_00180_DS_
                                           ;;genSkipc:3291: created from rifx:013B5EFC
                                           ;	.line	182; "MC32P7351.c"	if (g_temp_value > g_adcmax)
0004f5   5811     movar   0x11             	MOVAR	r0x103F
0004f6   480c     rsubar  0xc              	RSUBAR	r0x103A
0004f7   e587     jbset   0x187, 0x2       	JBSET	PFLAG,2
0004f8   a4fb     goto    0x4fb            	GOTO	_00222_DS_
0004f9   5810     movar   0x10             	MOVAR	r0x103E
0004fa   480b     rsubar  0xb              	RSUBAR	r0x1039
                                           _00222_DS_
0004fb   f187     jbclr   0x187, 0         	JBCLR	PFLAG,0
0004fc   a501     goto    0x501            	GOTO	_00177_DS_
                                           ;;genSkipc:3291: created from rifx:013B5EFC
                                           ;	.line	183; "MC32P7351.c"	g_adcmax = g_temp_value; // 最大
0004fd   5810     movar   0x10             	MOVAR	r0x103E
0004fe   560b     movra   0xb              	MOVRA	r0x1039
0004ff   5811     movar   0x11             	MOVAR	r0x103F
000500   560c     movra   0xc              	MOVRA	r0x103A
                                           _00177_DS_
                                           ;	.line	184; "MC32P7351.c"	if (g_temp_value < g_adcmin)
000501   580e     movar   0xe              	MOVAR	r0x103C
000502   4811     rsubar  0x11             	RSUBAR	r0x103F
000503   e587     jbset   0x187, 0x2       	JBSET	PFLAG,2
000504   a507     goto    0x507            	GOTO	_00223_DS_
000505   580d     movar   0xd              	MOVAR	r0x103B
000506   4810     rsubar  0x10             	RSUBAR	r0x103E
                                           _00223_DS_
000507   f187     jbclr   0x187, 0         	JBCLR	PFLAG,0
000508   a50d     goto    0x50d            	GOTO	_00179_DS_
                                           ;;genSkipc:3291: created from rifx:013B5EFC
                                           ;	.line	185; "MC32P7351.c"	g_adcmin = g_temp_value; // 最小
000509   5810     movar   0x10             	MOVAR	r0x103E
00050a   560d     movra   0xd              	MOVRA	r0x103B
00050b   5811     movar   0x11             	MOVAR	r0x103F
00050c   560e     movra   0xe              	MOVRA	r0x103C
                                           ;;116	MOVAR	r0x103E
                                           ;;118	MOVAR	r0x103F
                                           _00179_DS_
                                           ;	.line	186; "MC32P7351.c"	g_tmpbuff += g_temp_value;
00050d   7614     clrr    0x14             	CLRR	r0x1042
00050e   7615     clrr    0x15             	CLRR	r0x1043
                                           ;;115	MOVAR	r0x1041
00050f   5810     movar   0x10             	MOVAR	r0x103E
000510   5612     movra   0x12             	MOVRA	r0x1041
000511   7e08     addra   0x8              	ADDRA	r0x1035
                                           ;;117	MOVAR	r0x1040
000512   5811     movar   0x11             	MOVAR	r0x103F
000513   5613     movra   0x13             	MOVRA	r0x1040
000514   f187     jbclr   0x187, 0         	JBCLR	PFLAG,0
000515   6013     jzar    0x13             	JZAR	r0x1040
000516   7e07     addra   0x7              	ADDRA	r0x1036
000517   5814     movar   0x14             	MOVAR	r0x1042
000518   f187     jbclr   0x187, 0         	JBCLR	PFLAG,0
000519   6014     jzar    0x14             	JZAR	r0x1042
00051a   7e09     addra   0x9              	ADDRA	r0x1037
00051b   5815     movar   0x15             	MOVAR	r0x1043
00051c   f187     jbclr   0x187, 0         	JBCLR	PFLAG,0
00051d   6015     jzar    0x15             	JZAR	r0x1043
00051e   7e0a     addra   0xa              	ADDRA	r0x1038
                                           _00180_DS_
                                           ;	.line	173; "MC32P7351.c"	for (i = 0; i < 20; i++)
00051f   660f     incr    0xf              	INCR	r0x103D
                                           ;;unsigned compare: left < lit(0x14=20), size=1
000520   3c14     movai   0x14             	MOVAI	0x14
000521   480f     rsubar  0xf              	RSUBAR	r0x103D
000522   e187     jbset   0x187, 0         	JBSET	PFLAG,0
000523   a4d4     goto    0x4d4            	GOTO	_00182_DS_
                                           ;;genSkipc:3291: created from rifx:013B5EFC
                                           ;;114	MOVAR	r0x1039
                                           ;	.line	188; "MC32P7351.c"	g_tmpbuff -= g_adcmax;           // 去掉一个最大
000524   580c     movar   0xc              	MOVAR	r0x103A
000525   5610     movra   0x10             	MOVRA	r0x103E
000526   7611     clrr    0x11             	CLRR	r0x103F
000527   7612     clrr    0x12             	CLRR	r0x1041
                                           ;;113	MOVAR	r0x103D
000528   580b     movar   0xb              	MOVAR	r0x1039
000529   560f     movra   0xf              	MOVRA	r0x103D
00052a   4808     rsubar  0x8              	RSUBAR	r0x1035
00052b   560b     movra   0xb              	MOVRA	r0x1039
00052c   5807     movar   0x7              	MOVAR	r0x1036
00052d   560c     movra   0xc              	MOVRA	r0x103A
00052e   5810     movar   0x10             	MOVAR	r0x103E
00052f   e187     jbset   0x187, 0         	JBSET	PFLAG,0
000530   6010     jzar    0x10             	JZAR	r0x103E
000531   4a0c     rsubra  0xc              	RSUBRA	r0x103A
000532   5809     movar   0x9              	MOVAR	r0x1037
000533   5613     movra   0x13             	MOVRA	r0x1040
000534   5811     movar   0x11             	MOVAR	r0x103F
000535   e187     jbset   0x187, 0         	JBSET	PFLAG,0
000536   6011     jzar    0x11             	JZAR	r0x103F
000537   4a13     rsubra  0x13             	RSUBRA	r0x1040
000538   5812     movar   0x12             	MOVAR	r0x1041
000539   e187     jbset   0x187, 0         	JBSET	PFLAG,0
00053a   6412     incar   0x12             	INCAR	r0x1041
00053b   480a     rsubar  0xa              	RSUBAR	r0x1038
00053c   5614     movra   0x14             	MOVRA	r0x1042
                                           ;;106	MOVAR	r0x103B
                                           ;;108	MOVAR	r0x103C
                                           ;	.line	189; "MC32P7351.c"	g_tmpbuff -= g_adcmin;           // 去掉一个最小
00053d   7609     clrr    0x9              	CLRR	r0x1037
00053e   760a     clrr    0xa              	CLRR	r0x1038
                                           ;;105	MOVAR	r0x1035
00053f   580d     movar   0xd              	MOVAR	r0x103B
000540   5608     movra   0x8              	MOVRA	r0x1035
000541   4a0b     rsubra  0xb              	RSUBRA	r0x1039
                                           ;;107	MOVAR	r0x1036
000542   580e     movar   0xe              	MOVAR	r0x103C
000543   5607     movra   0x7              	MOVRA	r0x1036
000544   e187     jbset   0x187, 0         	JBSET	PFLAG,0
000545   6007     jzar    0x7              	JZAR	r0x1036
000546   4a0c     rsubra  0xc              	RSUBRA	r0x103A
000547   5809     movar   0x9              	MOVAR	r0x1037
000548   e187     jbset   0x187, 0         	JBSET	PFLAG,0
000549   6009     jzar    0x9              	JZAR	r0x1037
00054a   4a13     rsubra  0x13             	RSUBRA	r0x1040
00054b   580a     movar   0xa              	MOVAR	r0x1038
00054c   e187     jbset   0x187, 0         	JBSET	PFLAG,0
00054d   600a     jzar    0xa              	JZAR	r0x1038
00054e   4a14     rsubra  0x14             	RSUBRA	r0x1042
                                           ;	.line	190; "MC32P7351.c"	g_temp_value = (g_tmpbuff >> 4); // 除以16，取平均值
00054f   440b     swapar  0xb              	SWAPAR	r0x1039
000550   3e0f     andai   0xf              	ANDAI	0x0f
000551   5608     movra   0x8              	MOVRA	r0x1035
000552   440c     swapar  0xc              	SWAPAR	r0x103A
000553   5607     movra   0x7              	MOVRA	r0x1036
000554   3ef0     andai   0xf0             	ANDAI	0xf0
000555   5e08     orra    0x8              	ORRA	r0x1035
000556   4207     xorra   0x7              	XORRA	r0x1036
000557   4413     swapar  0x13             	SWAPAR	r0x1040
000558   5609     movra   0x9              	MOVRA	r0x1037
000559   3ef0     andai   0xf0             	ANDAI	0xf0
00055a   5e07     orra    0x7              	ORRA	r0x1036
00055b   4209     xorra   0x9              	XORRA	r0x1037
00055c   4414     swapar  0x14             	SWAPAR	r0x1042
00055d   560a     movra   0xa              	MOVRA	r0x1038
00055e   3ef0     andai   0xf0             	ANDAI	0xf0
00055f   5e09     orra    0x9              	ORRA	r0x1037
000560   420a     xorra   0xa              	XORRA	r0x1038
                                           ;;110	MOVAR	r0x1035
                                           ;;112	MOVAR	r0x1036
                                           ;;109	MOVAR	r0x1039
                                           ;	.line	214; "MC32P7351.c"	return g_temp_value;
000561   5808     movar   0x8              	MOVAR	r0x1035
000562   560b     movra   0xb              	MOVRA	r0x1039
000563   5606     movra   0x6              	MOVRA	STK00
                                           ;;111	MOVAR	r0x103A
000564   5807     movar   0x7              	MOVAR	r0x1036
000565   560c     movra   0xc              	MOVRA	r0x103A
                                           ;	.line	215; "MC32P7351.c"	}
000566   000c     return                   	RETURN	
                                           ; exit point of _adc_get_val
                                           
                                           ;***
                                           ;  pBlock Stats: dbName = C
                                           ;***
                                           ;entry:  _adc_sel_pin	;Function start
                                           ; 2 exit points
                                           ;has an exit
                                           ;functions called:
                                           ;   _delay_ms
                                           ;   _delay_ms
                                           ;2 compiler assigned registers:
                                           ;   r0x103B
                                           ;   STK00
                                           ;; Starting pCode block
                                           _adc_sel_pin	;Function start
                                           ; 2 exit points
                                           ;	.line	141; "MC32P7351.c"	void adc_sel_pin(u8 adc_pin)
000567   560d     movra   0xd              	MOVRA	r0x103B
                                           ;	.line	144; "MC32P7351.c"	switch (adc_pin)
000568   580d     movar   0xd              	MOVAR	r0x103B
000569   3901     xorai   0x1              	XORAI	0x01
00056a   e587     jbset   0x187, 0x2       	JBSET	PFLAG,2
00056b   a56d     goto    0x56d            	GOTO	_00165_DS_
00056c   a573     goto    0x573            	GOTO	_00151_DS_
                                           _00165_DS_
00056d   580d     movar   0xd              	MOVAR	r0x103B
00056e   3902     xorai   0x2              	XORAI	0x02
00056f   e587     jbset   0x187, 0x2       	JBSET	PFLAG,2
000570   a572     goto    0x572            	GOTO	_00166_DS_
000571   a576     goto    0x576            	GOTO	_00152_DS_
                                           _00166_DS_
000572   a579     goto    0x579            	GOTO	_00154_DS_
                                           _00151_DS_
                                           ;	.line	147; "MC32P7351.c"	ADCR0 &= ~(0x0F << 4); // 清空寄存器的通道选择位
000573   3c0f     movai   0xf              	MOVAI	0x0f
000574   7bb0     andra   0x1b0            	ANDRA	_ADCR0
                                           ;	.line	149; "MC32P7351.c"	break;
000575   a579     goto    0x579            	GOTO	_00154_DS_
                                           _00152_DS_
                                           ;	.line	152; "MC32P7351.c"	ADCR0 &= ~(0x0F << 4); // 清空寄存器的通道选择位
000576   3c0f     movai   0xf              	MOVAI	0x0f
000577   7bb0     andra   0x1b0            	ANDRA	_ADCR0
                                           ;	.line	153; "MC32P7351.c"	ADCR0 |= 0x01 << 4;    // AIN1--P02;
000578   c9b0     bset    0x1b0, 0x4       	BSET	_ADCR0,4
                                           _00154_DS_
                                           ;	.line	160; "MC32P7351.c"	delay_ms(1); // 切换adc检测的引脚后，要延时一段时间，等待adc稳定，防止意料之外的检测结果
000579   3c01     movai   0x1              	MOVAI	0x01
00057a   5606     movra   0x6              	MOVRA	STK00
00057b   3c00     movai   0                	MOVAI	0x00
00057c   85cb     call    0x5cb            	CALL	_delay_ms
                                           ;	.line	161; "MC32P7351.c"	}
00057d   000c     return                   	RETURN	
                                           ; exit point of _adc_sel_pin
                                           
                                           ;***
                                           ;  pBlock Stats: dbName = C
                                           ;***
                                           ;entry:  _key_config	;Function start
                                           ; 2 exit points
                                           ;has an exit
                                           ;; Starting pCode block
                                           _key_config	;Function start
                                           ; 2 exit points
                                           ;	.line	132; "MC32P7351.c"	P11PU = 1; // 上拉
00057e   c396     bset    0x196, 0x1       	BSET	_PUP1bits,1
                                           ;	.line	133; "MC32P7351.c"	P11OE = 0; // 输入模式
00057f   d395     bclr    0x195, 0x1       	BCLR	_OEP1bits,1
                                           ;	.line	136; "MC32P7351.c"	P01PU = 1; // 上拉
000580   c392     bset    0x192, 0x1       	BSET	_PUP0bits,1
                                           ;	.line	137; "MC32P7351.c"	P01OE = 0; // 输入模式
000581   d391     bclr    0x191, 0x1       	BCLR	_OEP0bits,1
                                           ;	.line	138; "MC32P7351.c"	}
000582   000c     return                   	RETURN	
                                           ; exit point of _key_config
                                           
                                           ;***
                                           ;  pBlock Stats: dbName = C
                                           ;***
                                           ;entry:  _timer3_config	;Function start
                                           ; 2 exit points
                                           ;has an exit
                                           ;; Starting pCode block
                                           _timer3_config	;Function start
                                           ; 2 exit points
                                           ;	.line	122; "MC32P7351.c"	T3LOAD = 250 - 1; // FCPU 32分频后，这里是1ms触发一次中断
000583   3cf9     movai   0xf9             	MOVAI	0xf9
000584   57a6     movra   0x1a6            	MOVRA	_T3LOAD
                                           ;	.line	124; "MC32P7351.c"	T3CR = 0x85; // 使能定时器，时钟源选择FCPU，32分频
000585   3c85     movai   0x85             	MOVAI	0x85
000586   57a4     movra   0x1a4            	MOVRA	_T3CR
                                           ;	.line	125; "MC32P7351.c"	T3IE = 1;
000587   cf8a     bset    0x18a, 0x7       	BSET	_INTEbits,7
                                           ;	.line	126; "MC32P7351.c"	}
000588   000c     return                   	RETURN	
                                           ; exit point of _timer3_config
                                           
                                           ;***
                                           ;  pBlock Stats: dbName = C
                                           ;***
                                           ;entry:  _timer2_pwm_config	;Function start
                                           ; 2 exit points
                                           ;has an exit
                                           ;; Starting pCode block
                                           _timer2_pwm_config	;Function start
                                           ; 2 exit points
                                           ;	.line	106; "MC32P7351.c"	T2CKS0 = 1;
000589   c7a0     bset    0x1a0, 0x3       	BSET	_T2CRbits,3
                                           ;	.line	107; "MC32P7351.c"	T2CKS1 = 0;
00058a   d9a0     bclr    0x1a0, 0x4       	BCLR	_T2CRbits,4
                                           ;	.line	109; "MC32P7351.c"	TMRCKS0 = 0;
00058b   d7ad     bclr    0x1ad, 0x3       	BCLR	_PWMCR1bits,3
                                           ;	.line	110; "MC32P7351.c"	TMRCKS1 = 1;
00058c   c9ad     bset    0x1ad, 0x4       	BSET	_PWMCR1bits,4
                                           ;	.line	112; "MC32P7351.c"	T2LOAD = 209; //
00058d   3cd1     movai   0xd1             	MOVAI	0xd1
00058e   57a2     movra   0x1a2            	MOVRA	_T2LOAD
                                           ;	.line	113; "MC32P7351.c"	T2DATA = 0;
00058f   77a3     clrr    0x1a3            	CLRR	_T2DATA
                                           ;	.line	114; "MC32P7351.c"	PWM2EC = 0; // 禁止PWM输出
000590   dda0     bclr    0x1a0, 0x6       	BCLR	_T2CRbits,6
                                           ;	.line	116; "MC32P7351.c"	T2EN = 1;
000591   cfa0     bset    0x1a0, 0x7       	BSET	_T2CRbits,7
                                           ;	.line	117; "MC32P7351.c"	}
000592   000c     return                   	RETURN	
                                           ; exit point of _timer2_pwm_config
                                           
                                           ;***
                                           ;  pBlock Stats: dbName = C
                                           ;***
                                           ;entry:  _timer1_pwm_config	;Function start
                                           ; 2 exit points
                                           ;has an exit
                                           ;; Starting pCode block
                                           _timer1_pwm_config	;Function start
                                           ; 2 exit points
                                           ;	.line	94; "MC32P7351.c"	T1CR |= 0x02; // 4分频
000593   c39c     bset    0x19c, 0x1       	BSET	_T1CR,1
                                           ;	.line	95; "MC32P7351.c"	T1LOAD = 128 - 1;
000594   3c7f     movai   0x7f             	MOVAI	0x7f
000595   579e     movra   0x19e            	MOVRA	_T1LOAD
                                           ;	.line	96; "MC32P7351.c"	T1DATA = 25; // 占空比 == T1DATA / T1LOAD
000596   3c19     movai   0x19             	MOVAI	0x19
000597   579f     movra   0x19f            	MOVRA	_T1DATA
                                           ;	.line	97; "MC32P7351.c"	PWM1EC = 0;  // 禁止PWM1输出
000598   dd9c     bclr    0x19c, 0x6       	BCLR	_T1CRbits,6
                                           ;	.line	98; "MC32P7351.c"	T1EN = 1;    // 启动定时器
000599   cf9c     bset    0x19c, 0x7       	BSET	_T1CRbits,7
                                           ;	.line	99; "MC32P7351.c"	}
00059a   000c     return                   	RETURN	
                                           ; exit point of _timer1_pwm_config
                                           
                                           ;***
                                           ;  pBlock Stats: dbName = C
                                           ;***
                                           ;entry:  _timer0_pwm_config	;Function start
                                           ; 2 exit points
                                           ;has an exit
                                           ;; Starting pCode block
                                           _timer0_pwm_config	;Function start
                                           ; 2 exit points
                                           ;	.line	81; "MC32P7351.c"	T0CR |= 0x02; // 4分频
00059b   c398     bset    0x198, 0x1       	BSET	_T0CR,1
                                           ;	.line	82; "MC32P7351.c"	T0LOAD = 128 - 1;
00059c   3c7f     movai   0x7f             	MOVAI	0x7f
00059d   579a     movra   0x19a            	MOVRA	_T0LOAD
                                           ;	.line	83; "MC32P7351.c"	T0DATA = 25; // 占空比 == T0DATA / T0LOAD
00059e   3c19     movai   0x19             	MOVAI	0x19
00059f   579b     movra   0x19b            	MOVRA	_T0DATA
                                           ;	.line	84; "MC32P7351.c"	PWM0EC = 0;  // 禁止PWM输出
0005a0   dd98     bclr    0x198, 0x6       	BCLR	_T0CRbits,6
                                           ;	.line	85; "MC32P7351.c"	T0EN = 1;    // 启动定时器
0005a1   cf98     bset    0x198, 0x7       	BSET	_T0CRbits,7
                                           ;	.line	86; "MC32P7351.c"	}
0005a2   000c     return                   	RETURN	
                                           ; exit point of _timer0_pwm_config
                                           
                                           ;***
                                           ;  pBlock Stats: dbName = C
                                           ;***
                                           ;entry:  _adc_config	;Function start
                                           ; 2 exit points
                                           ;has an exit
                                           ;; Starting pCode block
                                           _adc_config	;Function start
                                           ; 2 exit points
                                           ;	.line	62; "MC32P7351.c"	P00OE = 0; // 输入模式
0005a3   d191     bclr    0x191, 0         	BCLR	_OEP0bits,0
                                           ;	.line	63; "MC32P7351.c"	P00DC = 1; // 模拟模式
0005a4   c1b6     bset    0x1b6, 0         	BSET	_ADIOS0bits,0
                                           ;	.line	66; "MC32P7351.c"	P02OE = 0; // 输入模式
0005a5   d591     bclr    0x191, 0x2       	BCLR	_OEP0bits,2
                                           ;	.line	67; "MC32P7351.c"	P02DC = 1; // 模拟模式
0005a6   c3b6     bset    0x1b6, 0x1       	BSET	_ADIOS0bits,1
                                           ;	.line	69; "MC32P7351.c"	ADCR0 = 0x0A; // 12位精度、不启用ADC转换，不使能ADC
0005a7   3c0a     movai   0xa              	MOVAI	0x0a
0005a8   57b0     movra   0x1b0            	MOVRA	_ADCR0
                                           ;	.line	70; "MC32P7351.c"	ADCR1 = 0xE1; // 125K采样（最高精度）  内部3V参考电压
0005a9   3ce1     movai   0xe1             	MOVAI	0xe1
0005aa   57b1     movra   0x1b1            	MOVRA	_ADCR1
                                           ;	.line	71; "MC32P7351.c"	ADCR2 = 0xFF; // ADC采样时间为15个ADC时钟
0005ab   3cff     movai   0xff             	MOVAI	0xff
0005ac   57b2     movra   0x1b2            	MOVRA	_ADCR2
                                           ;	.line	72; "MC32P7351.c"	ADEN = 1;     // 使能ADC
0005ad   c1b0     bset    0x1b0, 0         	BSET	_ADCR0bits,0
                                           ;	.line	73; "MC32P7351.c"	}
0005ae   000c     return                   	RETURN	
                                           ; exit point of _adc_config
                                           
                                           ;***
                                           ;  pBlock Stats: dbName = C
                                           ;***
                                           ;entry:  _IO_Init	;Function start
                                           ; 2 exit points
                                           ;has an exit
                                           ;; Starting pCode block
                                           _IO_Init	;Function start
                                           ; 2 exit points
                                           ;	.line	37; "MC32P7351.c"	IOP0 = 0x00;   // io口数据位
0005af   7790     clrr    0x190            	CLRR	_IOP0
                                           ;	.line	38; "MC32P7351.c"	OEP0 = 0x3F;   // io口方向 1:out  0:in
0005b0   3c3f     movai   0x3f             	MOVAI	0x3f
0005b1   5791     movra   0x191            	MOVRA	_OEP0
                                           ;	.line	39; "MC32P7351.c"	PUP0 = 0x00;   // io口上拉电阻   1:enable  0:disable
0005b2   7792     clrr    0x192            	CLRR	_PUP0
                                           ;	.line	40; "MC32P7351.c"	PDP0 = 0x00;   // io口下拉电阻   1:enable  0:disable
0005b3   7793     clrr    0x193            	CLRR	_PDP0
                                           ;	.line	41; "MC32P7351.c"	ADIOS0 = 0x00; // io类型选择  1:模拟输入  0:通用io
0005b4   77b6     clrr    0x1b6            	CLRR	_ADIOS0
                                           ;	.line	43; "MC32P7351.c"	IOP1 = 0x00;   // io口数据位
0005b5   7794     clrr    0x194            	CLRR	_IOP1
                                           ;	.line	44; "MC32P7351.c"	OEP1 = 0xFF;   // io口方向 1:out  0:in
0005b6   3cff     movai   0xff             	MOVAI	0xff
0005b7   5795     movra   0x195            	MOVRA	_OEP1
                                           ;	.line	45; "MC32P7351.c"	PUP1 = 0x00;   // io口上拉电阻   1:enable  0:disable
0005b8   7796     clrr    0x196            	CLRR	_PUP1
                                           ;	.line	46; "MC32P7351.c"	PDP1 = 0x00;   // io口下拉电阻   1:enable  0:disable
0005b9   7797     clrr    0x197            	CLRR	_PDP1
                                           ;	.line	47; "MC32P7351.c"	ADIOS1 = 0x00; // io类型选择  1:模拟输入  0:通用io
0005ba   77b7     clrr    0x1b7            	CLRR	_ADIOS1
                                           ;	.line	54; "MC32P7351.c"	PMOD = 0x00;  // P00、P01、P13 io端口值从寄存器读，推挽输出
0005bb   77bc     clrr    0x1bc            	CLRR	_PMOD
                                           ;	.line	55; "MC32P7351.c"	DRVCR = 0x80; // 普通驱动
0005bc   3c80     movai   0x80             	MOVAI	0x80
0005bd   578c     movra   0x18c            	MOVRA	_DRVCR
                                           ;	.line	56; "MC32P7351.c"	}
0005be   000c     return                   	RETURN	
                                           ; exit point of _IO_Init
                                           
                                           ;***
                                           ;  pBlock Stats: dbName = C
                                           ;***
                                           ;entry:  _CLR_RAM	;Function start
                                           ; 2 exit points
                                           ;has an exit
                                           ;; Starting pCode block
                                           _CLR_RAM	;Function start
                                           ; 2 exit points
                                           ;	.line	22; "MC32P7351.c"	for (FSR0 = 0; FSR0 < 0xff; FSR0++)
0005bf   7784     clrr    0x184            	CLRR	_FSR0
                                           ;;unsigned compare: left < lit(0xFF=255), size=1
                                           _00118_DS_
0005c0   3cff     movai   0xff             	MOVAI	0xff
0005c1   4984     rsubar  0x184            	RSUBAR	_FSR0
0005c2   f187     jbclr   0x187, 0         	JBCLR	PFLAG,0
0005c3   a5c7     goto    0x5c7            	GOTO	_00116_DS_
                                           ;;genSkipc:3291: created from rifx:013B5EFC
                                           ;	.line	24; "MC32P7351.c"	INDF0 = 0x00;
0005c4   7780     clrr    0x180            	CLRR	_INDF0
                                           ;	.line	22; "MC32P7351.c"	for (FSR0 = 0; FSR0 < 0xff; FSR0++)
0005c5   6784     incr    0x184            	INCR	_FSR0
0005c6   a5c0     goto    0x5c0            	GOTO	_00118_DS_
                                           _00116_DS_
                                           ;	.line	26; "MC32P7351.c"	FSR0 = 0xFF;
0005c7   3cff     movai   0xff             	MOVAI	0xff
0005c8   5784     movra   0x184            	MOVRA	_FSR0
                                           ;	.line	27; "MC32P7351.c"	INDF0 = 0x00;
0005c9   7780     clrr    0x180            	CLRR	_INDF0
                                           ;	.line	28; "MC32P7351.c"	}
0005ca   000c     return                   	RETURN	
                                           ; exit point of _CLR_RAM
                                           
                                           ;***
                                           ;  pBlock Stats: dbName = C
                                           ;***
                                           ;entry:  _delay_ms	;Function start
                                           ; 2 exit points
                                           ;has an exit
                                           ;7 compiler assigned registers:
                                           ;   r0x1035
                                           ;   STK00
                                           ;   r0x1036
                                           ;   r0x1037
                                           ;   r0x1038
                                           ;   r0x1039
                                           ;   r0x103A
                                           ;; Starting pCode block
                                           _delay_ms	;Function start
                                           ; 2 exit points
                                           ;	.line	292; "user.h"	void delay_ms(u16 xms)
0005cb   5608     movra   0x8              	MOVRA	r0x1035
0005cc   5806     movar   0x6              	MOVAR	STK00
0005cd   5607     movra   0x7              	MOVRA	r0x1036
                                           _00108_DS_
                                           ;	.line	294; "user.h"	while (xms)
0005ce   5807     movar   0x7              	MOVAR	r0x1036
0005cf   5c08     orar    0x8              	ORAR	r0x1035
0005d0   f587     jbclr   0x187, 0x2       	JBCLR	PFLAG,2
0005d1   a5ea     goto    0x5ea            	GOTO	_00111_DS_
                                           ;	.line	297; "user.h"	while (i--)
0005d2   3c3c     movai   0x3c             	MOVAI	0x3c
0005d3   5609     movra   0x9              	MOVRA	r0x1037
0005d4   3c02     movai   0x2              	MOVAI	0x02
0005d5   560a     movra   0xa              	MOVRA	r0x1038
                                           _00105_DS_
0005d6   5809     movar   0x9              	MOVAR	r0x1037
0005d7   560b     movra   0xb              	MOVRA	r0x1039
0005d8   580a     movar   0xa              	MOVAR	r0x1038
0005d9   560c     movra   0xc              	MOVRA	r0x103A
0005da   3cff     movai   0xff             	MOVAI	0xff
0005db   7e09     addra   0x9              	ADDRA	r0x1037
0005dc   e187     jbset   0x187, 0         	JBSET	PFLAG,0
0005dd   6e0a     decr    0xa              	DECR	r0x1038
0005de   580b     movar   0xb              	MOVAR	r0x1039
0005df   5c0c     orar    0xc              	ORAR	r0x103A
0005e0   f587     jbclr   0x187, 0x2       	JBCLR	PFLAG,2
0005e1   a5e4     goto    0x5e4            	GOTO	_00107_DS_
                                           ;	.line	299; "user.h"	Nop();
0005e2   0000     nop                      	nop	
0005e3   a5d6     goto    0x5d6            	GOTO	_00105_DS_
                                           _00107_DS_
                                           ;	.line	301; "user.h"	xms--; // 把 --操作放在while()判断条件外面，更节省空间
0005e4   3cff     movai   0xff             	MOVAI	0xff
0005e5   7e07     addra   0x7              	ADDRA	r0x1036
0005e6   e187     jbset   0x187, 0         	JBSET	PFLAG,0
0005e7   6e08     decr    0x8              	DECR	r0x1035
                                           ;	.line	305; "user.h"	__endasm;
                                           	;
0005e8   000e     clrwdt                   	clrwdt;
                                           	
0005e9   a5ce     goto    0x5ce            	GOTO	_00108_DS_
                                           _00111_DS_
                                           ;	.line	307; "user.h"	}
0005ea   000c     return                   	RETURN	
                                           ; exit point of _delay_ms
                                           
                                           
                                           ;	code size estimation:
                                           ;	 1492+    0 =  1492 instructions ( 2984 byte)
                                           
                                           	end
                                           ;--------------------------------------------------------
                                           ; File Created by SN-SDCC : SinoMCU ANSI-C Compiler
                                           ; Version 2.0.0 (Dec 11 2019) (MINGW32)
                                           ; This file was generated Tue Jan 07 16:34:44 2025
                                           ;--------------------------------------------------------
                                           ; MC32 port for the RISC core
                                           ;--------------------------------------------------------
                                           ;	.file	"MC32P7351.c"
                                           	list	p=7351
                                           	radix dec
                                           	include "7351.inc"
                                           ;--------------------------------------------------------
                                           ; external declarations
                                           ;--------------------------------------------------------
                                           	extern	__mullong
                                           	extern	__divulong
                                           	extern	_INDF0bits
                                           	extern	_INDF1bits
                                           	extern	_INDF2bits
                                           	extern	_HIBYTEbits
                                           	extern	_FSR0bits
                                           	extern	_FSR1bits
                                           	extern	_PCLbits
                                           	extern	_PFLAGbits
                                           	extern	_MCRbits
                                           	extern	_INDF3bits
                                           	extern	_INTEbits
                                           	extern	_INTFbits
                                           	extern	_DRVCRbits
                                           	extern	_PFRCCRbits
                                           	extern	_P1KBCRbits
                                           	extern	_PFRCCALbits
                                           	extern	_IOP0bits
                                           	extern	_OEP0bits
                                           	extern	_PUP0bits
                                           	extern	_PDP0bits
                                           	extern	_IOP1bits
                                           	extern	_OEP1bits
                                           	extern	_PUP1bits
                                           	extern	_PDP1bits
                                           	extern	_T0CRbits
                                           	extern	_T0CNTbits
                                           	extern	_T0LOADbits
                                           	extern	_T0DATAbits
                                           	extern	_T1CRbits
                                           	extern	_T1CNTbits
                                           	extern	_T1LOADbits
                                           	extern	_T1DATAbits
                                           	extern	_T2CRbits
                                           	extern	_T2CNTbits
                                           	extern	_T2LOADbits
                                           	extern	_T2DATAbits
                                           	extern	_T3CRbits
                                           	extern	_T3CNTbits
                                           	extern	_T3LOADbits
                                           	extern	_PWM0DRbits
                                           	extern	_PWM1DRbits
                                           	extern	_PWM2DRbits
                                           	extern	_PWMCR0bits
                                           	extern	_PWMCR1bits
                                           	extern	_OSCMRbits
                                           	extern	_LVDCRbits
                                           	extern	_ADCR0bits
                                           	extern	_ADCR1bits
                                           	extern	_ADCR2bits
                                           	extern	_OSADJCRbits
                                           	extern	_ADRHbits
                                           	extern	_ADRLbits
                                           	extern	_ADIOS0bits
                                           	extern	_ADIOS1bits
                                           	extern	_PMODbits
                                           	extern	_PWMCR3bits
                                           	extern	_PWMCR2bits
                                           	extern	_PFRCAUXbits
                                           	extern	_HIRCCALbits
                                           	extern	_INDF0
                                           	extern	_INDF1
                                           	extern	_INDF2
                                           	extern	_HIBYTE
                                           	extern	_FSR0
                                           	extern	_FSR1
                                           	extern	_PCL
                                           	extern	_PFLAG
                                           	extern	_MCR
                                           	extern	_INDF3
                                           	extern	_INTE
                                           	extern	_INTF
                                           	extern	_DRVCR
                                           	extern	_PFRCCR
                                           	extern	_P1KBCR
                                           	extern	_PFRCCAL
                                           	extern	_IOP0
                                           	extern	_OEP0
                                           	extern	_PUP0
                                           	extern	_PDP0
                                           	extern	_IOP1
                                           	extern	_OEP1
                                           	extern	_PUP1
                                           	extern	_PDP1
                                           	extern	_T0CR
                                           	extern	_T0CNT
                                           	extern	_T0LOAD
                                           	extern	_T0DATA
                                           	extern	_T1CR
                                           	extern	_T1CNT
                                           	extern	_T1LOAD
                                           	extern	_T1DATA
                                           	extern	_T2CR
                                           	extern	_T2CNT
                                           	extern	_T2LOAD
                                           	extern	_T2DATA
                                           	extern	_T3CR
                                           	extern	_T3CNT
                                           	extern	_T3LOAD
                                           	extern	_PWM0DR
                                           	extern	_PWM1DR
                                           	extern	_PWM2DR
                                           	extern	_PWMCR0
                                           	extern	_PWMCR1
                                           	extern	_OSCMR
                                           	extern	_LVDCR
                                           	extern	_ADCR0
                                           	extern	_ADCR1
                                           	extern	_ADCR2
                                           	extern	_OSADJCR
                                           	extern	_ADRH
                                           	extern	_ADRL
                                           	extern	_ADIOS0
                                           	extern	_ADIOS1
                                           	extern	_PMOD
                                           	extern	_PWMCR3
                                           	extern	_PWMCR2
                                           	extern	_PFRCAUX
                                           	extern	_HIRCCAL
                                           ;--------------------------------------------------------
                                           ; global declarations
                                           ;--------------------------------------------------------
                                           	global	_delay_ms
                                           	global	_CLR_RAM
                                           	global	_IO_Init
                                           	global	_adc_config
                                           	global	_timer0_pwm_config
                                           	global	_timer1_pwm_config
                                           	global	_timer2_pwm_config
                                           	global	_timer3_config
                                           	global	_key_config
                                           	global	_adc_sel_pin
                                           	global	_adc_get_val
                                           	global	_adc_get_val_once
                                           	global	_Sys_Init
                                           	global	_key_scan_handle
                                           	global	_adc_scan_handle
                                           	global	_turn_dir_scan_handle
                                           	global	_shutdown_scan_handle
                                           	global	_low_power_scan_handle
                                           	global	_main
                                           	global	_int_isr
                                           	global	_flag1
                                           	global	_flag2
                                           	global	_mode_flag
                                           	global	_key_press_flag
                                           	global	_i
                                           	global	_adc_val
                                           	global	_turn_dir_ms_cnt
                                           	global	_shut_down_ms_cnt
                                           	global	_adc_bat_val
                                           	global	_adc_charging_val
                                           	global	_max_pwm_val
                                           	global	_last_pwm_val
                                           	global	_tmp_val
                                           	global	_tmp_val_l
                                           	global	_tmp_val_cnt
                                           	global	_flag_bat_is_empty
                                           	global	_tmp_bat_val
                                           	global	_over_charging_cnt
                                           	global	_full_charge_cnt
                                           	global	_abuf
                                           	global	_statusbuf
                                           
                                           	global STK06
                                           	global STK05
                                           	global STK04
                                           	global STK03
                                           	global STK02
                                           	global STK01
                                           	global STK00
                                           
                                           sharebank udata_ovr 0x0000
                                           STK06	res 1
                                           STK05	res 1
                                           STK04	res 1
                                           STK03	res 1
                                           STK02	res 1
                                           STK01	res 1
                                           STK00	res 1
                                           
                                           ;--------------------------------------------------------
                                           ; global definitions
                                           ;--------------------------------------------------------
                                           UD_MC32P7351_0	udata
                                           _flag1	res	1
                                           
                                           UD_MC32P7351_1	udata
                                           _flag2	res	1
                                           
                                           UD_MC32P7351_2	udata
                                           _mode_flag	res	1
                                           
                                           UD_MC32P7351_3	udata
                                           _key_press_flag	res	1
                                           
                                           UD_MC32P7351_4	udata
                                           _i	res	1
                                           
                                           UD_MC32P7351_5	udata
                                           _adc_val	res	2
                                           
                                           UD_MC32P7351_6	udata
                                           _turn_dir_ms_cnt	res	4
                                           
                                           UD_MC32P7351_7	udata
                                           _shut_down_ms_cnt	res	4
                                           
                                           UD_MC32P7351_8	udata
                                           _adc_bat_val	res	4
                                           
                                           UD_MC32P7351_9	udata
                                           _adc_charging_val	res	2
                                           
                                           UD_MC32P7351_10	udata
                                           _max_pwm_val	res	4
                                           
                                           UD_MC32P7351_11	udata
                                           _last_pwm_val	res	2
                                           
                                           UD_MC32P7351_12	udata
                                           _tmp_val	res	2
                                           
                                           UD_MC32P7351_13	udata
                                           _tmp_val_l	res	16
                                           
                                           UD_MC32P7351_14	udata
                                           _tmp_val_cnt	res	1
                                           
                                           UD_MC32P7351_15	udata
                                           _flag_bat_is_empty	res	1
                                           
                                           UD_MC32P7351_16	udata
                                           _tmp_bat_val	res	2
                                           
                                           UD_MC32P7351_17	udata
                                           _over_charging_cnt	res	1
                                           
                                           UD_MC32P7351_18	udata
                                           _full_charge_cnt	res	1
                                           
                                           UD_MC32P7351_19	udata
                                           _abuf	res	1
                                           
                                           UD_MC32P7351_20	udata
                                           _statusbuf	res	1
                                           
                                           ;--------------------------------------------------------
                                           ; absolute symbol definitions
                                           ;--------------------------------------------------------
                                           ;--------------------------------------------------------
                                           ; compiler-defined variables
                                           ;--------------------------------------------------------
                                           UDL_MC32P7351_0	udata
                                           r0x1036	res	1
                                           r0x1035	res	1
                                           r0x1037	res	1
                                           r0x1038	res	1
                                           r0x1039	res	1
                                           r0x103A	res	1
                                           r0x103B	res	1
                                           r0x103C	res	1
                                           r0x103D	res	1
                                           r0x103E	res	1
                                           r0x103F	res	1
                                           r0x1041	res	1
                                           r0x1040	res	1
                                           r0x1042	res	1
                                           r0x1043	res	1
                                           r0x1044	res	1
                                           r0x1045	res	1
                                           r0x1047	res	1
                                           r0x1046	res	1
                                           r0x1048	res	1
                                           r0x1049	res	1
                                           r0x104A	res	1
                                           r0x104B	res	1
                                           r0x104C	res	1
                                           r0x104D	res	1
                                           r0x104E	res	1
                                           r0x104F	res	1
                                           _key_scan_handle_flag_is_key_mode_hold_131072_36	res	1
                                           _adc_scan_handle_cnt_65536_73	res	1
                                           _adc_scan_handle_need_charge_cnt_65536_73	res	1
                                           ;--------------------------------------------------------
                                           ; initialized data
                                           ;--------------------------------------------------------
                                           
                                           ;@Allocation info for local variables in function 'delay_ms'
                                           ;@delay_ms delay_ms                  Allocated to registers ;size:2
                                           ;@delay_ms INDF0bits                 Allocated to registers ;size:1
                                           ;@delay_ms INDF1bits                 Allocated to registers ;size:1
                                           ;@delay_ms INDF2bits                 Allocated to registers ;size:1
                                           ;@delay_ms HIBYTEbits                Allocated to registers ;size:1
                                           ;@delay_ms FSR0bits                  Allocated to registers ;size:1
                                           ;@delay_ms FSR1bits                  Allocated to registers ;size:1
                                           ;@delay_ms PCLbits                   Allocated to registers ;size:1
                                           ;@delay_ms PFLAGbits                 Allocated to registers ;size:1
                                           ;@delay_ms MCRbits                   Allocated to registers ;size:1
                                           ;@delay_ms INDF3bits                 Allocated to registers ;size:1
                                           ;@delay_ms INTEbits                  Allocated to registers ;size:1
                                           ;@delay_ms INTFbits                  Allocated to registers ;size:1
                                           ;@delay_ms DRVCRbits                 Allocated to registers ;size:1
                                           ;@delay_ms PFRCCRbits                Allocated to registers ;size:1
                                           ;@delay_ms P1KBCRbits                Allocated to registers ;size:1
                                           ;@delay_ms PFRCCALbits               Allocated to registers ;size:1
                                           ;@delay_ms IOP0bits                  Allocated to registers ;size:1
                                           ;@delay_ms OEP0bits                  Allocated to registers ;size:1
                                           ;@delay_ms PUP0bits                  Allocated to registers ;size:1
                                           ;@delay_ms PDP0bits                  Allocated to registers ;size:1
                                           ;@delay_ms IOP1bits                  Allocated to registers ;size:1
                                           ;@delay_ms OEP1bits                  Allocated to registers ;size:1
                                           ;@delay_ms PUP1bits                  Allocated to registers ;size:1
                                           ;@delay_ms PDP1bits                  Allocated to registers ;size:1
                                           ;@delay_ms T0CRbits                  Allocated to registers ;size:1
                                           ;@delay_ms T0CNTbits                 Allocated to registers ;size:1
                                           ;@delay_ms T0LOADbits                Allocated to registers ;size:1
                                           ;@delay_ms T0DATAbits                Allocated to registers ;size:1
                                           ;@delay_ms T1CRbits                  Allocated to registers ;size:1
                                           ;@delay_ms T1CNTbits                 Allocated to registers ;size:1
                                           ;@delay_ms T1LOADbits                Allocated to registers ;size:1
                                           ;@delay_ms T1DATAbits                Allocated to registers ;size:1
                                           ;@delay_ms T2CRbits                  Allocated to registers ;size:1
                                           ;@delay_ms T2CNTbits                 Allocated to registers ;size:1
                                           ;@delay_ms T2LOADbits                Allocated to registers ;size:1
                                           ;@delay_ms T2DATAbits                Allocated to registers ;size:1
                                           ;@delay_ms T3CRbits                  Allocated to registers ;size:1
                                           ;@delay_ms T3CNTbits                 Allocated to registers ;size:1
                                           ;@delay_ms T3LOADbits                Allocated to registers ;size:1
                                           ;@delay_ms PWM0DRbits                Allocated to registers ;size:1
                                           ;@delay_ms PWM1DRbits                Allocated to registers ;size:1
                                           ;@delay_ms PWM2DRbits                Allocated to registers ;size:1
                                           ;@delay_ms PWMCR0bits                Allocated to registers ;size:1
                                           ;@delay_ms PWMCR1bits                Allocated to registers ;size:1
                                           ;@delay_ms OSCMRbits                 Allocated to registers ;size:1
                                           ;@delay_ms LVDCRbits                 Allocated to registers ;size:1
                                           ;@delay_ms ADCR0bits                 Allocated to registers ;size:1
                                           ;@delay_ms ADCR1bits                 Allocated to registers ;size:1
                                           ;@delay_ms ADCR2bits                 Allocated to registers ;size:1
                                           ;@delay_ms OSADJCRbits               Allocated to registers ;size:1
                                           ;@delay_ms ADRHbits                  Allocated to registers ;size:1
                                           ;@delay_ms ADRLbits                  Allocated to registers ;size:1
                                           ;@delay_ms ADIOS0bits                Allocated to registers ;size:1
                                           ;@delay_ms ADIOS1bits                Allocated to registers ;size:1
                                           ;@delay_ms PMODbits                  Allocated to registers ;size:1
                                           ;@delay_ms PWMCR3bits                Allocated to registers ;size:1
                                           ;@delay_ms PWMCR2bits                Allocated to registers ;size:1
                                           ;@delay_ms PFRCAUXbits               Allocated to registers ;size:1
                                           ;@delay_ms HIRCCALbits               Allocated to registers ;size:1
                                           ;@delay_ms flag1                     Allocated to registers ;size:1
                                           ;@delay_ms flag2                     Allocated to registers ;size:1
                                           ;@delay_ms mode_flag                 Allocated to registers ;size:1
                                           ;@delay_ms key_press_flag            Allocated to registers ;size:1
                                           ;@delay_ms i                         Allocated to registers ;size:1
                                           ;@delay_ms adc_val                   Allocated to registers ;size:2
                                           ;@delay_ms turn_dir_ms_cnt           Allocated to registers ;size:4
                                           ;@delay_ms shut_down_ms_cnt          Allocated to registers ;size:4
                                           ;@delay_ms adc_bat_val               Allocated to registers ;size:4
                                           ;@delay_ms adc_charging_val          Allocated to registers ;size:2
                                           ;@delay_ms max_pwm_val               Allocated to registers ;size:4
                                           ;@delay_ms last_pwm_val              Allocated to registers ;size:2
                                           ;@delay_ms tmp_val                   Allocated to registers ;size:2
                                           ;@delay_ms tmp_val_l                 Allocated to registers ;size:16
                                           ;@delay_ms tmp_val_cnt               Allocated to registers ;size:1
                                           ;@delay_ms flag_bat_is_empty         Allocated to registers ;size:1
                                           ;@delay_ms tmp_bat_val               Allocated to registers ;size:2
                                           ;@delay_ms over_charging_cnt         Allocated to registers ;size:1
                                           ;@delay_ms full_charge_cnt           Allocated to registers ;size:1
                                           ;@delay_ms abuf                      Allocated to registers ;size:1
                                           ;@delay_ms statusbuf                 Allocated to registers ;size:1
                                           ;@delay_ms xms                       Allocated to registers ;size:2
                                           ;@delay_ms i                         Allocated to registers r0x1037 r0x1038 ;size:2
                                           ;@delay_ms INDF0                     Allocated to registers ;size:1
                                           ;@delay_ms INDF1                     Allocated to registers ;size:1
                                           ;@delay_ms INDF2                     Allocated to registers ;size:1
                                           ;@delay_ms HIBYTE                    Allocated to registers ;size:1
                                           ;@delay_ms FSR0                      Allocated to registers ;size:1
                                           ;@delay_ms FSR1                      Allocated to registers ;size:1
                                           ;@delay_ms PCL                       Allocated to registers ;size:1
                                           ;@delay_ms PFLAG                     Allocated to registers ;size:1
                                           ;@delay_ms MCR                       Allocated to registers ;size:1
                                           ;@delay_ms INDF3                     Allocated to registers ;size:1
                                           ;@delay_ms INTE                      Allocated to registers ;size:1
                                           ;@delay_ms INTF                      Allocated to registers ;size:1
                                           ;@delay_ms DRVCR                     Allocated to registers ;size:1
                                           ;@delay_ms PFRCCR                    Allocated to registers ;size:1
                                           ;@delay_ms P1KBCR                    Allocated to registers ;size:1
                                           ;@delay_ms PFRCCAL                   Allocated to registers ;size:1
                                           ;@delay_ms IOP0                      Allocated to registers ;size:1
                                           ;@delay_ms OEP0                      Allocated to registers ;size:1
                                           ;@delay_ms PUP0                      Allocated to registers ;size:1
                                           ;@delay_ms PDP0                      Allocated to registers ;size:1
                                           ;@delay_ms IOP1                      Allocated to registers ;size:1
                                           ;@delay_ms OEP1                      Allocated to registers ;size:1
                                           ;@delay_ms PUP1                      Allocated to registers ;size:1
                                           ;@delay_ms PDP1                      Allocated to registers ;size:1
                                           ;@delay_ms T0CR                      Allocated to registers ;size:1
                                           ;@delay_ms T0CNT                     Allocated to registers ;size:1
                                           ;@delay_ms T0LOAD                    Allocated to registers ;size:1
                                           ;@delay_ms T0DATA                    Allocated to registers ;size:1
                                           ;@delay_ms T1CR                      Allocated to registers ;size:1
                                           ;@delay_ms T1CNT                     Allocated to registers ;size:1
                                           ;@delay_ms T1LOAD                    Allocated to registers ;size:1
                                           ;@delay_ms T1DATA                    Allocated to registers ;size:1
                                           ;@delay_ms T2CR                      Allocated to registers ;size:1
                                           ;@delay_ms T2CNT                     Allocated to registers ;size:1
                                           ;@delay_ms T2LOAD                    Allocated to registers ;size:1
                                           ;@delay_ms T2DATA                    Allocated to registers ;size:1
                                           ;@delay_ms T3CR                      Allocated to registers ;size:1
                                           ;@delay_ms T3CNT                     Allocated to registers ;size:1
                                           ;@delay_ms T3LOAD                    Allocated to registers ;size:1
                                           ;@delay_ms PWM0DR                    Allocated to registers ;size:1
                                           ;@delay_ms PWM1DR                    Allocated to registers ;size:1
                                           ;@delay_ms PWM2DR                    Allocated to registers ;size:1
                                           ;@delay_ms PWMCR0                    Allocated to registers ;size:1
                                           ;@delay_ms PWMCR1                    Allocated to registers ;size:1
                                           ;@delay_ms OSCMR                     Allocated to registers ;size:1
                                           ;@delay_ms LVDCR                     Allocated to registers ;size:1
                                           ;@delay_ms ADCR0                     Allocated to registers ;size:1
                                           ;@delay_ms ADCR1                     Allocated to registers ;size:1
                                           ;@delay_ms ADCR2                     Allocated to registers ;size:1
                                           ;@delay_ms OSADJCR                   Allocated to registers ;size:1
                                           ;@delay_ms ADRH                      Allocated to registers ;size:1
                                           ;@delay_ms ADRL                      Allocated to registers ;size:1
                                           ;@delay_ms ADIOS0                    Allocated to registers ;size:1
                                           ;@delay_ms ADIOS1                    Allocated to registers ;size:1
                                           ;@delay_ms PMOD                      Allocated to registers ;size:1
                                           ;@delay_ms PWMCR3                    Allocated to registers ;size:1
                                           ;@delay_ms PWMCR2                    Allocated to registers ;size:1
                                           ;@delay_ms PFRCAUX                   Allocated to registers ;size:1
                                           ;@delay_ms HIRCCAL                   Allocated to registers ;size:1
                                           ;@end Allocation info for local variables in function 'delay_ms';
                                           ;@Allocation info for local variables in function 'CLR_RAM'
                                           ;@end Allocation info for local variables in function 'CLR_RAM';
                                           ;@Allocation info for local variables in function 'IO_Init'
                                           ;@end Allocation info for local variables in function 'IO_Init';
                                           ;@Allocation info for local variables in function 'adc_config'
                                           ;@end Allocation info for local variables in function 'adc_config';
                                           ;@Allocation info for local variables in function 'timer0_pwm_config'
                                           ;@end Allocation info for local variables in function 'timer0_pwm_config';
                                           ;@Allocation info for local variables in function 'timer1_pwm_config'
                                           ;@end Allocation info for local variables in function 'timer1_pwm_config';
                                           ;@Allocation info for local variables in function 'timer2_pwm_config'
                                           ;@end Allocation info for local variables in function 'timer2_pwm_config';
                                           ;@Allocation info for local variables in function 'timer3_config'
                                           ;@end Allocation info for local variables in function 'timer3_config';
                                           ;@Allocation info for local variables in function 'key_config'
                                           ;@end Allocation info for local variables in function 'key_config';
                                           ;@Allocation info for local variables in function 'adc_sel_pin'
                                           ;@adc_sel_pin adc_pin                   Allocated to registers r0x103B ;size:1
                                           ;@end Allocation info for local variables in function 'adc_sel_pin';
                                           ;@Allocation info for local variables in function 'adc_get_val'
                                           ;@adc_get_val i                         Allocated to registers r0x103D ;size:1
                                           ;@adc_get_val g_temp_value              Allocated to registers r0x103E r0x103F ;size:2
                                           ;@adc_get_val g_tmpbuff                 Allocated to registers r0x1039 r0x103A r0x1040 r0x1042 ;size:4
                                           ;@adc_get_val g_adcmax                  Allocated to registers r0x1039 r0x103A ;size:2
                                           ;@adc_get_val g_adcmin                  Allocated to registers r0x103B r0x103C ;size:2
                                           ;@end Allocation info for local variables in function 'adc_get_val';
                                           ;@Allocation info for local variables in function 'adc_get_val_once'
                                           ;@adc_get_val_once g_temp_value              Allocated to registers r0x1038 r0x1037 ;size:2
                                           ;@end Allocation info for local variables in function 'adc_get_val_once';
                                           ;@Allocation info for local variables in function 'Sys_Init'
                                           ;@end Allocation info for local variables in function 'Sys_Init';
                                           ;@Allocation info for local variables in function 'key_scan_handle'
                                           ;@key_scan_handle flag_is_key_mode_hold     Allocated to registers ;size:1
                                           ;@key_scan_handle press_cnt                 Allocated to registers r0x103B r0x103C ;size:2
                                           ;@key_scan_handle press_cnt                 Allocated to registers r0x103B r0x103C ;size:2
                                           ;@end Allocation info for local variables in function 'key_scan_handle';
                                           ;@Allocation info for local variables in function 'key_scan_handle'
                                           ;@key_scan_handle flag_is_key_mode_hold     Allocated to registers ;size:1
                                           ;@key_scan_handle press_cnt                 Allocated to registers r0x103B r0x103C ;size:2
                                           ;@key_scan_handle press_cnt                 Allocated to registers r0x103B r0x103C ;size:2
                                           ;@end Allocation info for local variables in function 'key_scan_handle';
                                           ;@Allocation info for local variables in function 'adc_scan_handle'
                                           ;@adc_scan_handle cnt                       Allocated to registers ;size:1
                                           ;@adc_scan_handle need_charge_cnt           Allocated to registers ;size:1
                                           ;@end Allocation info for local variables in function 'adc_scan_handle';
                                           ;@Allocation info for local variables in function 'turn_dir_scan_handle'
                                           ;@end Allocation info for local variables in function 'turn_dir_scan_handle';
                                           ;@Allocation info for local variables in function 'shutdown_scan_handle'
                                           ;@end Allocation info for local variables in function 'shutdown_scan_handle';
                                           ;@Allocation info for local variables in function 'low_power_scan_handle'
                                           ;@end Allocation info for local variables in function 'low_power_scan_handle';
                                           ;@Allocation info for local variables in function 'main'
                                           ;@end Allocation info for local variables in function 'main';
                                           ;@Allocation info for local variables in function 'int_isr'
                                           ;@end Allocation info for local variables in function 'int_isr';
                                           
                                           ;--------------------------------------------------------
                                           ; overlayable items in internal ram 
                                           ;--------------------------------------------------------
                                           ;	udata_ovr
                                           ;--------------------------------------------------------
                                           ; reset vector 
                                           ;--------------------------------------------------------
                                           STARTUP	code 0x0000
                                           	goto	_main
                                           ;--------------------------------------------------------
                                           ; interrupt and initialization code
                                           ;--------------------------------------------------------
                                           c_interrupt	code	0x8
                                           __sdcc_interrupt
                                           ;***
                                           ;  pBlock Stats: dbName = I
                                           ;***
                                           ;entry:  _int_isr	;Function start
                                           ; 0 exit points
                                           ;2 compiler assigned registers:
                                           ;   r0x104E
                                           ;   r0x104F
                                           ;; Starting pCode block
                                           _int_isr	;Function start
                                           ; 0 exit points
                                           ;	.line	1098; "MC32P7351.c"	__endasm;
                                           	;
                                           	movra	_abuf;
                                           	swapar	_PFLAG;
                                           	movra	_statusbuf;
                                           	
                                           ;	.line	1105; "MC32P7351.c"	if (T3IF & T3IE)
                                           	CLRR	r0x104E
                                           	JBCLR	_INTFbits,7
                                           	INCR	r0x104E
                                           	CLRR	r0x104F
                                           	JBCLR	_INTEbits,7
                                           	INCR	r0x104F
                                           	MOVAR	r0x104F
                                           	ANDRA	r0x104E
                                           	MOVAI	0x00
                                           	ORAR	r0x104E
                                           	JBCLR	PFLAG,2
                                           	GOTO	_00952_DS_
                                           ;	.line	1108; "MC32P7351.c"	if (FLAG_IS_DEVICE_OPEN)
                                           	JBSET	_flag1,0
                                           	GOTO	_00950_DS_
                                           ;	.line	1110; "MC32P7351.c"	turn_dir_ms_cnt++; // 会在 turn_dir_scan_handle() 内处理并清零
                                           	INCR	_turn_dir_ms_cnt
                                           	JBCLR	PFLAG,2
                                           	INCR	(_turn_dir_ms_cnt + 1)
                                           	JBCLR	PFLAG,2
                                           	INCR	(_turn_dir_ms_cnt + 2)
                                           	JBCLR	PFLAG,2
                                           	INCR	(_turn_dir_ms_cnt + 3)
                                           ;	.line	1111; "MC32P7351.c"	shut_down_ms_cnt++; // 会在 shutdown_scan_handle() 内处理并清零
                                           	INCR	_shut_down_ms_cnt
                                           	JBCLR	PFLAG,2
                                           	INCR	(_shut_down_ms_cnt + 1)
                                           	JBCLR	PFLAG,2
                                           	INCR	(_shut_down_ms_cnt + 2)
                                           	JBCLR	PFLAG,2
                                           	INCR	(_shut_down_ms_cnt + 3)
                                           _00950_DS_
                                           ;	.line	1119; "MC32P7351.c"	T3IF = 0;
                                           	BCLR	_INTFbits,7
                                           _00952_DS_
                                           ;	.line	1127; "MC32P7351.c"	__endasm;
                                           	;
                                           	swapar	_statusbuf;
                                           	movra	_PFLAG;
                                           	swapr	_abuf;
                                           	swapar	_abuf;
                                           	
                                           END_OF_INTERRUPT
                                           ;	.line	1128; "MC32P7351.c"	}
                                           	RETIE	
                                           
                                           ;--------------------------------------------------------
                                           ; code
                                           ;--------------------------------------------------------
                                           code_MC32P7351	code
                                           ;***
                                           ;  pBlock Stats: dbName = M
                                           ;***
                                           ;entry:  _main	;Function start
                                           ; 2 exit points
                                           ;has an exit
                                           ;functions called:
                                           ;   _Sys_Init
                                           ;   _delay_ms
                                           ;   _adc_sel_pin
                                           ;   _adc_get_val
                                           ;   _key_scan_handle
                                           ;   _adc_scan_handle
                                           ;   _turn_dir_scan_handle
                                           ;   _shutdown_scan_handle
                                           ;   __mullong
                                           ;   __divulong
                                           ;   __mullong
                                           ;   __mullong
                                           ;   __divulong
                                           ;   __divulong
                                           ;   _delay_ms
                                           ;   _delay_ms
                                           ;   _key_scan_handle
                                           ;   _delay_ms
                                           ;   _key_scan_handle
                                           ;   _delay_ms
                                           ;   _low_power_scan_handle
                                           ;   _Sys_Init
                                           ;   _delay_ms
                                           ;   _adc_sel_pin
                                           ;   _adc_get_val
                                           ;   _key_scan_handle
                                           ;   _adc_scan_handle
                                           ;   _turn_dir_scan_handle
                                           ;   _shutdown_scan_handle
                                           ;   __mullong
                                           ;   __divulong
                                           ;   __mullong
                                           ;   __mullong
                                           ;   __divulong
                                           ;   __divulong
                                           ;   _delay_ms
                                           ;   _delay_ms
                                           ;   _key_scan_handle
                                           ;   _delay_ms
                                           ;   _key_scan_handle
                                           ;   _delay_ms
                                           ;   _low_power_scan_handle
                                           ;17 compiler assigned registers:
                                           ;   STK00
                                           ;   r0x1044
                                           ;   r0x1045
                                           ;   STK06
                                           ;   STK05
                                           ;   STK04
                                           ;   STK03
                                           ;   STK02
                                           ;   STK01
                                           ;   r0x1046
                                           ;   r0x1047
                                           ;   r0x1048
                                           ;   r0x1049
                                           ;   r0x104A
                                           ;   r0x104B
                                           ;   r0x104C
                                           ;   r0x104D
                                           ;; Starting pCode block
                                           _main	;Function start
                                           ; 2 exit points
                                           ;	.line	825; "MC32P7351.c"	Sys_Init();
                                           	CALL	_Sys_Init
                                           ;	.line	828; "MC32P7351.c"	LED_WORKING_OFF();
                                           	BSET	_IOP1bits,4
                                           ;	.line	829; "MC32P7351.c"	LED_FULL_CHARGE_OFF();
                                           	BSET	_IOP0bits,3
                                           ;	.line	830; "MC32P7351.c"	LED_CHARGING_OFF();
                                           	BSET	_IOP0bits,4
                                           ;	.line	832; "MC32P7351.c"	delay_ms(100); // 等待系统稳定
                                           	MOVAI	0x64
                                           	MOVRA	STK00
                                           	MOVAI	0x00
                                           	CALL	_delay_ms
                                           ;	.line	837; "MC32P7351.c"	PWM2EC = 1; // 打开控制升压电路的pwm
                                           	BSET	_T2CRbits,6
                                           ;	.line	838; "MC32P7351.c"	T2DATA = 100;
                                           	MOVAI	0x64
                                           	MOVRA	_T2DATA
                                           ;	.line	839; "MC32P7351.c"	adc_sel_pin(ADC_PIN_P02_AN1); // 切换到检测电池降压后的电压的检测引脚
                                           	MOVAI	0x02
                                           	CALL	_adc_sel_pin
                                           ;	.line	840; "MC32P7351.c"	for (i = 0; i < 10; i++)      // 每55ms进入一次，循环内每次间隔约4.8ms
                                           	CLRR	_i
                                           ;;unsigned compare: left < lit(0xA=10), size=1
                                           _00825_DS_
                                           	MOVAI	0x0a
                                           	RSUBAR	_i
                                           	JBCLR	PFLAG,0
                                           	GOTO	_00769_DS_
                                           ;;genSkipc:3291: created from rifx:013B5EFC
                                           ;	.line	842; "MC32P7351.c"	adc_val = adc_get_val();
                                           	CALL	_adc_get_val
                                           	MOVRA	(_adc_val + 1)
                                           	MOVAR	STK00
                                           	MOVRA	_adc_val
                                           ;;unsigned compare: left < lit(0xFA0=4000), size=2
                                           ;	.line	843; "MC32P7351.c"	if (adc_val >= ADCDETECT_BAT_FULL + ADCDETECT_BAT_NULL_EX)
                                           	MOVAI	0x0f
                                           	RSUBAR	(_adc_val + 1)
                                           	JBSET	PFLAG,2
                                           	GOTO	_00935_DS_
                                           	MOVAI	0xa0
                                           	RSUBAR	_adc_val
                                           _00935_DS_
                                           	JBSET	PFLAG,0
                                           	GOTO	_00826_DS_
                                           ;;genSkipc:3291: created from rifx:013B5EFC
                                           ;	.line	845; "MC32P7351.c"	flag_bat_is_empty = 1;
                                           	MOVAI	0x01
                                           	MOVRA	_flag_bat_is_empty
                                           ;	.line	846; "MC32P7351.c"	FLAG_DURING_CHARGING_BAT_IS_NULL = 1; // 标志位置一，在主循环让绿灯快闪
                                           	BSET	_flag1,7
                                           _00826_DS_
                                           ;	.line	840; "MC32P7351.c"	for (i = 0; i < 10; i++)      // 每55ms进入一次，循环内每次间隔约4.8ms
                                           	INCR	_i
                                           	GOTO	_00825_DS_
                                           _00769_DS_
                                           ;	.line	849; "MC32P7351.c"	PWM2EC = 0; // 关闭控制升压电路的pwm
                                           	BCLR	_T2CRbits,6
                                           ;	.line	850; "MC32P7351.c"	T2DATA = 0;
                                           	CLRR	_T2DATA
                                           _00822_DS_
                                           ;	.line	872; "MC32P7351.c"	key_scan_handle(); // 按键扫描和处理函数
                                           	CALL	_key_scan_handle
                                           ;	.line	873; "MC32P7351.c"	adc_scan_handle(); // 充电扫描和处理函数(约占用89ms)
                                           	CALL	_adc_scan_handle
                                           ;	.line	875; "MC32P7351.c"	turn_dir_scan_handle();
                                           	CALL	_turn_dir_scan_handle
                                           ;	.line	876; "MC32P7351.c"	shutdown_scan_handle(); // 自动关机检测和处理函数
                                           	CALL	_shutdown_scan_handle
                                           ;	.line	880; "MC32P7351.c"	if (FLAG_IS_IN_CHARGING)
                                           	JBSET	_flag1,2
                                           	GOTO	_00802_DS_
                                           ;	.line	882; "MC32P7351.c"	last_pwm_val = T2DATA;      // 读出上一次PWM占空比对应的值
                                           	MOVAR	_T2DATA
                                           	MOVRA	_last_pwm_val
                                           	CLRR	(_last_pwm_val + 1)
                                           ;	.line	883; "MC32P7351.c"	max_pwm_val = (T2LOAD + 1); // 读出PWM占空比设定的、最大的值
                                           	MOVAR	_T2LOAD
                                           	MOVRA	r0x1044
                                           	CLRR	r0x1045
                                           	MOVAI	0x01
                                           	ADDAR	r0x1044
                                           	MOVRA	_max_pwm_val
                                           	CLRR	(_max_pwm_val + 1)
                                           	RLR	(_max_pwm_val + 1)
                                           	MOVAI	0x00
                                           	ADDRA	(_max_pwm_val + 1)
                                           	CLRR	(_max_pwm_val + 2)
                                           	CLRR	(_max_pwm_val + 3)
                                           ;;unsigned compare: left < lit(0xA3B=2619), size=4
                                           ;	.line	900; "MC32P7351.c"	if (adc_bat_val < 2619) // 如果在充电时检测到电池电压小于6.0V
                                           	MOVAI	0x00
                                           	RSUBAR	(_adc_bat_val + 3)
                                           	JBSET	PFLAG,2
                                           	GOTO	_00936_DS_
                                           	MOVAI	0x00
                                           	RSUBAR	(_adc_bat_val + 2)
                                           	JBSET	PFLAG,2
                                           	GOTO	_00936_DS_
                                           	MOVAI	0x0a
                                           	RSUBAR	(_adc_bat_val + 1)
                                           	JBSET	PFLAG,2
                                           	GOTO	_00936_DS_
                                           	MOVAI	0x3b
                                           	RSUBAR	_adc_bat_val
                                           _00936_DS_
                                           	JBCLR	PFLAG,0
                                           	GOTO	_00783_DS_
                                           ;;genSkipc:3291: created from rifx:013B5EFC
                                           ;	.line	904; "MC32P7351.c"	tmp_bat_val = (adc_bat_val + 37);
                                           	MOVAR	_adc_bat_val
                                           	MOVRA	r0x1044
                                           	MOVAR	(_adc_bat_val + 1)
                                           	MOVRA	r0x1045
                                           	MOVAI	0x25
                                           	ADDAR	r0x1044
                                           	MOVRA	_tmp_bat_val
                                           	CLRR	(_tmp_bat_val + 1)
                                           	RLR	(_tmp_bat_val + 1)
                                           	MOVAR	r0x1045
                                           	ADDRA	(_tmp_bat_val + 1)
                                           	GOTO	_00784_DS_
                                           ;;swapping arguments (AOP_TYPEs 1/3)
                                           ;;unsigned compare: left >= lit(0xB16=2838), size=4
                                           _00783_DS_
                                           ;	.line	906; "MC32P7351.c"	else if (adc_bat_val <= 2837) // 如果检测电池电压小于 6.5V
                                           	MOVAI	0x00
                                           	RSUBAR	(_adc_bat_val + 3)
                                           	JBSET	PFLAG,2
                                           	GOTO	_00937_DS_
                                           	MOVAI	0x00
                                           	RSUBAR	(_adc_bat_val + 2)
                                           	JBSET	PFLAG,2
                                           	GOTO	_00937_DS_
                                           	MOVAI	0x0b
                                           	RSUBAR	(_adc_bat_val + 1)
                                           	JBSET	PFLAG,2
                                           	GOTO	_00937_DS_
                                           	MOVAI	0x16
                                           	RSUBAR	_adc_bat_val
                                           _00937_DS_
                                           	JBCLR	PFLAG,0
                                           	GOTO	_00780_DS_
                                           ;;genSkipc:3291: created from rifx:013B5EFC
                                           ;	.line	908; "MC32P7351.c"	tmp_bat_val = (adc_bat_val + 37);
                                           	MOVAR	_adc_bat_val
                                           	MOVRA	r0x1044
                                           	MOVAR	(_adc_bat_val + 1)
                                           	MOVRA	r0x1045
                                           	MOVAI	0x25
                                           	ADDAR	r0x1044
                                           	MOVRA	_tmp_bat_val
                                           	CLRR	(_tmp_bat_val + 1)
                                           	RLR	(_tmp_bat_val + 1)
                                           	MOVAR	r0x1045
                                           	ADDRA	(_tmp_bat_val + 1)
                                           	GOTO	_00784_DS_
                                           ;;swapping arguments (AOP_TYPEs 1/3)
                                           ;;unsigned compare: left >= lit(0xBF1=3057), size=4
                                           _00780_DS_
                                           ;	.line	910; "MC32P7351.c"	else if (adc_bat_val <= 3056) // 如果检测电池电压小于 7.0V
                                           	MOVAI	0x00
                                           	RSUBAR	(_adc_bat_val + 3)
                                           	JBSET	PFLAG,2
                                           	GOTO	_00938_DS_
                                           	MOVAI	0x00
                                           	RSUBAR	(_adc_bat_val + 2)
                                           	JBSET	PFLAG,2
                                           	GOTO	_00938_DS_
                                           	MOVAI	0x0b
                                           	RSUBAR	(_adc_bat_val + 1)
                                           	JBSET	PFLAG,2
                                           	GOTO	_00938_DS_
                                           	MOVAI	0xf1
                                           	RSUBAR	_adc_bat_val
                                           _00938_DS_
                                           	JBCLR	PFLAG,0
                                           	GOTO	_00777_DS_
                                           ;;genSkipc:3291: created from rifx:013B5EFC
                                           ;	.line	913; "MC32P7351.c"	tmp_bat_val = (adc_bat_val + 27);
                                           	MOVAR	_adc_bat_val
                                           	MOVRA	r0x1044
                                           	MOVAR	(_adc_bat_val + 1)
                                           	MOVRA	r0x1045
                                           	MOVAI	0x1b
                                           	ADDAR	r0x1044
                                           	MOVRA	_tmp_bat_val
                                           	CLRR	(_tmp_bat_val + 1)
                                           	RLR	(_tmp_bat_val + 1)
                                           	MOVAR	r0x1045
                                           	ADDRA	(_tmp_bat_val + 1)
                                           	GOTO	_00784_DS_
                                           ;;swapping arguments (AOP_TYPEs 1/3)
                                           ;;unsigned compare: left >= lit(0xC75=3189), size=4
                                           _00777_DS_
                                           ;	.line	915; "MC32P7351.c"	else if (adc_bat_val <= 3188) // 如果检测电池电压小于 7.3V
                                           	MOVAI	0x00
                                           	RSUBAR	(_adc_bat_val + 3)
                                           	JBSET	PFLAG,2
                                           	GOTO	_00939_DS_
                                           	MOVAI	0x00
                                           	RSUBAR	(_adc_bat_val + 2)
                                           	JBSET	PFLAG,2
                                           	GOTO	_00939_DS_
                                           	MOVAI	0x0c
                                           	RSUBAR	(_adc_bat_val + 1)
                                           	JBSET	PFLAG,2
                                           	GOTO	_00939_DS_
                                           	MOVAI	0x75
                                           	RSUBAR	_adc_bat_val
                                           _00939_DS_
                                           	JBCLR	PFLAG,0
                                           	GOTO	_00774_DS_
                                           ;;genSkipc:3291: created from rifx:013B5EFC
                                           ;	.line	918; "MC32P7351.c"	tmp_bat_val = (adc_bat_val + 16);
                                           	MOVAR	_adc_bat_val
                                           	MOVRA	r0x1044
                                           	MOVAR	(_adc_bat_val + 1)
                                           	MOVRA	r0x1045
                                           	MOVAI	0x10
                                           	ADDAR	r0x1044
                                           	MOVRA	_tmp_bat_val
                                           	CLRR	(_tmp_bat_val + 1)
                                           	RLR	(_tmp_bat_val + 1)
                                           	MOVAR	r0x1045
                                           	ADDRA	(_tmp_bat_val + 1)
                                           	GOTO	_00784_DS_
                                           ;;swapping arguments (AOP_TYPEs 1/3)
                                           ;;unsigned compare: left >= lit(0xCFF=3327), size=4
                                           _00774_DS_
                                           ;	.line	920; "MC32P7351.c"	else if (adc_bat_val <= 3326) // 如果检测电池电压小于 7.62V
                                           	MOVAI	0x00
                                           	RSUBAR	(_adc_bat_val + 3)
                                           	JBSET	PFLAG,2
                                           	GOTO	_00940_DS_
                                           	MOVAI	0x00
                                           	RSUBAR	(_adc_bat_val + 2)
                                           	JBSET	PFLAG,2
                                           	GOTO	_00940_DS_
                                           	MOVAI	0x0c
                                           	RSUBAR	(_adc_bat_val + 1)
                                           	JBSET	PFLAG,2
                                           	GOTO	_00940_DS_
                                           	MOVAI	0xff
                                           	RSUBAR	_adc_bat_val
                                           _00940_DS_
                                           	JBCLR	PFLAG,0
                                           	GOTO	_00771_DS_
                                           ;;genSkipc:3291: created from rifx:013B5EFC
                                           ;	.line	923; "MC32P7351.c"	tmp_bat_val = (adc_bat_val + 0);
                                           	MOVAR	_adc_bat_val
                                           	MOVRA	_tmp_bat_val
                                           	MOVAR	(_adc_bat_val + 1)
                                           	MOVRA	(_tmp_bat_val + 1)
                                           	GOTO	_00784_DS_
                                           _00771_DS_
                                           ;	.line	936; "MC32P7351.c"	tmp_bat_val = (u32)adc_bat_val - ((u32)adc_bat_val * 157 / 1000 - 522);
                                           	MOVAR	_adc_bat_val
                                           	MOVRA	STK06
                                           	MOVAR	(_adc_bat_val + 1)
                                           	MOVRA	STK05
                                           	MOVAR	(_adc_bat_val + 2)
                                           	MOVRA	STK04
                                           	MOVAR	(_adc_bat_val + 3)
                                           	MOVRA	STK03
                                           	MOVAI	0x9d
                                           	MOVRA	STK02
                                           	MOVAI	0x00
                                           	MOVRA	STK01
                                           	MOVAI	0x00
                                           	MOVRA	STK00
                                           	MOVAI	0x00
                                           	CALL	__mullong
                                           	MOVRA	r0x1046
                                           	MOVAR	STK00
                                           	MOVRA	r0x1047
                                           	MOVAR	STK01
                                           	MOVRA	r0x1045
                                           	MOVAR	STK02
                                           	MOVRA	r0x1044
                                           	MOVAI	0xe8
                                           	MOVRA	STK06
                                           	MOVAI	0x03
                                           	MOVRA	STK05
                                           	MOVAI	0x00
                                           	MOVRA	STK04
                                           	MOVAI	0x00
                                           	MOVRA	STK03
                                           	MOVAR	r0x1044
                                           	MOVRA	STK02
                                           	MOVAR	r0x1045
                                           	MOVRA	STK01
                                           	MOVAR	r0x1047
                                           	MOVRA	STK00
                                           	MOVAR	r0x1046
                                           	CALL	__divulong
                                           	MOVRA	r0x1046
                                           	MOVAR	STK00
                                           	MOVRA	r0x1047
                                           	MOVAR	STK01
                                           	MOVRA	r0x1049
                                           	MOVRA	r0x1045
                                           	MOVAR	STK02
                                           	MOVRA	r0x1048
                                           	MOVRA	r0x1044
                                           ;;124	MOVAR	r0x1044
                                           ;;125	MOVAR	r0x1045
                                           	MOVAI	0xf6
                                           	ADDAR	r0x1048
                                           	MOVRA	r0x1044
                                           	MOVAI	0xfd
                                           	MOVRA	r0x1045
                                           	MOVAR	r0x1049
                                           	JBCLR	PFLAG,0
                                           	JZAR	r0x1049
                                           	ADDRA	r0x1045
                                           	MOVAR	_adc_bat_val
                                           	MOVRA	r0x1048
                                           	MOVAR	(_adc_bat_val + 1)
                                           	MOVRA	r0x1049
                                           	MOVAR	r0x1044
                                           	RSUBAR	r0x1048
                                           	MOVRA	_tmp_bat_val
                                           	MOVAR	r0x1045
                                           	JBSET	PFLAG,0
                                           	INCAR	r0x1045
                                           	RSUBAR	r0x1049
                                           	MOVRA	(_tmp_bat_val + 1)
                                           _00784_DS_
                                           ;	.line	958; "MC32P7351.c"	tmp_bat_val += 55;
                                           	MOVAI	0x37
                                           	ADDRA	_tmp_bat_val
                                           	JBCLR	PFLAG,0
                                           	INCR	(_tmp_bat_val + 1)
                                           ;	.line	1004; "MC32P7351.c"	tmp_val = max_pwm_val - (adc_charging_val * max_pwm_val * 94 / 147) / tmp_bat_val;
                                           	MOVAR	_adc_charging_val
                                           	MOVRA	r0x1044
                                           	MOVAR	(_adc_charging_val + 1)
                                           	MOVRA	r0x1045
                                           	CLRR	r0x1048
                                           	CLRR	r0x1049
                                           	MOVAR	_max_pwm_val
                                           	MOVRA	STK06
                                           	MOVAR	(_max_pwm_val + 1)
                                           	MOVRA	STK05
                                           	MOVAR	(_max_pwm_val + 2)
                                           	MOVRA	STK04
                                           	MOVAR	(_max_pwm_val + 3)
                                           	MOVRA	STK03
                                           	MOVAR	r0x1044
                                           	MOVRA	STK02
                                           	MOVAR	r0x1045
                                           	MOVRA	STK01
                                           	MOVAI	0x00
                                           	MOVRA	STK00
                                           	MOVAI	0x00
                                           	CALL	__mullong
                                           	MOVRA	r0x1049
                                           	MOVAR	STK00
                                           	MOVRA	r0x1048
                                           	MOVAR	STK01
                                           	MOVRA	r0x1045
                                           	MOVAR	STK02
                                           	MOVRA	r0x1044
                                           	MOVAR	r0x1044
                                           	MOVRA	STK06
                                           	MOVAR	r0x1045
                                           	MOVRA	STK05
                                           	MOVAR	r0x1048
                                           	MOVRA	STK04
                                           	MOVAR	r0x1049
                                           	MOVRA	STK03
                                           	MOVAI	0x5e
                                           	MOVRA	STK02
                                           	MOVAI	0x00
                                           	MOVRA	STK01
                                           	MOVAI	0x00
                                           	MOVRA	STK00
                                           	MOVAI	0x00
                                           	CALL	__mullong
                                           	MOVRA	r0x1049
                                           	MOVAR	STK00
                                           	MOVRA	r0x1048
                                           	MOVAR	STK01
                                           	MOVRA	r0x1045
                                           	MOVAR	STK02
                                           	MOVRA	r0x1044
                                           	MOVAI	0x93
                                           	MOVRA	STK06
                                           	MOVAI	0x00
                                           	MOVRA	STK05
                                           	MOVAI	0x00
                                           	MOVRA	STK04
                                           	MOVAI	0x00
                                           	MOVRA	STK03
                                           	MOVAR	r0x1044
                                           	MOVRA	STK02
                                           	MOVAR	r0x1045
                                           	MOVRA	STK01
                                           	MOVAR	r0x1048
                                           	MOVRA	STK00
                                           	MOVAR	r0x1049
                                           	CALL	__divulong
                                           	MOVRA	r0x1049
                                           	MOVAR	STK00
                                           	MOVRA	r0x1048
                                           	MOVAR	STK01
                                           	MOVRA	r0x1045
                                           	MOVAR	STK02
                                           	MOVRA	r0x1044
                                           	MOVAR	_tmp_bat_val
                                           	MOVRA	r0x104A
                                           	MOVAR	(_tmp_bat_val + 1)
                                           	MOVRA	r0x104B
                                           	CLRR	r0x104C
                                           	CLRR	r0x104D
                                           	MOVAR	r0x104A
                                           	MOVRA	STK06
                                           	MOVAR	r0x104B
                                           	MOVRA	STK05
                                           	MOVAI	0x00
                                           	MOVRA	STK04
                                           	MOVAI	0x00
                                           	MOVRA	STK03
                                           	MOVAR	r0x1044
                                           	MOVRA	STK02
                                           	MOVAR	r0x1045
                                           	MOVRA	STK01
                                           	MOVAR	r0x1048
                                           	MOVRA	STK00
                                           	MOVAR	r0x1049
                                           	CALL	__divulong
                                           	MOVRA	r0x1049
                                           	MOVAR	STK00
                                           	MOVRA	r0x1048
                                           	MOVAR	STK01
                                           	MOVRA	r0x104D
                                           	MOVRA	r0x1045
                                           	MOVAR	STK02
                                           	MOVRA	r0x104C
                                           	MOVRA	r0x1044
                                           	MOVAR	_max_pwm_val
                                           	MOVRA	r0x104A
                                           	MOVAR	(_max_pwm_val + 1)
                                           	MOVRA	r0x104B
                                           ;;121	MOVAR	r0x1044
                                           ;;122	MOVAR	r0x1045
                                           	MOVAR	r0x104C
                                           	RSUBAR	r0x104A
                                           	MOVRA	_tmp_val
                                           	MOVAR	r0x104D
                                           	JBSET	PFLAG,0
                                           	INCAR	r0x104D
                                           	RSUBAR	r0x104B
                                           	MOVRA	(_tmp_val + 1)
                                           ;	.line	1006; "MC32P7351.c"	if (tmp_val >= max_pwm_val)
                                           	MOVAR	_tmp_val
                                           	MOVRA	r0x1044
                                           	MOVAR	(_tmp_val + 1)
                                           	MOVRA	r0x1045
                                           	CLRR	r0x1048
                                           	CLRR	r0x1049
                                           	MOVAR	(_max_pwm_val + 3)
                                           	RSUBAR	r0x1049
                                           	JBSET	PFLAG,2
                                           	GOTO	_00941_DS_
                                           	MOVAR	(_max_pwm_val + 2)
                                           	RSUBAR	r0x1048
                                           	JBSET	PFLAG,2
                                           	GOTO	_00941_DS_
                                           	MOVAR	(_max_pwm_val + 1)
                                           	RSUBAR	r0x1045
                                           	JBSET	PFLAG,2
                                           	GOTO	_00941_DS_
                                           	MOVAR	_max_pwm_val
                                           	RSUBAR	r0x1044
                                           _00941_DS_
                                           	JBSET	PFLAG,0
                                           	GOTO	_00786_DS_
                                           ;;genSkipc:3291: created from rifx:013B5EFC
                                           ;	.line	1009; "MC32P7351.c"	tmp_val = 0;
                                           	CLRR	_tmp_val
                                           	CLRR	(_tmp_val + 1)
                                           _00786_DS_
                                           ;	.line	1013; "MC32P7351.c"	tmp_val_cnt++;
                                           	INCR	_tmp_val_cnt
                                           ;	.line	1014; "MC32P7351.c"	tmp_val_cnt &= 0x07;
                                           	MOVAI	0x07
                                           	ANDRA	_tmp_val_cnt
                                           ;	.line	1015; "MC32P7351.c"	tmp_val_l[tmp_val_cnt] = (tmp_val_l[tmp_val_cnt] + tmp_val) >> 1;
                                           	BCLR	PFLAG,0
                                           	RLAR	_tmp_val_cnt
                                           	MOVRA	r0x1044
                                           	MOVAR	r0x1044
                                           	ADDAI	(_tmp_val_l + 0)
                                           	MOVRA	r0x1044
                                           	MOVAI	high (_tmp_val_l + 0)
                                           	JBCLR	PFLAG,0
                                           	ADDAI	0x01
                                           	MOVRA	r0x1045
                                           	BCLR	PFLAG,0
                                           	RLAR	_tmp_val_cnt
                                           	MOVRA	r0x1048
                                           	MOVAR	r0x1048
                                           	ADDAI	(_tmp_val_l + 0)
                                           	MOVRA	r0x1048
                                           	MOVAI	high (_tmp_val_l + 0)
                                           	JBCLR	PFLAG,0
                                           	ADDAI	0x01
                                           	MOVRA	r0x1049
                                           	MOVAR	r0x1048
                                           	MOVRA	FSR0
                                           	MOVAR	r0x1049
                                           	MOVRA	FSR1
                                           	MOVAR	INDF2
                                           	MOVRA	r0x104A
                                           	INCR	FSR0
                                           	JBCLR	PFLAG,2
                                           	INCR	FSR1
                                           	MOVAR	INDF2
                                           	MOVRA	r0x1049
                                           	MOVRA	r0x104B
                                           	MOVAR	_tmp_val
                                           	ADDAR	r0x104A
                                           	MOVRA	r0x1048
                                           ;;123	MOVAR	r0x104B
                                           	MOVAR	(_tmp_val + 1)
                                           	JBCLR	PFLAG,0
                                           	JZAR	(_tmp_val + 1)
                                           	ADDRA	r0x1049
                                           ;;shiftRight_Left2ResultLit:5339: shCount=1, size=2, sign=0, same=0, offr=0
                                           	BCLR	PFLAG,0
                                           	RRAR	r0x1049
                                           	MOVRA	r0x104B
                                           	RRAR	r0x1048
                                           	MOVRA	r0x104A
                                           	MOVAR	r0x1044
                                           	MOVRA	FSR0
                                           	MOVAR	r0x1045
                                           	MOVRA	FSR1
                                           	MOVAR	r0x104A
                                           	MOVRA	INDF2
                                           	INCR	FSR0
                                           	JBCLR	PFLAG,2
                                           	INCR	FSR1
                                           	MOVAR	r0x104B
                                           	MOVRA	INDF2
                                           ;	.line	1016; "MC32P7351.c"	tmp_val = 0;
                                           	CLRR	_tmp_val
                                           	CLRR	(_tmp_val + 1)
                                           ;	.line	1017; "MC32P7351.c"	for (i = 0; i < 8; i++)
                                           	CLRR	_i
                                           ;;unsigned compare: left < lit(0x8=8), size=1
                                           _00828_DS_
                                           	MOVAI	0x08
                                           	RSUBAR	_i
                                           	JBCLR	PFLAG,0
                                           	GOTO	_00787_DS_
                                           ;;genSkipc:3291: created from rifx:013B5EFC
                                           ;	.line	1019; "MC32P7351.c"	tmp_val += tmp_val_l[i];
                                           	BCLR	PFLAG,0
                                           	RLAR	_i
                                           	MOVRA	r0x1044
                                           	MOVAR	r0x1044
                                           	ADDAI	(_tmp_val_l + 0)
                                           	MOVRA	r0x1044
                                           	MOVAI	high (_tmp_val_l + 0)
                                           	JBCLR	PFLAG,0
                                           	ADDAI	0x01
                                           	MOVRA	r0x1045
                                           	MOVAR	r0x1044
                                           	MOVRA	FSR0
                                           	MOVAR	r0x1045
                                           	MOVRA	FSR1
                                           	MOVAR	INDF2
                                           	MOVRA	r0x1048
                                           	INCR	FSR0
                                           	JBCLR	PFLAG,2
                                           	INCR	FSR1
                                           	MOVAR	INDF2
                                           	MOVRA	r0x1049
                                           	MOVAR	r0x1048
                                           	ADDRA	_tmp_val
                                           	MOVAR	r0x1049
                                           	JBCLR	PFLAG,0
                                           	JZAR	r0x1049
                                           	ADDRA	(_tmp_val + 1)
                                           ;	.line	1017; "MC32P7351.c"	for (i = 0; i < 8; i++)
                                           	INCR	_i
                                           	GOTO	_00828_DS_
                                           ;;shiftRight_Left2ResultLit:5339: shCount=1, size=2, sign=0, same=1, offr=0
                                           _00787_DS_
                                           ;	.line	1021; "MC32P7351.c"	tmp_val >>= 3;
                                           	BCLR	PFLAG,0
                                           	RRR	(_tmp_val + 1)
                                           	RRR	_tmp_val
                                           ;;shiftRight_Left2ResultLit:5339: shCount=1, size=2, sign=0, same=1, offr=0
                                           	BCLR	PFLAG,0
                                           	RRR	(_tmp_val + 1)
                                           	RRR	_tmp_val
                                           ;;shiftRight_Left2ResultLit:5339: shCount=1, size=2, sign=0, same=1, offr=0
                                           	BCLR	PFLAG,0
                                           	RRR	(_tmp_val + 1)
                                           	RRR	_tmp_val
                                           ;	.line	1023; "MC32P7351.c"	if (tmp_val > last_pwm_val)
                                           	MOVAR	(_tmp_val + 1)
                                           	RSUBAR	(_last_pwm_val + 1)
                                           	JBSET	PFLAG,2
                                           	GOTO	_00943_DS_
                                           	MOVAR	_tmp_val
                                           	RSUBAR	_last_pwm_val
                                           _00943_DS_
                                           	JBCLR	PFLAG,0
                                           	GOTO	_00791_DS_
                                           ;;genSkipc:3291: created from rifx:013B5EFC
                                           ;	.line	1025; "MC32P7351.c"	last_pwm_val = last_pwm_val + 1;
                                           	INCR	_last_pwm_val
                                           	JBCLR	PFLAG,2
                                           	INCR	(_last_pwm_val + 1)
                                           	GOTO	_00792_DS_
                                           _00791_DS_
                                           ;	.line	1027; "MC32P7351.c"	else if (tmp_val < last_pwm_val)
                                           	MOVAR	(_last_pwm_val + 1)
                                           	RSUBAR	(_tmp_val + 1)
                                           	JBSET	PFLAG,2
                                           	GOTO	_00944_DS_
                                           	MOVAR	_last_pwm_val
                                           	RSUBAR	_tmp_val
                                           _00944_DS_
                                           	JBCLR	PFLAG,0
                                           	GOTO	_00792_DS_
                                           ;;genSkipc:3291: created from rifx:013B5EFC
                                           ;	.line	1029; "MC32P7351.c"	last_pwm_val = last_pwm_val - 1;
                                           	MOVAI	0xff
                                           	ADDRA	_last_pwm_val
                                           	JBSET	PFLAG,0
                                           	DECR	(_last_pwm_val + 1)
                                           _00792_DS_
                                           ;	.line	1032; "MC32P7351.c"	T2DATA = last_pwm_val;
                                           	MOVAR	_last_pwm_val
                                           	MOVRA	_T2DATA
                                           	GOTO	_00803_DS_
                                           _00802_DS_
                                           ;	.line	1036; "MC32P7351.c"	if (FLAG_DURING_CHARGING_BAT_IS_NULL)
                                           	JBSET	_flag1,7
                                           	GOTO	_00803_DS_
                                           ;	.line	1039; "MC32P7351.c"	LED_FULL_CHARGE_ON();
                                           	BCLR	_IOP0bits,3
                                           ;	.line	1040; "MC32P7351.c"	delay_ms(200);
                                           	MOVAI	0xc8
                                           	MOVRA	STK00
                                           	MOVAI	0x00
                                           	CALL	_delay_ms
                                           ;	.line	1041; "MC32P7351.c"	LED_FULL_CHARGE_OFF();
                                           	BSET	_IOP0bits,3
                                           ;	.line	1042; "MC32P7351.c"	delay_ms(200);
                                           	MOVAI	0xc8
                                           	MOVRA	STK00
                                           	MOVAI	0x00
                                           	CALL	_delay_ms
                                           _00803_DS_
                                           ;	.line	1046; "MC32P7351.c"	if (flag_is_low_battery && FLAG_IS_DEVICE_OPEN)
                                           	JBSET	_flag2,2
                                           	GOTO	_00816_DS_
                                           	JBSET	_flag1,0
                                           	GOTO	_00816_DS_
                                           ;	.line	1048; "MC32P7351.c"	LED_WORKING_OFF();
                                           	BSET	_IOP1bits,4
                                           ;	.line	1051; "MC32P7351.c"	LED_CHARGING_ON();
                                           	BCLR	_IOP0bits,4
                                           ;	.line	1053; "MC32P7351.c"	for (i = 0; i < 20; i++)
                                           	CLRR	_i
                                           ;;unsigned compare: left < lit(0x14=20), size=1
                                           _00831_DS_
                                           	MOVAI	0x14
                                           	RSUBAR	_i
                                           	JBCLR	PFLAG,0
                                           	GOTO	_00811_DS_
                                           ;;genSkipc:3291: created from rifx:013B5EFC
                                           ;	.line	1055; "MC32P7351.c"	key_scan_handle();
                                           	CALL	_key_scan_handle
                                           ;	.line	1056; "MC32P7351.c"	delay_ms(10);
                                           	MOVAI	0x0a
                                           	MOVRA	STK00
                                           	MOVAI	0x00
                                           	CALL	_delay_ms
                                           ;	.line	1053; "MC32P7351.c"	for (i = 0; i < 20; i++)
                                           	INCR	_i
                                           	GOTO	_00831_DS_
                                           _00811_DS_
                                           ;	.line	1059; "MC32P7351.c"	LED_CHARGING_OFF();
                                           	BSET	_IOP0bits,4
                                           ;	.line	1061; "MC32P7351.c"	for (i = 0; i < 20; i++)
                                           	CLRR	_i
                                           ;;unsigned compare: left < lit(0x14=20), size=1
                                           _00834_DS_
                                           	MOVAI	0x14
                                           	RSUBAR	_i
                                           	JBCLR	PFLAG,0
                                           	GOTO	_00816_DS_
                                           ;;genSkipc:3291: created from rifx:013B5EFC
                                           ;	.line	1063; "MC32P7351.c"	key_scan_handle();
                                           	CALL	_key_scan_handle
                                           ;	.line	1064; "MC32P7351.c"	delay_ms(10);
                                           	MOVAI	0x0a
                                           	MOVRA	STK00
                                           	MOVAI	0x00
                                           	CALL	_delay_ms
                                           ;	.line	1061; "MC32P7351.c"	for (i = 0; i < 20; i++)
                                           	INCR	_i
                                           	GOTO	_00834_DS_
                                           _00816_DS_
                                           ;	.line	1068; "MC32P7351.c"	if (FLAG_IS_DEVICE_OPEN && FLAG_IS_IN_CHARGING)
                                           	JBSET	_flag1,0
                                           	GOTO	_00819_DS_
                                           	JBSET	_flag1,2
                                           	GOTO	_00819_DS_
                                           ;	.line	1071; "MC32P7351.c"	flag_is_low_battery = 0;
                                           	BCLR	_flag2,2
                                           _00819_DS_
                                           ;	.line	1074; "MC32P7351.c"	low_power_scan_handle();
                                           	CALL	_low_power_scan_handle
                                           ;	.line	1081; "MC32P7351.c"	__endasm;
                                           	;
                                           	CLRWDT;
                                           	
                                           	GOTO	_00822_DS_
                                           ;	.line	1084; "MC32P7351.c"	}
                                           	RETURN	
                                           ; exit point of _main
                                           
                                           ;***
                                           ;  pBlock Stats: dbName = C
                                           ;***
                                           ;entry:  _low_power_scan_handle	;Function start
                                           ; 2 exit points
                                           ;has an exit
                                           ;functions called:
                                           ;   _CLR_RAM
                                           ;   _adc_config
                                           ;   _adc_sel_pin
                                           ;   _adc_get_val_once
                                           ;   _Sys_Init
                                           ;   _delay_ms
                                           ;   _CLR_RAM
                                           ;   _adc_config
                                           ;   _adc_sel_pin
                                           ;   _adc_get_val_once
                                           ;   _Sys_Init
                                           ;   _delay_ms
                                           ;1 compiler assigned register :
                                           ;   STK00
                                           ;; Starting pCode block
                                           _low_power_scan_handle	;Function start
                                           ; 2 exit points
                                           ;	.line	725; "MC32P7351.c"	if (FLAG_DURING_CHARGING_BAT_IS_NULL) // 只插着充电器且没有电池时，不进入低功耗
                                           	JBSET	_flag1,7
                                           	GOTO	_00713_DS_
                                           ;	.line	727; "MC32P7351.c"	return;
                                           	GOTO	_00731_DS_
                                           _00713_DS_
                                           ;	.line	730; "MC32P7351.c"	if (FLAG_IS_DEVICE_OPEN)
                                           	JBSET	_flag1,0
                                           	GOTO	_00715_DS_
                                           ;	.line	733; "MC32P7351.c"	return;
                                           	GOTO	_00731_DS_
                                           _00715_DS_
                                           ;	.line	738; "MC32P7351.c"	if (FLAG_IS_IN_CHARGING)
                                           	JBSET	_flag1,2
                                           	GOTO	_00718_DS_
                                           ;	.line	741; "MC32P7351.c"	return;
                                           	GOTO	_00731_DS_
                                           _00718_DS_
                                           ;	.line	745; "MC32P7351.c"	GIE = 0;  // 禁用所有中断
                                           	BCLR	_MCRbits,7
                                           ;	.line	746; "MC32P7351.c"	T0EN = 0; // 关闭定时器和PWM输出
                                           	BCLR	_T0CRbits,7
                                           ;	.line	747; "MC32P7351.c"	T1EN = 0;
                                           	BCLR	_T1CRbits,7
                                           ;	.line	748; "MC32P7351.c"	T2EN = 0;
                                           	BCLR	_T2CRbits,7
                                           ;	.line	749; "MC32P7351.c"	T3EN = 0;
                                           	BCLR	_T3CRbits,7
                                           ;	.line	751; "MC32P7351.c"	PWM0EC = 0;
                                           	BCLR	_T0CRbits,6
                                           ;	.line	752; "MC32P7351.c"	PWM1EC = 0;
                                           	BCLR	_T1CRbits,6
                                           ;	.line	753; "MC32P7351.c"	PWM2EC = 0;
                                           	BCLR	_T2CRbits,6
                                           ;	.line	754; "MC32P7351.c"	T2DATA = 0;
                                           	CLRR	_T2DATA
                                           ;	.line	755; "MC32P7351.c"	ADEN = 0; // 不使能ad
                                           	BCLR	_ADCR0bits,0
                                           ;	.line	758; "MC32P7351.c"	P14OE = 0;
                                           	BCLR	_OEP1bits,4
                                           ;	.line	759; "MC32P7351.c"	P04OE = 0;
                                           	BCLR	_OEP0bits,4
                                           ;	.line	760; "MC32P7351.c"	P03OE = 0;
                                           	BCLR	_OEP0bits,3
                                           ;	.line	763; "MC32P7351.c"	P01PU = 1;
                                           	BSET	_PUP0bits,1
                                           ;	.line	764; "MC32P7351.c"	P01OE = 0;
                                           	BCLR	_OEP0bits,1
                                           ;	.line	767; "MC32P7351.c"	P00PD = 1;
                                           	BSET	_PDP0bits,0
                                           ;	.line	768; "MC32P7351.c"	P00OE = 0;
                                           	BCLR	_OEP0bits,0
                                           ;	.line	770; "MC32P7351.c"	HFEN = 0; // 关闭高速时钟
                                           	BCLR	_OSCMRbits,0
                                           ;	.line	771; "MC32P7351.c"	LFEN = 1;
                                           	BSET	_OSCMRbits,1
                                           ;	.line	774; "MC32P7351.c"	Nop();
                                           	nop	
                                           ;	.line	775; "MC32P7351.c"	Nop();
                                           	nop	
                                           ;	.line	776; "MC32P7351.c"	Stop();
                                           	stop	
                                           ;	.line	777; "MC32P7351.c"	Nop();
                                           	nop	
                                           ;	.line	778; "MC32P7351.c"	Nop();
                                           	nop	
                                           ;	.line	780; "MC32P7351.c"	HFEN = 1; // 开启高速时钟
                                           	BSET	_OSCMRbits,0
                                           ;	.line	782; "MC32P7351.c"	CLR_RAM();
                                           	CALL	_CLR_RAM
                                           ;	.line	784; "MC32P7351.c"	adc_config();
                                           	CALL	_adc_config
                                           ;	.line	785; "MC32P7351.c"	adc_sel_pin(ADC_PIN_P00_AN0);
                                           	MOVAI	0x01
                                           	CALL	_adc_sel_pin
                                           ;	.line	786; "MC32P7351.c"	adc_val = adc_get_val_once();
                                           	CALL	_adc_get_val_once
                                           	MOVRA	(_adc_val + 1)
                                           	MOVAR	STK00
                                           	MOVRA	_adc_val
                                           ;;unsigned compare: left < lit(0x800=2048), size=2
                                           ;	.line	787; "MC32P7351.c"	if (adc_val < ADCDETECT_CHARING_THRESHOLD && P01D) // 如果按下开机按键/插入充电器，不会满足条件
                                           	MOVAI	0x08
                                           	RSUBAR	(_adc_val + 1)
                                           	JBSET	PFLAG,2
                                           	GOTO	_00753_DS_
                                           	MOVAI	0x00
                                           	RSUBAR	_adc_val
                                           _00753_DS_
                                           	JBCLR	PFLAG,0
                                           	GOTO	_00720_DS_
                                           ;;genSkipc:3291: created from rifx:013B5EFC
                                           	JBCLR	_IOP0bits,1
                                           	GOTO	_00718_DS_
                                           _00720_DS_
                                           ;	.line	813; "MC32P7351.c"	Sys_Init();
                                           	CALL	_Sys_Init
                                           ;	.line	815; "MC32P7351.c"	LED_WORKING_OFF();
                                           	BSET	_IOP1bits,4
                                           ;	.line	816; "MC32P7351.c"	LED_FULL_CHARGE_OFF();
                                           	BSET	_IOP0bits,3
                                           ;	.line	817; "MC32P7351.c"	LED_CHARGING_OFF();
                                           	BSET	_IOP0bits,4
                                           ;	.line	818; "MC32P7351.c"	GIE = 1;
                                           	BSET	_MCRbits,7
                                           ;	.line	820; "MC32P7351.c"	delay_ms(100); // 等待系统稳定
                                           	MOVAI	0x64
                                           	MOVRA	STK00
                                           	MOVAI	0x00
                                           	CALL	_delay_ms
                                           _00731_DS_
                                           ;	.line	821; "MC32P7351.c"	}
                                           	RETURN	
                                           ; exit point of _low_power_scan_handle
                                           
                                           ;***
                                           ;  pBlock Stats: dbName = C
                                           ;***
                                           ;entry:  _shutdown_scan_handle	;Function start
                                           ; 2 exit points
                                           ;has an exit
                                           ;; Starting pCode block
                                           _shutdown_scan_handle	;Function start
                                           ; 2 exit points
                                           ;	.line	697; "MC32P7351.c"	if (FLAG_IS_DEVICE_OPEN)
                                           	JBSET	_flag1,0
                                           	GOTO	_00695_DS_
                                           ;;unsigned compare: left < lit(0xDBBA0=900000), size=4
                                           ;	.line	701; "MC32P7351.c"	if (shut_down_ms_cnt >= 900000)
                                           	MOVAI	0x00
                                           	RSUBAR	(_shut_down_ms_cnt + 3)
                                           	JBSET	PFLAG,2
                                           	GOTO	_00707_DS_
                                           	MOVAI	0x0d
                                           	RSUBAR	(_shut_down_ms_cnt + 2)
                                           	JBSET	PFLAG,2
                                           	GOTO	_00707_DS_
                                           	MOVAI	0xbb
                                           	RSUBAR	(_shut_down_ms_cnt + 1)
                                           	JBSET	PFLAG,2
                                           	GOTO	_00707_DS_
                                           	MOVAI	0xa0
                                           	RSUBAR	_shut_down_ms_cnt
                                           _00707_DS_
                                           	JBSET	PFLAG,0
                                           	GOTO	_00697_DS_
                                           ;;genSkipc:3291: created from rifx:013B5EFC
                                           ;	.line	705; "MC32P7351.c"	LED_WORKING_OFF(); // 关闭电源指示灯
                                           	BSET	_IOP1bits,4
                                           ;	.line	706; "MC32P7351.c"	HEATING_OFF();     // 关闭加热
                                           	BCLR	_IOP1bits,2
                                           ;	.line	707; "MC32P7351.c"	FLAG_IS_HEATING = 0;
                                           	BCLR	_flag1,1
                                           ;	.line	708; "MC32P7351.c"	mode_flag = MODE_3; // 下一次切换模式时，会变成 MODE_1
                                           	MOVAI	0x02
                                           	MOVRA	_mode_flag
                                           ;	.line	710; "MC32P7351.c"	PWM0EC = 0;
                                           	BCLR	_T0CRbits,6
                                           ;	.line	711; "MC32P7351.c"	PWM1EC = 0;
                                           	BCLR	_T1CRbits,6
                                           ;	.line	713; "MC32P7351.c"	FLAG_IS_DEVICE_OPEN = 0;
                                           	BCLR	_flag1,0
                                           	GOTO	_00697_DS_
                                           _00695_DS_
                                           ;	.line	719; "MC32P7351.c"	shut_down_ms_cnt = 0;
                                           	CLRR	_shut_down_ms_cnt
                                           	CLRR	(_shut_down_ms_cnt + 1)
                                           	CLRR	(_shut_down_ms_cnt + 2)
                                           	CLRR	(_shut_down_ms_cnt + 3)
                                           _00697_DS_
                                           ;	.line	721; "MC32P7351.c"	}
                                           	RETURN	
                                           ; exit point of _shutdown_scan_handle
                                           
                                           ;***
                                           ;  pBlock Stats: dbName = C
                                           ;***
                                           ;entry:  _turn_dir_scan_handle	;Function start
                                           ; 2 exit points
                                           ;has an exit
                                           ;functions called:
                                           ;   _delay_ms
                                           ;   _delay_ms
                                           ;   _delay_ms
                                           ;   _delay_ms
                                           ;1 compiler assigned register :
                                           ;   STK00
                                           ;; Starting pCode block
                                           _turn_dir_scan_handle	;Function start
                                           ; 2 exit points
                                           ;	.line	661; "MC32P7351.c"	if (FLAG_IS_DEVICE_OPEN)
                                           	JBSET	_flag1,0
                                           	GOTO	_00665_DS_
                                           ;;unsigned compare: left < lit(0x1D4C0=120000), size=4
                                           ;	.line	665; "MC32P7351.c"	if (turn_dir_ms_cnt >= (120000)) // 原本设定是2min
                                           	MOVAI	0x00
                                           	RSUBAR	(_turn_dir_ms_cnt + 3)
                                           	JBSET	PFLAG,2
                                           	GOTO	_00681_DS_
                                           	MOVAI	0x01
                                           	RSUBAR	(_turn_dir_ms_cnt + 2)
                                           	JBSET	PFLAG,2
                                           	GOTO	_00681_DS_
                                           	MOVAI	0xd4
                                           	RSUBAR	(_turn_dir_ms_cnt + 1)
                                           	JBSET	PFLAG,2
                                           	GOTO	_00681_DS_
                                           	MOVAI	0xc0
                                           	RSUBAR	_turn_dir_ms_cnt
                                           _00681_DS_
                                           	JBSET	PFLAG,0
                                           	GOTO	_00667_DS_
                                           ;;genSkipc:3291: created from rifx:013B5EFC
                                           ;	.line	668; "MC32P7351.c"	if (0 == FLAG_DIR)
                                           	JBCLR	_flag1,3
                                           	GOTO	_00660_DS_
                                           ;	.line	671; "MC32P7351.c"	PWM0EC = 0; // 关闭驱动正转的pwm
                                           	BCLR	_T0CRbits,6
                                           ;	.line	672; "MC32P7351.c"	delay_ms(500);
                                           	MOVAI	0xf4
                                           	MOVRA	STK00
                                           	MOVAI	0x01
                                           	CALL	_delay_ms
                                           ;	.line	673; "MC32P7351.c"	PWM1EC = 1;   // 打开驱动反转的pwm
                                           	BSET	_T1CRbits,6
                                           ;	.line	674; "MC32P7351.c"	FLAG_DIR = 1; // 表示当前为反转
                                           	BSET	_flag1,3
                                           	GOTO	_00661_DS_
                                           _00660_DS_
                                           ;	.line	679; "MC32P7351.c"	PWM1EC = 0; // 关闭驱动反转的pwm
                                           	BCLR	_T1CRbits,6
                                           ;	.line	680; "MC32P7351.c"	delay_ms(500);
                                           	MOVAI	0xf4
                                           	MOVRA	STK00
                                           	MOVAI	0x01
                                           	CALL	_delay_ms
                                           ;	.line	681; "MC32P7351.c"	PWM0EC = 1;   // 打开驱动正转的pwm
                                           	BSET	_T0CRbits,6
                                           ;	.line	682; "MC32P7351.c"	FLAG_DIR = 0; // 表示当前为正转
                                           	BCLR	_flag1,3
                                           _00661_DS_
                                           ;	.line	685; "MC32P7351.c"	turn_dir_ms_cnt = 0;
                                           	CLRR	_turn_dir_ms_cnt
                                           	CLRR	(_turn_dir_ms_cnt + 1)
                                           	CLRR	(_turn_dir_ms_cnt + 2)
                                           	CLRR	(_turn_dir_ms_cnt + 3)
                                           	GOTO	_00667_DS_
                                           _00665_DS_
                                           ;	.line	690; "MC32P7351.c"	turn_dir_ms_cnt = 0; // 设备未运行时，清空计数值
                                           	CLRR	_turn_dir_ms_cnt
                                           	CLRR	(_turn_dir_ms_cnt + 1)
                                           	CLRR	(_turn_dir_ms_cnt + 2)
                                           	CLRR	(_turn_dir_ms_cnt + 3)
                                           _00667_DS_
                                           ;	.line	692; "MC32P7351.c"	}
                                           	RETURN	
                                           ; exit point of _turn_dir_scan_handle
                                           
                                           ;***
                                           ;  pBlock Stats: dbName = C
                                           ;***
                                           ;entry:  _adc_scan_handle	;Function start
                                           ; 2 exit points
                                           ;has an exit
                                           ;functions called:
                                           ;   _adc_sel_pin
                                           ;   _adc_get_val
                                           ;   _key_scan_handle
                                           ;   _adc_sel_pin
                                           ;   _adc_get_val
                                           ;   _key_scan_handle
                                           ;   _adc_sel_pin
                                           ;   _adc_get_val
                                           ;   _key_scan_handle
                                           ;   _adc_sel_pin
                                           ;   _adc_get_val
                                           ;   _key_scan_handle
                                           ;1 compiler assigned register :
                                           ;   STK00
                                           ;; Starting pCode block
                                           _adc_scan_handle	;Function start
                                           ; 2 exit points
                                           ;	.line	435; "MC32P7351.c"	volatile u8 cnt = 0;             // 计数值，用于检测电池是否满电，也是用于检测是否插入/拔出充电器的计数值
                                           	CLRR	_adc_scan_handle_cnt_65536_73
                                           ;	.line	436; "MC32P7351.c"	volatile u8 need_charge_cnt = 0; // 计数值，用于检测是否要快速充电
                                           	CLRR	_adc_scan_handle_need_charge_cnt_65536_73
                                           ;	.line	438; "MC32P7351.c"	adc_bat_val = 0;
                                           	CLRR	_adc_bat_val
                                           	CLRR	(_adc_bat_val + 1)
                                           	CLRR	(_adc_bat_val + 2)
                                           	CLRR	(_adc_bat_val + 3)
                                           ;	.line	439; "MC32P7351.c"	adc_charging_val = 0;
                                           	CLRR	_adc_charging_val
                                           	CLRR	(_adc_charging_val + 1)
                                           ;	.line	441; "MC32P7351.c"	adc_sel_pin(ADC_PIN_P02_AN1); // 切换到检测电池降压后的电压的检测引脚
                                           	MOVAI	0x02
                                           	CALL	_adc_sel_pin
                                           ;	.line	442; "MC32P7351.c"	for (i = 0; i < 10; i++)      //  // 每55ms进入一次，循环内每次间隔约4.8ms
                                           	CLRR	_i
                                           ;;unsigned compare: left < lit(0xA=10), size=1
                                           _00508_DS_
                                           	MOVAI	0x0a
                                           	RSUBAR	_i
                                           	JBCLR	PFLAG,0
                                           	GOTO	_00464_DS_
                                           ;;genSkipc:3291: created from rifx:013B5EFC
                                           ;	.line	444; "MC32P7351.c"	adc_val = adc_get_val();
                                           	CALL	_adc_get_val
                                           	MOVRA	(_adc_val + 1)
                                           	MOVAR	STK00
                                           	MOVRA	_adc_val
                                           ;	.line	446; "MC32P7351.c"	if (i == 0)
                                           	MOVAI	0x00
                                           	ORAR	_i
                                           	JBSET	PFLAG,2
                                           	GOTO	_00417_DS_
                                           ;	.line	448; "MC32P7351.c"	adc_bat_val = adc_val;
                                           	MOVAR	_adc_val
                                           	MOVRA	_adc_bat_val
                                           	MOVAR	(_adc_val + 1)
                                           	MOVRA	(_adc_bat_val + 1)
                                           	CLRR	(_adc_bat_val + 2)
                                           	CLRR	(_adc_bat_val + 3)
                                           _00417_DS_
                                           ;	.line	451; "MC32P7351.c"	if (FLAG_IS_IN_CHARGING)
                                           	JBSET	_flag1,2
                                           	GOTO	_00462_DS_
                                           ;;unsigned compare: left < lit(0xFA0=4000), size=2
                                           ;	.line	454; "MC32P7351.c"	if (adc_val >= ADCDETECT_BAT_FULL + ADCDETECT_BAT_NULL_EX)
                                           	MOVAI	0x0f
                                           	RSUBAR	(_adc_val + 1)
                                           	JBSET	PFLAG,2
                                           	GOTO	_00640_DS_
                                           	MOVAI	0xa0
                                           	RSUBAR	_adc_val
                                           _00640_DS_
                                           	JBSET	PFLAG,0
                                           	GOTO	_00419_DS_
                                           ;;genSkipc:3291: created from rifx:013B5EFC
                                           ;	.line	457; "MC32P7351.c"	T2DATA = 0;
                                           	CLRR	_T2DATA
                                           ;	.line	458; "MC32P7351.c"	over_charging_cnt++;
                                           	INCR	_over_charging_cnt
                                           ;;unsigned compare: left < lit(0xE88=3720), size=2
                                           _00419_DS_
                                           ;	.line	461; "MC32P7351.c"	if (adc_val >= ADCDETECT_BAT_FULL) // 检测电池是否满电
                                           	MOVAI	0x0e
                                           	RSUBAR	(_adc_val + 1)
                                           	JBSET	PFLAG,2
                                           	GOTO	_00641_DS_
                                           	MOVAI	0x88
                                           	RSUBAR	_adc_val
                                           _00641_DS_
                                           	JBSET	PFLAG,0
                                           	GOTO	_00423_DS_
                                           ;;genSkipc:3291: created from rifx:013B5EFC
                                           ;	.line	463; "MC32P7351.c"	cnt++;
                                           	INCR	_adc_scan_handle_cnt_65536_73
                                           	GOTO	_00424_DS_
                                           ;;unsigned compare: left < lit(0xD90=3472), size=2
                                           _00423_DS_
                                           ;	.line	465; "MC32P7351.c"	else if (adc_val < ADCDETECT_BAT_WILL_FULL) // 检测是否要快速充电
                                           	MOVAI	0x0d
                                           	RSUBAR	(_adc_val + 1)
                                           	JBSET	PFLAG,2
                                           	GOTO	_00642_DS_
                                           	MOVAI	0x90
                                           	RSUBAR	_adc_val
                                           _00642_DS_
                                           	JBCLR	PFLAG,0
                                           	GOTO	_00424_DS_
                                           ;;genSkipc:3291: created from rifx:013B5EFC
                                           ;	.line	467; "MC32P7351.c"	need_charge_cnt++;
                                           	INCR	_adc_scan_handle_need_charge_cnt_65536_73
                                           _00424_DS_
                                           ;	.line	470; "MC32P7351.c"	if (flag_bat_is_empty)
                                           	MOVAI	0x00
                                           	ORAR	_flag_bat_is_empty
                                           	JBCLR	PFLAG,2
                                           	GOTO	_00450_DS_
                                           ;	.line	474; "MC32P7351.c"	LED_CHARGING_OFF(); // 关闭充电指示灯
                                           	BSET	_IOP0bits,4
                                           ;	.line	475; "MC32P7351.c"	PWM2EC = 0;         // 关闭控制升压电路的pwm（建议是，插上充钱器时，不关闭控制升压电路的PWM，但是在测试时，充电一侧会严重发热）
                                           	BCLR	_T2CRbits,6
                                           ;	.line	476; "MC32P7351.c"	T2DATA = 0;
                                           	CLRR	_T2DATA
                                           ;	.line	477; "MC32P7351.c"	FLAG_BAT_IS_NEED_CHARGE = 0;
                                           	BCLR	_flag1,4
                                           ;	.line	478; "MC32P7351.c"	FLAG_DURING_CHARGING_BAT_IS_NULL = 1; // 标志位置一，在主循环让绿灯快闪
                                           	BSET	_flag1,7
                                           ;	.line	480; "MC32P7351.c"	break;
                                           	GOTO	_00464_DS_
                                           ;;unsigned compare: left < lit(0x8=8), size=1
                                           _00450_DS_
                                           ;	.line	482; "MC32P7351.c"	else if (cnt >= 8 || over_charging_cnt >= 8)
                                           	MOVAI	0x08
                                           	RSUBAR	_adc_scan_handle_cnt_65536_73
                                           	JBCLR	PFLAG,0
                                           	GOTO	_00445_DS_
                                           ;;genSkipc:3291: created from rifx:013B5EFC
                                           ;;unsigned compare: left < lit(0x8=8), size=1
                                           	MOVAI	0x08
                                           	RSUBAR	_over_charging_cnt
                                           	JBSET	PFLAG,0
                                           	GOTO	_00446_DS_
                                           ;;genSkipc:3291: created from rifx:013B5EFC
                                           _00445_DS_
                                           ;	.line	485; "MC32P7351.c"	full_charge_cnt++;
                                           	INCR	_full_charge_cnt
                                           ;;unsigned compare: left < lit(0x64=100), size=1
                                           ;	.line	486; "MC32P7351.c"	if (full_charge_cnt >= 100 || over_charging_cnt >= 8) // 5.5s或者是连续触发了若干次过充保护
                                           	MOVAI	0x64
                                           	RSUBAR	_full_charge_cnt
                                           	JBCLR	PFLAG,0
                                           	GOTO	_00437_DS_
                                           ;;genSkipc:3291: created from rifx:013B5EFC
                                           ;;unsigned compare: left < lit(0x8=8), size=1
                                           	MOVAI	0x08
                                           	RSUBAR	_over_charging_cnt
                                           	JBSET	PFLAG,0
                                           	GOTO	_00463_DS_
                                           ;;genSkipc:3291: created from rifx:013B5EFC
                                           _00437_DS_
                                           ;	.line	488; "MC32P7351.c"	full_charge_cnt = 0; //
                                           	CLRR	_full_charge_cnt
                                           ;	.line	490; "MC32P7351.c"	if (FLAG_IS_DEVICE_OPEN)
                                           	JBCLR	_flag1,0
                                           	GOTO	_00436_DS_
                                           ;	.line	496; "MC32P7351.c"	LED_CHARGING_OFF(); // 关闭充电指示灯
                                           	BSET	_IOP0bits,4
                                           ;	.line	498; "MC32P7351.c"	LED_FULL_CHARGE_ON(); // 开启电池充满电的指示灯
                                           	BCLR	_IOP0bits,3
                                           _00436_DS_
                                           ;	.line	501; "MC32P7351.c"	PWM2EC = 0; // 关闭控制升压电路的pwm
                                           	BCLR	_T2CRbits,6
                                           ;	.line	502; "MC32P7351.c"	T2DATA = 0;
                                           	CLRR	_T2DATA
                                           ;	.line	504; "MC32P7351.c"	FLAG_BAT_IS_NEED_CHARGE = 0;
                                           	BCLR	_flag1,4
                                           ;	.line	505; "MC32P7351.c"	FLAG_BAT_IS_FULL = 1;
                                           	BSET	_flag1,5
                                           ;	.line	506; "MC32P7351.c"	break;
                                           	GOTO	_00464_DS_
                                           ;;unsigned compare: left < lit(0x8=8), size=1
                                           _00446_DS_
                                           ;	.line	509; "MC32P7351.c"	else if (need_charge_cnt >= 8)
                                           	MOVAI	0x08
                                           	RSUBAR	_adc_scan_handle_need_charge_cnt_65536_73
                                           	JBSET	PFLAG,0
                                           	GOTO	_00463_DS_
                                           ;;genSkipc:3291: created from rifx:013B5EFC
                                           ;	.line	513; "MC32P7351.c"	LED_FULL_CHARGE_OFF(); // 关闭充满电的指示灯
                                           	BSET	_IOP0bits,3
                                           ;	.line	514; "MC32P7351.c"	FLAG_BAT_IS_NEED_CHARGE = 1;
                                           	BSET	_flag1,4
                                           ;	.line	515; "MC32P7351.c"	FLAG_BAT_IS_FULL = 0;
                                           	BCLR	_flag1,5
                                           ;	.line	516; "MC32P7351.c"	break;
                                           	GOTO	_00464_DS_
                                           _00462_DS_
                                           ;	.line	522; "MC32P7351.c"	if (flag_bat_is_empty == 0 && adc_val <= ADCDETECT_BAT_FULL - ((ADCDETECT_BAT_FULL - ADCDETECT_BAT_WILL_FULL) / 2))
                                           	MOVAI	0x00
                                           	ORAR	_flag_bat_is_empty
                                           	JBSET	PFLAG,2
                                           	GOTO	_00453_DS_
                                           ;;swapping arguments (AOP_TYPEs 1/3)
                                           ;;unsigned compare: left >= lit(0xE0D=3597), size=2
                                           	MOVAI	0x0e
                                           	RSUBAR	(_adc_val + 1)
                                           	JBSET	PFLAG,2
                                           	GOTO	_00648_DS_
                                           	MOVAI	0x0d
                                           	RSUBAR	_adc_val
                                           _00648_DS_
                                           	JBCLR	PFLAG,0
                                           	GOTO	_00453_DS_
                                           ;;genSkipc:3291: created from rifx:013B5EFC
                                           ;	.line	524; "MC32P7351.c"	cnt++;
                                           	INCR	_adc_scan_handle_cnt_65536_73
                                           ;;unsigned compare: left < lit(0x8=8), size=1
                                           _00453_DS_
                                           ;	.line	527; "MC32P7351.c"	if (cnt >= 8)
                                           	MOVAI	0x08
                                           	RSUBAR	_adc_scan_handle_cnt_65536_73
                                           	JBSET	PFLAG,0
                                           	GOTO	_00456_DS_
                                           ;;genSkipc:3291: created from rifx:013B5EFC
                                           ;	.line	530; "MC32P7351.c"	FLAG_BAT_IS_NEED_CHARGE = 1;
                                           	BSET	_flag1,4
                                           ;	.line	531; "MC32P7351.c"	FLAG_BAT_IS_FULL = 0;
                                           	BCLR	_flag1,5
                                           ;	.line	532; "MC32P7351.c"	break;
                                           	GOTO	_00464_DS_
                                           _00456_DS_
                                           ;	.line	536; "MC32P7351.c"	if (flag_bat_is_empty == 0 &&
                                           	MOVAI	0x00
                                           	ORAR	_flag_bat_is_empty
                                           	JBSET	PFLAG,2
                                           	GOTO	_00463_DS_
                                           ;	.line	537; "MC32P7351.c"	FLAG_IS_DEVICE_OPEN &&
                                           	JBSET	_flag1,0
                                           	GOTO	_00463_DS_
                                           ;;unsigned compare: left < lit(0xBEF=3055), size=2
                                           ;	.line	538; "MC32P7351.c"	adc_val < LOW_BATTERY_AD_VAL)
                                           	MOVAI	0x0b
                                           	RSUBAR	(_adc_val + 1)
                                           	JBSET	PFLAG,2
                                           	GOTO	_00650_DS_
                                           	MOVAI	0xef
                                           	RSUBAR	_adc_val
                                           _00650_DS_
                                           	JBCLR	PFLAG,0
                                           	GOTO	_00463_DS_
                                           ;;genSkipc:3291: created from rifx:013B5EFC
                                           ;	.line	540; "MC32P7351.c"	flag_is_low_battery = 1;
                                           	BSET	_flag2,2
                                           _00463_DS_
                                           ;	.line	544; "MC32P7351.c"	key_scan_handle(); // 按键扫描和处理函数
                                           	CALL	_key_scan_handle
                                           ;	.line	442; "MC32P7351.c"	for (i = 0; i < 10; i++)      //  // 每55ms进入一次，循环内每次间隔约4.8ms
                                           	INCR	_i
                                           	GOTO	_00508_DS_
                                           _00464_DS_
                                           ;	.line	547; "MC32P7351.c"	cnt = 0;
                                           	CLRR	_adc_scan_handle_cnt_65536_73
                                           ;	.line	548; "MC32P7351.c"	adc_sel_pin(ADC_PIN_P00_AN0); // 切换到检测充电的电压检测引脚(检测到的充电电压 == USB-C口电压 / 2)
                                           	MOVAI	0x01
                                           	CALL	_adc_sel_pin
                                           ;	.line	549; "MC32P7351.c"	for (i = 0; i < 10; i++)
                                           	CLRR	_i
                                           ;;unsigned compare: left < lit(0xA=10), size=1
                                           _00511_DS_
                                           	MOVAI	0x0a
                                           	RSUBAR	_i
                                           	JBCLR	PFLAG,0
                                           	GOTO	_00513_DS_
                                           ;;genSkipc:3291: created from rifx:013B5EFC
                                           ;	.line	551; "MC32P7351.c"	adc_val = adc_get_val();
                                           	CALL	_adc_get_val
                                           	MOVRA	(_adc_val + 1)
                                           	MOVAR	STK00
                                           	MOVRA	_adc_val
                                           ;	.line	552; "MC32P7351.c"	if (flag_bat_is_empty) // 如果电池为空
                                           	MOVAI	0x00
                                           	ORAR	_flag_bat_is_empty
                                           	JBCLR	PFLAG,2
                                           	GOTO	_00466_DS_
                                           ;	.line	554; "MC32P7351.c"	adc_val = 4095; // 防止进入下面的if (adc_val < ADCDETECT_CHARING_THRESHOLD)
                                           	MOVAI	0xff
                                           	MOVRA	_adc_val
                                           	MOVAI	0x0f
                                           	MOVRA	(_adc_val + 1)
                                           _00466_DS_
                                           ;	.line	557; "MC32P7351.c"	if (adc_charging_val != 0)
                                           	MOVAR	_adc_charging_val
                                           	ORAR	(_adc_charging_val + 1)
                                           	JBCLR	PFLAG,2
                                           	GOTO	_00468_DS_
                                           ;	.line	559; "MC32P7351.c"	adc_charging_val += adc_val;
                                           	MOVAR	_adc_val
                                           	ADDRA	_adc_charging_val
                                           	MOVAR	(_adc_val + 1)
                                           	JBCLR	PFLAG,0
                                           	JZAR	(_adc_val + 1)
                                           	ADDRA	(_adc_charging_val + 1)
                                           ;;shiftRight_Left2ResultLit:5339: shCount=1, size=2, sign=0, same=1, offr=0
                                           ;	.line	560; "MC32P7351.c"	adc_charging_val /= 2;
                                           	BCLR	PFLAG,0
                                           	RRR	(_adc_charging_val + 1)
                                           	RRR	_adc_charging_val
                                           	GOTO	_00469_DS_
                                           _00468_DS_
                                           ;	.line	564; "MC32P7351.c"	adc_charging_val += adc_val;
                                           	MOVAR	_adc_val
                                           	ADDRA	_adc_charging_val
                                           	MOVAR	(_adc_val + 1)
                                           	JBCLR	PFLAG,0
                                           	JZAR	(_adc_val + 1)
                                           	ADDRA	(_adc_charging_val + 1)
                                           _00469_DS_
                                           ;	.line	567; "MC32P7351.c"	if (FLAG_IS_IN_CHARGING)
                                           	JBSET	_flag1,2
                                           	GOTO	_00504_DS_
                                           ;;unsigned compare: left < lit(0x800=2048), size=2
                                           ;	.line	570; "MC32P7351.c"	if (adc_val < ADCDETECT_CHARING_THRESHOLD)
                                           	MOVAI	0x08
                                           	RSUBAR	(_adc_val + 1)
                                           	JBSET	PFLAG,2
                                           	GOTO	_00652_DS_
                                           	MOVAI	0x00
                                           	RSUBAR	_adc_val
                                           _00652_DS_
                                           	JBCLR	PFLAG,0
                                           	GOTO	_00471_DS_
                                           ;;genSkipc:3291: created from rifx:013B5EFC
                                           ;	.line	572; "MC32P7351.c"	cnt++;
                                           	INCR	_adc_scan_handle_cnt_65536_73
                                           ;;unsigned compare: left < lit(0x8=8), size=1
                                           _00471_DS_
                                           ;	.line	575; "MC32P7351.c"	if (cnt >= 8)
                                           	MOVAI	0x08
                                           	RSUBAR	_adc_scan_handle_cnt_65536_73
                                           	JBSET	PFLAG,0
                                           	GOTO	_00479_DS_
                                           ;;genSkipc:3291: created from rifx:013B5EFC
                                           ;	.line	578; "MC32P7351.c"	LED_CHARGING_OFF(); // 关闭充电指示灯
                                           	BSET	_IOP0bits,4
                                           ;	.line	579; "MC32P7351.c"	PWM2EC = 0;         // 关闭控制升压电路的pwm
                                           	BCLR	_T2CRbits,6
                                           ;	.line	580; "MC32P7351.c"	T2DATA = 0;
                                           	CLRR	_T2DATA
                                           ;	.line	581; "MC32P7351.c"	LED_FULL_CHARGE_OFF(); // 关闭电池充满电的指示灯
                                           	BSET	_IOP0bits,3
                                           ;	.line	583; "MC32P7351.c"	FLAG_IS_IN_CHARGING = 0;
                                           	BCLR	_flag1,2
                                           ;	.line	584; "MC32P7351.c"	FLAG_DURING_CHARGING_BAT_IS_NULL = 0; // 清空该标志位，因为已经不在充电的情况下
                                           	BCLR	_flag1,7
                                           ;	.line	585; "MC32P7351.c"	break;
                                           	GOTO	_00513_DS_
                                           _00479_DS_
                                           ;	.line	588; "MC32P7351.c"	if (FLAG_IS_DEVICE_OPEN)
                                           	JBCLR	_flag1,0
                                           	GOTO	_00505_DS_
                                           ;	.line	594; "MC32P7351.c"	if (FLAG_BAT_IS_FULL)
                                           	JBCLR	_flag1,5
                                           	GOTO	_00505_DS_
                                           ;	.line	600; "MC32P7351.c"	LED_FULL_CHARGE_OFF();
                                           	BSET	_IOP0bits,3
                                           ;	.line	601; "MC32P7351.c"	LED_CHARGING_ON();
                                           	BCLR	_IOP0bits,4
                                           	GOTO	_00505_DS_
                                           _00504_DS_
                                           ;	.line	608; "MC32P7351.c"	if (flag_bat_is_empty == 0 && adc_val >= ADCDETECT_CHARING_THRESHOLD)
                                           	MOVAI	0x00
                                           	ORAR	_flag_bat_is_empty
                                           	JBSET	PFLAG,2
                                           	GOTO	_00493_DS_
                                           ;;unsigned compare: left < lit(0x800=2048), size=2
                                           	MOVAI	0x08
                                           	RSUBAR	(_adc_val + 1)
                                           	JBSET	PFLAG,2
                                           	GOTO	_00654_DS_
                                           	MOVAI	0x00
                                           	RSUBAR	_adc_val
                                           _00654_DS_
                                           	JBSET	PFLAG,0
                                           	GOTO	_00493_DS_
                                           ;;genSkipc:3291: created from rifx:013B5EFC
                                           ;	.line	610; "MC32P7351.c"	cnt++;
                                           	INCR	_adc_scan_handle_cnt_65536_73
                                           ;;unsigned compare: left < lit(0x8=8), size=1
                                           _00493_DS_
                                           ;	.line	634; "MC32P7351.c"	if (cnt >= 8)
                                           	MOVAI	0x08
                                           	RSUBAR	_adc_scan_handle_cnt_65536_73
                                           	JBSET	PFLAG,0
                                           	GOTO	_00505_DS_
                                           ;;genSkipc:3291: created from rifx:013B5EFC
                                           ;	.line	637; "MC32P7351.c"	full_charge_cnt = 0;
                                           	CLRR	_full_charge_cnt
                                           ;	.line	638; "MC32P7351.c"	over_charging_cnt = 0;
                                           	CLRR	_over_charging_cnt
                                           ;	.line	640; "MC32P7351.c"	if (FLAG_IS_DEVICE_OPEN)
                                           	JBCLR	_flag1,0
                                           	GOTO	_00500_DS_
                                           ;	.line	646; "MC32P7351.c"	LED_CHARGING_ON(); // 开启充电指示灯
                                           	BCLR	_IOP0bits,4
                                           _00500_DS_
                                           ;	.line	649; "MC32P7351.c"	PWM2EC = 1; // 开启控制升压电路的pwm
                                           	BSET	_T2CRbits,6
                                           ;	.line	650; "MC32P7351.c"	FLAG_IS_IN_CHARGING = 1;
                                           	BSET	_flag1,2
                                           ;	.line	651; "MC32P7351.c"	break;
                                           	GOTO	_00513_DS_
                                           _00505_DS_
                                           ;	.line	655; "MC32P7351.c"	key_scan_handle(); // 按键扫描和处理函数
                                           	CALL	_key_scan_handle
                                           ;	.line	549; "MC32P7351.c"	for (i = 0; i < 10; i++)
                                           	INCR	_i
                                           	GOTO	_00511_DS_
                                           _00513_DS_
                                           ;	.line	657; "MC32P7351.c"	}
                                           	RETURN	
                                           ; exit point of _adc_scan_handle
                                           
                                           ;***
                                           ;  pBlock Stats: dbName = C
                                           ;***
                                           ;entry:  _key_scan_handle	;Function start
                                           ; 2 exit points
                                           ;has an exit
                                           ;functions called:
                                           ;   _delay_ms
                                           ;   _delay_ms
                                           ;   _delay_ms
                                           ;   _delay_ms
                                           ;   _delay_ms
                                           ;   _delay_ms
                                           ;   _delay_ms
                                           ;   _delay_ms
                                           ;5 compiler assigned registers:
                                           ;   r0x103B
                                           ;   r0x103C
                                           ;   STK00
                                           ;   r0x103D
                                           ;   r0x103E
                                           ;; Starting pCode block
                                           _key_scan_handle	;Function start
                                           ; 2 exit points
                                           ;	.line	279; "MC32P7351.c"	if (0 == KEY_MODE_PIN)
                                           	JBCLR	_IOP0bits,1
                                           	GOTO	_00307_DS_
                                           ;	.line	284; "MC32P7351.c"	u16 press_cnt = 0;
                                           	CLRR	r0x103B
                                           	CLRR	r0x103C
                                           ;	.line	286; "MC32P7351.c"	delay_ms(20); // 延时消抖
                                           	MOVAI	0x14
                                           	MOVRA	STK00
                                           	MOVAI	0x00
                                           	CALL	_delay_ms
                                           ;	.line	288; "MC32P7351.c"	if (0 == KEY_MODE_PIN)
                                           	JBCLR	_IOP0bits,1
                                           	GOTO	_00309_DS_
                                           ;	.line	291; "MC32P7351.c"	while (0 == KEY_MODE_PIN)
                                           	CLRR	r0x103D
                                           	CLRR	r0x103E
                                           _00265_DS_
                                           	JBCLR	_IOP0bits,1
                                           	GOTO	_00267_DS_
                                           ;;unsigned compare: left < lit(0xFFFF=65535), size=2
                                           ;	.line	294; "MC32P7351.c"	if (press_cnt < 65535)
                                           	MOVAI	0xff
                                           	RSUBAR	r0x103E
                                           	JBSET	PFLAG,2
                                           	GOTO	_00406_DS_
                                           	MOVAI	0xff
                                           	RSUBAR	r0x103D
                                           _00406_DS_
                                           	JBCLR	PFLAG,0
                                           	GOTO	_00238_DS_
                                           ;;genSkipc:3291: created from rifx:013B5EFC
                                           ;	.line	295; "MC32P7351.c"	press_cnt++;
                                           	INCR	r0x103D
                                           	JBCLR	PFLAG,2
                                           	INCR	r0x103E
                                           	MOVAR	r0x103D
                                           	MOVRA	r0x103B
                                           	MOVAR	r0x103E
                                           	MOVRA	r0x103C
                                           _00238_DS_
                                           ;	.line	297; "MC32P7351.c"	if (0 == FLAG_IS_DEVICE_OPEN)
                                           	JBCLR	_flag1,0
                                           	GOTO	_00263_DS_
                                           ;;unsigned compare: left < lit(0x3E8=1000), size=2
                                           ;	.line	299; "MC32P7351.c"	if (press_cnt >= 1000) // 1000ms加上看门狗唤醒的1024ms
                                           	MOVAI	0x03
                                           	RSUBAR	r0x103E
                                           	JBSET	PFLAG,2
                                           	GOTO	_00407_DS_
                                           	MOVAI	0xe8
                                           	RSUBAR	r0x103D
                                           _00407_DS_
                                           	JBSET	PFLAG,0
                                           	GOTO	_00264_DS_
                                           ;;genSkipc:3291: created from rifx:013B5EFC
                                           ;	.line	303; "MC32P7351.c"	if (0 == flag_is_key_mode_hold)
                                           	MOVAI	0x00
                                           	ORAR	_key_scan_handle_flag_is_key_mode_hold_131072_36
                                           	JBSET	PFLAG,2
                                           	GOTO	_00264_DS_
                                           ;	.line	305; "MC32P7351.c"	flag_is_key_mode_hold = 1; // 表示按键按下后未松手
                                           	MOVAI	0x01
                                           	MOVRA	_key_scan_handle_flag_is_key_mode_hold_131072_36
                                           ;	.line	309; "MC32P7351.c"	LED_FULL_CHARGE_OFF(); // 关闭满电指示灯
                                           	BSET	_IOP0bits,3
                                           ;	.line	310; "MC32P7351.c"	LED_CHARGING_OFF();    // 关闭充电指示灯
                                           	BSET	_IOP0bits,4
                                           ;	.line	311; "MC32P7351.c"	LED_WORKING_ON();      // 打开电源指示灯
                                           	BCLR	_IOP1bits,4
                                           ;	.line	312; "MC32P7351.c"	FLAG_IS_DEVICE_OPEN = 1;
                                           	BSET	_flag1,0
                                           ;	.line	317; "MC32P7351.c"	T0DATA = 103;
                                           	MOVAI	0x67
                                           	MOVRA	_T0DATA
                                           ;	.line	318; "MC32P7351.c"	T1DATA = 103;       // 约为 80.5%
                                           	MOVAI	0x67
                                           	MOVRA	_T1DATA
                                           ;	.line	319; "MC32P7351.c"	mode_flag = MODE_1; // 下一次切换模式时，会变成 MODE_2
                                           	CLRR	_mode_flag
                                           ;	.line	322; "MC32P7351.c"	PWM0EC = 1;
                                           	BSET	_T0CRbits,6
                                           ;	.line	323; "MC32P7351.c"	break;
                                           	GOTO	_00267_DS_
                                           ;;unsigned compare: left < lit(0x7D0=2000), size=2
                                           _00263_DS_
                                           ;	.line	329; "MC32P7351.c"	if (press_cnt >= 2000)
                                           	MOVAI	0x07
                                           	RSUBAR	r0x103E
                                           	JBSET	PFLAG,2
                                           	GOTO	_00408_DS_
                                           	MOVAI	0xd0
                                           	RSUBAR	r0x103D
                                           _00408_DS_
                                           	JBSET	PFLAG,0
                                           	GOTO	_00264_DS_
                                           ;;genSkipc:3291: created from rifx:013B5EFC
                                           ;	.line	332; "MC32P7351.c"	if (0 == flag_is_key_mode_hold)
                                           	MOVAI	0x00
                                           	ORAR	_key_scan_handle_flag_is_key_mode_hold_131072_36
                                           	JBSET	PFLAG,2
                                           	GOTO	_00264_DS_
                                           ;	.line	334; "MC32P7351.c"	flag_is_key_mode_hold = 1; // 表示按键按下后未松手
                                           	MOVAI	0x01
                                           	MOVRA	_key_scan_handle_flag_is_key_mode_hold_131072_36
                                           ;	.line	337; "MC32P7351.c"	LED_WORKING_OFF(); // 关闭电源指示灯
                                           	BSET	_IOP1bits,4
                                           ;	.line	338; "MC32P7351.c"	HEATING_OFF();     // 关闭加热
                                           	BCLR	_IOP1bits,2
                                           ;	.line	339; "MC32P7351.c"	FLAG_IS_DEVICE_OPEN = 0;
                                           	BCLR	_flag1,0
                                           ;	.line	340; "MC32P7351.c"	FLAG_IS_HEATING = 0;
                                           	BCLR	_flag1,1
                                           ;	.line	342; "MC32P7351.c"	mode_flag = MODE_1; // 下一次切换模式时，会变成 MODE_2
                                           	CLRR	_mode_flag
                                           ;	.line	345; "MC32P7351.c"	PWM0EC = 0;
                                           	BCLR	_T0CRbits,6
                                           ;	.line	346; "MC32P7351.c"	PWM1EC = 0;
                                           	BCLR	_T1CRbits,6
                                           ;	.line	348; "MC32P7351.c"	break;
                                           	GOTO	_00267_DS_
                                           _00264_DS_
                                           ;	.line	353; "MC32P7351.c"	delay_ms(1);
                                           	MOVAI	0x01
                                           	MOVRA	STK00
                                           	MOVAI	0x00
                                           	CALL	_delay_ms
                                           	GOTO	_00265_DS_
                                           _00267_DS_
                                           ;	.line	356; "MC32P7351.c"	flag_is_key_mode_hold = 0; // 表示该按键已经松手
                                           	CLRR	_key_scan_handle_flag_is_key_mode_hold_131072_36
                                           ;;unsigned compare: left < lit(0x2EE=750), size=2
                                           ;	.line	358; "MC32P7351.c"	if (press_cnt < 750)
                                           	MOVAI	0x02
                                           	RSUBAR	r0x103C
                                           	JBSET	PFLAG,2
                                           	GOTO	_00409_DS_
                                           	MOVAI	0xee
                                           	RSUBAR	r0x103B
                                           _00409_DS_
                                           	JBCLR	PFLAG,0
                                           	GOTO	_00309_DS_
                                           ;;genSkipc:3291: created from rifx:013B5EFC
                                           ;	.line	361; "MC32P7351.c"	if (FLAG_IS_DEVICE_OPEN)
                                           	JBSET	_flag1,0
                                           	GOTO	_00309_DS_
                                           ;	.line	364; "MC32P7351.c"	if (FLAG_IS_DEVICE_OPEN)
                                           	JBSET	_flag1,0
                                           	GOTO	_00309_DS_
                                           ;	.line	367; "MC32P7351.c"	if (MODE_1 == mode_flag)
                                           	MOVAI	0x00
                                           	ORAR	_mode_flag
                                           	JBSET	PFLAG,2
                                           	GOTO	_00274_DS_
                                           ;	.line	370; "MC32P7351.c"	T0DATA = 115;
                                           	MOVAI	0x73
                                           	MOVRA	_T0DATA
                                           ;	.line	371; "MC32P7351.c"	T1DATA = 115; // 89.9%占空比
                                           	MOVAI	0x73
                                           	MOVRA	_T1DATA
                                           ;	.line	373; "MC32P7351.c"	mode_flag = MODE_2;
                                           	MOVAI	0x01
                                           	MOVRA	_mode_flag
                                           	GOTO	_00309_DS_
                                           _00274_DS_
                                           ;	.line	375; "MC32P7351.c"	else if (MODE_2 == mode_flag)
                                           	MOVAR	_mode_flag
                                           	XORAI	0x01
                                           	JBSET	PFLAG,2
                                           	GOTO	_00271_DS_
                                           ;	.line	378; "MC32P7351.c"	T0DATA = 255;
                                           	MOVAI	0xff
                                           	MOVRA	_T0DATA
                                           ;	.line	379; "MC32P7351.c"	T1DATA = 255; // 100%占空比（确保大于TxLOAD的值就可以）
                                           	MOVAI	0xff
                                           	MOVRA	_T1DATA
                                           ;	.line	381; "MC32P7351.c"	mode_flag = MODE_3;
                                           	MOVAI	0x02
                                           	MOVRA	_mode_flag
                                           	GOTO	_00309_DS_
                                           _00271_DS_
                                           ;	.line	383; "MC32P7351.c"	else if (MODE_3 == mode_flag)
                                           	MOVAR	_mode_flag
                                           	XORAI	0x02
                                           	JBSET	PFLAG,2
                                           	GOTO	_00309_DS_
                                           ;	.line	386; "MC32P7351.c"	T0DATA = 103;
                                           	MOVAI	0x67
                                           	MOVRA	_T0DATA
                                           ;	.line	387; "MC32P7351.c"	T1DATA = 103; // 80.5%占空比
                                           	MOVAI	0x67
                                           	MOVRA	_T1DATA
                                           ;	.line	388; "MC32P7351.c"	mode_flag = MODE_1;
                                           	CLRR	_mode_flag
                                           	GOTO	_00309_DS_
                                           _00307_DS_
                                           ;	.line	395; "MC32P7351.c"	else if (0 == KEY_HEAT_PIN)
                                           	JBCLR	_IOP1bits,1
                                           	GOTO	_00309_DS_
                                           ;	.line	399; "MC32P7351.c"	delay_ms(20); // 延时消抖
                                           	MOVAI	0x14
                                           	MOVRA	STK00
                                           	MOVAI	0x00
                                           	CALL	_delay_ms
                                           ;	.line	400; "MC32P7351.c"	if (0 == KEY_HEAT_PIN)
                                           	JBCLR	_IOP1bits,1
                                           	GOTO	_00309_DS_
                                           ;	.line	403; "MC32P7351.c"	while (0 == KEY_HEAT_PIN)
                                           	CLRR	r0x103B
                                           	CLRR	r0x103C
                                           _00286_DS_
                                           	JBCLR	_IOP1bits,1
                                           	GOTO	_00288_DS_
                                           ;;unsigned compare: left < lit(0xFFFF=65535), size=2
                                           ;	.line	406; "MC32P7351.c"	if (press_cnt < 65535)
                                           	MOVAI	0xff
                                           	RSUBAR	r0x103C
                                           	JBSET	PFLAG,2
                                           	GOTO	_00410_DS_
                                           	MOVAI	0xff
                                           	RSUBAR	r0x103B
                                           _00410_DS_
                                           	JBCLR	PFLAG,0
                                           	GOTO	_00285_DS_
                                           ;;genSkipc:3291: created from rifx:013B5EFC
                                           ;	.line	407; "MC32P7351.c"	press_cnt++;
                                           	INCR	r0x103B
                                           	JBCLR	PFLAG,2
                                           	INCR	r0x103C
                                           _00285_DS_
                                           ;	.line	408; "MC32P7351.c"	delay_ms(1);
                                           	MOVAI	0x01
                                           	MOVRA	STK00
                                           	MOVAI	0x00
                                           	CALL	_delay_ms
                                           	GOTO	_00286_DS_
                                           ;;unsigned compare: left < lit(0x2EE=750), size=2
                                           _00288_DS_
                                           ;	.line	411; "MC32P7351.c"	if (press_cnt < 750)
                                           	MOVAI	0x02
                                           	RSUBAR	r0x103C
                                           	JBSET	PFLAG,2
                                           	GOTO	_00411_DS_
                                           	MOVAI	0xee
                                           	RSUBAR	r0x103B
                                           _00411_DS_
                                           	JBCLR	PFLAG,0
                                           	GOTO	_00309_DS_
                                           ;;genSkipc:3291: created from rifx:013B5EFC
                                           ;	.line	414; "MC32P7351.c"	if (FLAG_IS_DEVICE_OPEN)
                                           	JBSET	_flag1,0
                                           	GOTO	_00309_DS_
                                           ;	.line	417; "MC32P7351.c"	if (0 == FLAG_IS_HEATING)
                                           	JBCLR	_flag1,1
                                           	GOTO	_00292_DS_
                                           ;	.line	419; "MC32P7351.c"	HEATING_ON(); // 打开加热
                                           	BSET	_IOP1bits,2
                                           ;	.line	420; "MC32P7351.c"	FLAG_IS_HEATING = 1;
                                           	BSET	_flag1,1
                                           	GOTO	_00309_DS_
                                           _00292_DS_
                                           ;	.line	424; "MC32P7351.c"	HEATING_OFF(); // 关闭加热
                                           	BCLR	_IOP1bits,2
                                           ;	.line	425; "MC32P7351.c"	FLAG_IS_HEATING = 0;
                                           	BCLR	_flag1,1
                                           _00309_DS_
                                           ;	.line	431; "MC32P7351.c"	}
                                           	RETURN	
                                           ; exit point of _key_scan_handle
                                           
                                           ;***
                                           ;  pBlock Stats: dbName = C
                                           ;***
                                           ;entry:  _Sys_Init	;Function start
                                           ; 2 exit points
                                           ;has an exit
                                           ;functions called:
                                           ;   _CLR_RAM
                                           ;   _IO_Init
                                           ;   _timer0_pwm_config
                                           ;   _timer1_pwm_config
                                           ;   _timer2_pwm_config
                                           ;   _timer3_config
                                           ;   _key_config
                                           ;   _adc_config
                                           ;   _CLR_RAM
                                           ;   _IO_Init
                                           ;   _timer0_pwm_config
                                           ;   _timer1_pwm_config
                                           ;   _timer2_pwm_config
                                           ;   _timer3_config
                                           ;   _key_config
                                           ;   _adc_config
                                           ;; Starting pCode block
                                           _Sys_Init	;Function start
                                           ; 2 exit points
                                           ;	.line	260; "MC32P7351.c"	GIE = 0;
                                           	BCLR	_MCRbits,7
                                           ;	.line	261; "MC32P7351.c"	CLR_RAM();
                                           	CALL	_CLR_RAM
                                           ;	.line	262; "MC32P7351.c"	IO_Init();
                                           	CALL	_IO_Init
                                           ;	.line	264; "MC32P7351.c"	timer0_pwm_config();
                                           	CALL	_timer0_pwm_config
                                           ;	.line	265; "MC32P7351.c"	timer1_pwm_config();
                                           	CALL	_timer1_pwm_config
                                           ;	.line	266; "MC32P7351.c"	timer2_pwm_config();
                                           	CALL	_timer2_pwm_config
                                           ;	.line	268; "MC32P7351.c"	timer3_config();
                                           	CALL	_timer3_config
                                           ;	.line	270; "MC32P7351.c"	key_config();
                                           	CALL	_key_config
                                           ;	.line	271; "MC32P7351.c"	adc_config();
                                           	CALL	_adc_config
                                           ;	.line	273; "MC32P7351.c"	GIE = 1;
                                           	BSET	_MCRbits,7
                                           ;	.line	274; "MC32P7351.c"	}
                                           	RETURN	
                                           ; exit point of _Sys_Init
                                           
                                           ;***
                                           ;  pBlock Stats: dbName = C
                                           ;***
                                           ;entry:  _adc_get_val_once	;Function start
                                           ; 2 exit points
                                           ;has an exit
                                           ;7 compiler assigned registers:
                                           ;   r0x1035
                                           ;   r0x1036
                                           ;   r0x1037
                                           ;   r0x1038
                                           ;   r0x1039
                                           ;   r0x103A
                                           ;   STK00
                                           ;; Starting pCode block
                                           _adc_get_val_once	;Function start
                                           ; 2 exit points
                                           ;	.line	221; "MC32P7351.c"	ADEOC = 0; // 清除ADC转换完成标志位，启动AD转换
                                           	BCLR	_ADCR0bits,1
                                           _00228_DS_
                                           ;	.line	222; "MC32P7351.c"	while (!ADEOC)
                                           	JBSET	_ADCR0bits,1
                                           	GOTO	_00228_DS_
                                           ;	.line	224; "MC32P7351.c"	g_temp_value = ADRH; // 取出转换后的值
                                           	MOVAR	_ADRH
                                           	MOVRA	r0x1035
                                           	CLRR	r0x1036
                                           ;	.line	225; "MC32P7351.c"	g_temp_value = g_temp_value << 4 | (ADRL & 0x0F);
                                           	SWAPAR	r0x1036
                                           	ANDAI	0xf0
                                           	MOVRA	r0x1037
                                           	SWAPAR	r0x1035
                                           	MOVRA	r0x1038
                                           	ANDAI	0x0f
                                           	ORRA	r0x1037
                                           	XORRA	r0x1038
                                           	MOVAR	_ADRL
                                           	MOVRA	r0x1035
                                           	CLRR	r0x1036
                                           	MOVAI	0x0f
                                           	ANDRA	r0x1035
                                           	CLRR	r0x1036
                                           ;;101	MOVAR	r0x1035
                                           ;;99	MOVRA	r0x1039
                                           ;;104	MOVAR	r0x1036
                                           ;;102	MOVRA	r0x103A
                                           ;;100	MOVAR	r0x1039
                                           	MOVAR	r0x1035
                                           	ORRA	r0x1038
                                           ;;103	MOVAR	r0x103A
                                           	MOVAI	0x00
                                           	ORRA	r0x1037
                                           ;	.line	249; "MC32P7351.c"	return g_temp_value;
                                           	MOVAR	r0x1038
                                           	MOVRA	STK00
                                           	MOVAR	r0x1037
                                           ;	.line	250; "MC32P7351.c"	}
                                           	RETURN	
                                           ; exit point of _adc_get_val_once
                                           
                                           ;***
                                           ;  pBlock Stats: dbName = C
                                           ;***
                                           ;entry:  _adc_get_val	;Function start
                                           ; 2 exit points
                                           ;has an exit
                                           ;16 compiler assigned registers:
                                           ;   r0x1035
                                           ;   r0x1036
                                           ;   r0x1037
                                           ;   r0x1038
                                           ;   r0x1039
                                           ;   r0x103A
                                           ;   r0x103B
                                           ;   r0x103C
                                           ;   r0x103D
                                           ;   r0x103E
                                           ;   r0x103F
                                           ;   r0x1040
                                           ;   r0x1041
                                           ;   r0x1042
                                           ;   r0x1043
                                           ;   STK00
                                           ;; Starting pCode block
                                           _adc_get_val	;Function start
                                           ; 2 exit points
                                           ;	.line	168; "MC32P7351.c"	u32 g_tmpbuff = 0;
                                           	CLRR	r0x1035
                                           	CLRR	r0x1036
                                           	CLRR	r0x1037
                                           	CLRR	r0x1038
                                           ;	.line	169; "MC32P7351.c"	u16 g_adcmax = 0;
                                           	CLRR	r0x1039
                                           	CLRR	r0x103A
                                           ;	.line	170; "MC32P7351.c"	u16 g_adcmin = 0xFFFF;
                                           	MOVAI	0xff
                                           	MOVRA	r0x103B
                                           	MOVRA	r0x103C
                                           ;	.line	173; "MC32P7351.c"	for (i = 0; i < 20; i++)
                                           	CLRR	r0x103D
                                           _00182_DS_
                                           ;	.line	175; "MC32P7351.c"	ADEOC = 0; // 清除ADC转换完成标志位，启动AD转换
                                           	BCLR	_ADCR0bits,1
                                           _00171_DS_
                                           ;	.line	176; "MC32P7351.c"	while (!ADEOC)
                                           	JBSET	_ADCR0bits,1
                                           	GOTO	_00171_DS_
                                           ;	.line	178; "MC32P7351.c"	g_temp_value = ADRH; // 取出转换后的值
                                           	MOVAR	_ADRH
                                           	MOVRA	r0x103E
                                           	CLRR	r0x103F
                                           ;	.line	179; "MC32P7351.c"	g_temp_value = g_temp_value << 4 | (ADRL & 0x0F);
                                           	SWAPAR	r0x103F
                                           	ANDAI	0xf0
                                           	MOVRA	r0x1040
                                           	SWAPAR	r0x103E
                                           	MOVRA	r0x1041
                                           	ANDAI	0x0f
                                           	ORRA	r0x1040
                                           	XORRA	r0x1041
                                           	MOVAR	_ADRL
                                           	MOVRA	r0x103E
                                           	CLRR	r0x103F
                                           	MOVAI	0x0f
                                           	ANDRA	r0x103E
                                           	CLRR	r0x103F
                                           ;;120	MOVAR	r0x103E
                                           	MOVAI	0x00
                                           	MOVRA	r0x1043
                                           ;;119	MOVAR	r0x1042
                                           	MOVAR	r0x103E
                                           	MOVRA	r0x1042
                                           	ORAR	r0x1041
                                           	MOVRA	r0x103E
                                           	MOVAR	r0x1043
                                           	ORAR	r0x1040
                                           	MOVRA	r0x103F
                                           ;;unsigned compare: left < lit(0x2=2), size=1
                                           ;	.line	180; "MC32P7351.c"	if (i < 2)
                                           	MOVAI	0x02
                                           	RSUBAR	r0x103D
                                           	JBSET	PFLAG,0
                                           	GOTO	_00180_DS_
                                           ;;genSkipc:3291: created from rifx:013B5EFC
                                           ;	.line	182; "MC32P7351.c"	if (g_temp_value > g_adcmax)
                                           	MOVAR	r0x103F
                                           	RSUBAR	r0x103A
                                           	JBSET	PFLAG,2
                                           	GOTO	_00222_DS_
                                           	MOVAR	r0x103E
                                           	RSUBAR	r0x1039
                                           _00222_DS_
                                           	JBCLR	PFLAG,0
                                           	GOTO	_00177_DS_
                                           ;;genSkipc:3291: created from rifx:013B5EFC
                                           ;	.line	183; "MC32P7351.c"	g_adcmax = g_temp_value; // 最大
                                           	MOVAR	r0x103E
                                           	MOVRA	r0x1039
                                           	MOVAR	r0x103F
                                           	MOVRA	r0x103A
                                           _00177_DS_
                                           ;	.line	184; "MC32P7351.c"	if (g_temp_value < g_adcmin)
                                           	MOVAR	r0x103C
                                           	RSUBAR	r0x103F
                                           	JBSET	PFLAG,2
                                           	GOTO	_00223_DS_
                                           	MOVAR	r0x103B
                                           	RSUBAR	r0x103E
                                           _00223_DS_
                                           	JBCLR	PFLAG,0
                                           	GOTO	_00179_DS_
                                           ;;genSkipc:3291: created from rifx:013B5EFC
                                           ;	.line	185; "MC32P7351.c"	g_adcmin = g_temp_value; // 最小
                                           	MOVAR	r0x103E
                                           	MOVRA	r0x103B
                                           	MOVAR	r0x103F
                                           	MOVRA	r0x103C
                                           ;;116	MOVAR	r0x103E
                                           ;;118	MOVAR	r0x103F
                                           _00179_DS_
                                           ;	.line	186; "MC32P7351.c"	g_tmpbuff += g_temp_value;
                                           	CLRR	r0x1042
                                           	CLRR	r0x1043
                                           ;;115	MOVAR	r0x1041
                                           	MOVAR	r0x103E
                                           	MOVRA	r0x1041
                                           	ADDRA	r0x1035
                                           ;;117	MOVAR	r0x1040
                                           	MOVAR	r0x103F
                                           	MOVRA	r0x1040
                                           	JBCLR	PFLAG,0
                                           	JZAR	r0x1040
                                           	ADDRA	r0x1036
                                           	MOVAR	r0x1042
                                           	JBCLR	PFLAG,0
                                           	JZAR	r0x1042
                                           	ADDRA	r0x1037
                                           	MOVAR	r0x1043
                                           	JBCLR	PFLAG,0
                                           	JZAR	r0x1043
                                           	ADDRA	r0x1038
                                           _00180_DS_
                                           ;	.line	173; "MC32P7351.c"	for (i = 0; i < 20; i++)
                                           	INCR	r0x103D
                                           ;;unsigned compare: left < lit(0x14=20), size=1
                                           	MOVAI	0x14
                                           	RSUBAR	r0x103D
                                           	JBSET	PFLAG,0
                                           	GOTO	_00182_DS_
                                           ;;genSkipc:3291: created from rifx:013B5EFC
                                           ;;114	MOVAR	r0x1039
                                           ;	.line	188; "MC32P7351.c"	g_tmpbuff -= g_adcmax;           // 去掉一个最大
                                           	MOVAR	r0x103A
                                           	MOVRA	r0x103E
                                           	CLRR	r0x103F
                                           	CLRR	r0x1041
                                           ;;113	MOVAR	r0x103D
                                           	MOVAR	r0x1039
                                           	MOVRA	r0x103D
                                           	RSUBAR	r0x1035
                                           	MOVRA	r0x1039
                                           	MOVAR	r0x1036
                                           	MOVRA	r0x103A
                                           	MOVAR	r0x103E
                                           	JBSET	PFLAG,0
                                           	JZAR	r0x103E
                                           	RSUBRA	r0x103A
                                           	MOVAR	r0x1037
                                           	MOVRA	r0x1040
                                           	MOVAR	r0x103F
                                           	JBSET	PFLAG,0
                                           	JZAR	r0x103F
                                           	RSUBRA	r0x1040
                                           	MOVAR	r0x1041
                                           	JBSET	PFLAG,0
                                           	INCAR	r0x1041
                                           	RSUBAR	r0x1038
                                           	MOVRA	r0x1042
                                           ;;106	MOVAR	r0x103B
                                           ;;108	MOVAR	r0x103C
                                           ;	.line	189; "MC32P7351.c"	g_tmpbuff -= g_adcmin;           // 去掉一个最小
                                           	CLRR	r0x1037
                                           	CLRR	r0x1038
                                           ;;105	MOVAR	r0x1035
                                           	MOVAR	r0x103B
                                           	MOVRA	r0x1035
                                           	RSUBRA	r0x1039
                                           ;;107	MOVAR	r0x1036
                                           	MOVAR	r0x103C
                                           	MOVRA	r0x1036
                                           	JBSET	PFLAG,0
                                           	JZAR	r0x1036
                                           	RSUBRA	r0x103A
                                           	MOVAR	r0x1037
                                           	JBSET	PFLAG,0
                                           	JZAR	r0x1037
                                           	RSUBRA	r0x1040
                                           	MOVAR	r0x1038
                                           	JBSET	PFLAG,0
                                           	JZAR	r0x1038
                                           	RSUBRA	r0x1042
                                           ;	.line	190; "MC32P7351.c"	g_temp_value = (g_tmpbuff >> 4); // 除以16，取平均值
                                           	SWAPAR	r0x1039
                                           	ANDAI	0x0f
                                           	MOVRA	r0x1035
                                           	SWAPAR	r0x103A
                                           	MOVRA	r0x1036
                                           	ANDAI	0xf0
                                           	ORRA	r0x1035
                                           	XORRA	r0x1036
                                           	SWAPAR	r0x1040
                                           	MOVRA	r0x1037
                                           	ANDAI	0xf0
                                           	ORRA	r0x1036
                                           	XORRA	r0x1037
                                           	SWAPAR	r0x1042
                                           	MOVRA	r0x1038
                                           	ANDAI	0xf0
                                           	ORRA	r0x1037
                                           	XORRA	r0x1038
                                           ;;110	MOVAR	r0x1035
                                           ;;112	MOVAR	r0x1036
                                           ;;109	MOVAR	r0x1039
                                           ;	.line	214; "MC32P7351.c"	return g_temp_value;
                                           	MOVAR	r0x1035
                                           	MOVRA	r0x1039
                                           	MOVRA	STK00
                                           ;;111	MOVAR	r0x103A
                                           	MOVAR	r0x1036
                                           	MOVRA	r0x103A
                                           ;	.line	215; "MC32P7351.c"	}
                                           	RETURN	
                                           ; exit point of _adc_get_val
                                           
                                           ;***
                                           ;  pBlock Stats: dbName = C
                                           ;***
                                           ;entry:  _adc_sel_pin	;Function start
                                           ; 2 exit points
                                           ;has an exit
                                           ;functions called:
                                           ;   _delay_ms
                                           ;   _delay_ms
                                           ;2 compiler assigned registers:
                                           ;   r0x103B
                                           ;   STK00
                                           ;; Starting pCode block
                                           _adc_sel_pin	;Function start
                                           ; 2 exit points
                                           ;	.line	141; "MC32P7351.c"	void adc_sel_pin(u8 adc_pin)
                                           	MOVRA	r0x103B
                                           ;	.line	144; "MC32P7351.c"	switch (adc_pin)
                                           	MOVAR	r0x103B
                                           	XORAI	0x01
                                           	JBSET	PFLAG,2
                                           	GOTO	_00165_DS_
                                           	GOTO	_00151_DS_
                                           _00165_DS_
                                           	MOVAR	r0x103B
                                           	XORAI	0x02
                                           	JBSET	PFLAG,2
                                           	GOTO	_00166_DS_
                                           	GOTO	_00152_DS_
                                           _00166_DS_
                                           	GOTO	_00154_DS_
                                           _00151_DS_
                                           ;	.line	147; "MC32P7351.c"	ADCR0 &= ~(0x0F << 4); // 清空寄存器的通道选择位
                                           	MOVAI	0x0f
                                           	ANDRA	_ADCR0
                                           ;	.line	149; "MC32P7351.c"	break;
                                           	GOTO	_00154_DS_
                                           _00152_DS_
                                           ;	.line	152; "MC32P7351.c"	ADCR0 &= ~(0x0F << 4); // 清空寄存器的通道选择位
                                           	MOVAI	0x0f
                                           	ANDRA	_ADCR0
                                           ;	.line	153; "MC32P7351.c"	ADCR0 |= 0x01 << 4;    // AIN1--P02;
                                           	BSET	_ADCR0,4
                                           _00154_DS_
                                           ;	.line	160; "MC32P7351.c"	delay_ms(1); // 切换adc检测的引脚后，要延时一段时间，等待adc稳定，防止意料之外的检测结果
                                           	MOVAI	0x01
                                           	MOVRA	STK00
                                           	MOVAI	0x00
                                           	CALL	_delay_ms
                                           ;	.line	161; "MC32P7351.c"	}
                                           	RETURN	
                                           ; exit point of _adc_sel_pin
                                           
                                           ;***
                                           ;  pBlock Stats: dbName = C
                                           ;***
                                           ;entry:  _key_config	;Function start
                                           ; 2 exit points
                                           ;has an exit
                                           ;; Starting pCode block
                                           _key_config	;Function start
                                           ; 2 exit points
                                           ;	.line	132; "MC32P7351.c"	P11PU = 1; // 上拉
                                           	BSET	_PUP1bits,1
                                           ;	.line	133; "MC32P7351.c"	P11OE = 0; // 输入模式
                                           	BCLR	_OEP1bits,1
                                           ;	.line	136; "MC32P7351.c"	P01PU = 1; // 上拉
                                           	BSET	_PUP0bits,1
                                           ;	.line	137; "MC32P7351.c"	P01OE = 0; // 输入模式
                                           	BCLR	_OEP0bits,1
                                           ;	.line	138; "MC32P7351.c"	}
                                           	RETURN	
                                           ; exit point of _key_config
                                           
                                           ;***
                                           ;  pBlock Stats: dbName = C
                                           ;***
                                           ;entry:  _timer3_config	;Function start
                                           ; 2 exit points
                                           ;has an exit
                                           ;; Starting pCode block
                                           _timer3_config	;Function start
                                           ; 2 exit points
                                           ;	.line	122; "MC32P7351.c"	T3LOAD = 250 - 1; // FCPU 32分频后，这里是1ms触发一次中断
                                           	MOVAI	0xf9
                                           	MOVRA	_T3LOAD
                                           ;	.line	124; "MC32P7351.c"	T3CR = 0x85; // 使能定时器，时钟源选择FCPU，32分频
                                           	MOVAI	0x85
                                           	MOVRA	_T3CR
                                           ;	.line	125; "MC32P7351.c"	T3IE = 1;
                                           	BSET	_INTEbits,7
                                           ;	.line	126; "MC32P7351.c"	}
                                           	RETURN	
                                           ; exit point of _timer3_config
                                           
                                           ;***
                                           ;  pBlock Stats: dbName = C
                                           ;***
                                           ;entry:  _timer2_pwm_config	;Function start
                                           ; 2 exit points
                                           ;has an exit
                                           ;; Starting pCode block
                                           _timer2_pwm_config	;Function start
                                           ; 2 exit points
                                           ;	.line	106; "MC32P7351.c"	T2CKS0 = 1;
                                           	BSET	_T2CRbits,3
                                           ;	.line	107; "MC32P7351.c"	T2CKS1 = 0;
                                           	BCLR	_T2CRbits,4
                                           ;	.line	109; "MC32P7351.c"	TMRCKS0 = 0;
                                           	BCLR	_PWMCR1bits,3
                                           ;	.line	110; "MC32P7351.c"	TMRCKS1 = 1;
                                           	BSET	_PWMCR1bits,4
                                           ;	.line	112; "MC32P7351.c"	T2LOAD = 209; //
                                           	MOVAI	0xd1
                                           	MOVRA	_T2LOAD
                                           ;	.line	113; "MC32P7351.c"	T2DATA = 0;
                                           	CLRR	_T2DATA
                                           ;	.line	114; "MC32P7351.c"	PWM2EC = 0; // 禁止PWM输出
                                           	BCLR	_T2CRbits,6
                                           ;	.line	116; "MC32P7351.c"	T2EN = 1;
                                           	BSET	_T2CRbits,7
                                           ;	.line	117; "MC32P7351.c"	}
                                           	RETURN	
                                           ; exit point of _timer2_pwm_config
                                           
                                           ;***
                                           ;  pBlock Stats: dbName = C
                                           ;***
                                           ;entry:  _timer1_pwm_config	;Function start
                                           ; 2 exit points
                                           ;has an exit
                                           ;; Starting pCode block
                                           _timer1_pwm_config	;Function start
                                           ; 2 exit points
                                           ;	.line	94; "MC32P7351.c"	T1CR |= 0x02; // 4分频
                                           	BSET	_T1CR,1
                                           ;	.line	95; "MC32P7351.c"	T1LOAD = 128 - 1;
                                           	MOVAI	0x7f
                                           	MOVRA	_T1LOAD
                                           ;	.line	96; "MC32P7351.c"	T1DATA = 25; // 占空比 == T1DATA / T1LOAD
                                           	MOVAI	0x19
                                           	MOVRA	_T1DATA
                                           ;	.line	97; "MC32P7351.c"	PWM1EC = 0;  // 禁止PWM1输出
                                           	BCLR	_T1CRbits,6
                                           ;	.line	98; "MC32P7351.c"	T1EN = 1;    // 启动定时器
                                           	BSET	_T1CRbits,7
                                           ;	.line	99; "MC32P7351.c"	}
                                           	RETURN	
                                           ; exit point of _timer1_pwm_config
                                           
                                           ;***
                                           ;  pBlock Stats: dbName = C
                                           ;***
                                           ;entry:  _timer0_pwm_config	;Function start
                                           ; 2 exit points
                                           ;has an exit
                                           ;; Starting pCode block
                                           _timer0_pwm_config	;Function start
                                           ; 2 exit points
                                           ;	.line	81; "MC32P7351.c"	T0CR |= 0x02; // 4分频
                                           	BSET	_T0CR,1
                                           ;	.line	82; "MC32P7351.c"	T0LOAD = 128 - 1;
                                           	MOVAI	0x7f
                                           	MOVRA	_T0LOAD
                                           ;	.line	83; "MC32P7351.c"	T0DATA = 25; // 占空比 == T0DATA / T0LOAD
                                           	MOVAI	0x19
                                           	MOVRA	_T0DATA
                                           ;	.line	84; "MC32P7351.c"	PWM0EC = 0;  // 禁止PWM输出
                                           	BCLR	_T0CRbits,6
                                           ;	.line	85; "MC32P7351.c"	T0EN = 1;    // 启动定时器
                                           	BSET	_T0CRbits,7
                                           ;	.line	86; "MC32P7351.c"	}
                                           	RETURN	
                                           ; exit point of _timer0_pwm_config
                                           
                                           ;***
                                           ;  pBlock Stats: dbName = C
                                           ;***
                                           ;entry:  _adc_config	;Function start
                                           ; 2 exit points
                                           ;has an exit
                                           ;; Starting pCode block
                                           _adc_config	;Function start
                                           ; 2 exit points
                                           ;	.line	62; "MC32P7351.c"	P00OE = 0; // 输入模式
                                           	BCLR	_OEP0bits,0
                                           ;	.line	63; "MC32P7351.c"	P00DC = 1; // 模拟模式
                                           	BSET	_ADIOS0bits,0
                                           ;	.line	66; "MC32P7351.c"	P02OE = 0; // 输入模式
                                           	BCLR	_OEP0bits,2
                                           ;	.line	67; "MC32P7351.c"	P02DC = 1; // 模拟模式
                                           	BSET	_ADIOS0bits,1
                                           ;	.line	69; "MC32P7351.c"	ADCR0 = 0x0A; // 12位精度、不启用ADC转换，不使能ADC
                                           	MOVAI	0x0a
                                           	MOVRA	_ADCR0
                                           ;	.line	70; "MC32P7351.c"	ADCR1 = 0xE1; // 125K采样（最高精度）  内部3V参考电压
                                           	MOVAI	0xe1
                                           	MOVRA	_ADCR1
                                           ;	.line	71; "MC32P7351.c"	ADCR2 = 0xFF; // ADC采样时间为15个ADC时钟
                                           	MOVAI	0xff
                                           	MOVRA	_ADCR2
                                           ;	.line	72; "MC32P7351.c"	ADEN = 1;     // 使能ADC
                                           	BSET	_ADCR0bits,0
                                           ;	.line	73; "MC32P7351.c"	}
                                           	RETURN	
                                           ; exit point of _adc_config
                                           
                                           ;***
                                           ;  pBlock Stats: dbName = C
                                           ;***
                                           ;entry:  _IO_Init	;Function start
                                           ; 2 exit points
                                           ;has an exit
                                           ;; Starting pCode block
                                           _IO_Init	;Function start
                                           ; 2 exit points
                                           ;	.line	37; "MC32P7351.c"	IOP0 = 0x00;   // io口数据位
                                           	CLRR	_IOP0
                                           ;	.line	38; "MC32P7351.c"	OEP0 = 0x3F;   // io口方向 1:out  0:in
                                           	MOVAI	0x3f
                                           	MOVRA	_OEP0
                                           ;	.line	39; "MC32P7351.c"	PUP0 = 0x00;   // io口上拉电阻   1:enable  0:disable
                                           	CLRR	_PUP0
                                           ;	.line	40; "MC32P7351.c"	PDP0 = 0x00;   // io口下拉电阻   1:enable  0:disable
                                           	CLRR	_PDP0
                                           ;	.line	41; "MC32P7351.c"	ADIOS0 = 0x00; // io类型选择  1:模拟输入  0:通用io
                                           	CLRR	_ADIOS0
                                           ;	.line	43; "MC32P7351.c"	IOP1 = 0x00;   // io口数据位
                                           	CLRR	_IOP1
                                           ;	.line	44; "MC32P7351.c"	OEP1 = 0xFF;   // io口方向 1:out  0:in
                                           	MOVAI	0xff
                                           	MOVRA	_OEP1
                                           ;	.line	45; "MC32P7351.c"	PUP1 = 0x00;   // io口上拉电阻   1:enable  0:disable
                                           	CLRR	_PUP1
                                           ;	.line	46; "MC32P7351.c"	PDP1 = 0x00;   // io口下拉电阻   1:enable  0:disable
                                           	CLRR	_PDP1
                                           ;	.line	47; "MC32P7351.c"	ADIOS1 = 0x00; // io类型选择  1:模拟输入  0:通用io
                                           	CLRR	_ADIOS1
                                           ;	.line	54; "MC32P7351.c"	PMOD = 0x00;  // P00、P01、P13 io端口值从寄存器读，推挽输出
                                           	CLRR	_PMOD
                                           ;	.line	55; "MC32P7351.c"	DRVCR = 0x80; // 普通驱动
                                           	MOVAI	0x80
                                           	MOVRA	_DRVCR
                                           ;	.line	56; "MC32P7351.c"	}
                                           	RETURN	
                                           ; exit point of _IO_Init
                                           
                                           ;***
                                           ;  pBlock Stats: dbName = C
                                           ;***
                                           ;entry:  _CLR_RAM	;Function start
                                           ; 2 exit points
                                           ;has an exit
                                           ;; Starting pCode block
                                           _CLR_RAM	;Function start
                                           ; 2 exit points
                                           ;	.line	22; "MC32P7351.c"	for (FSR0 = 0; FSR0 < 0xff; FSR0++)
                                           	CLRR	_FSR0
                                           ;;unsigned compare: left < lit(0xFF=255), size=1
                                           _00118_DS_
                                           	MOVAI	0xff
                                           	RSUBAR	_FSR0
                                           	JBCLR	PFLAG,0
                                           	GOTO	_00116_DS_
                                           ;;genSkipc:3291: created from rifx:013B5EFC
                                           ;	.line	24; "MC32P7351.c"	INDF0 = 0x00;
                                           	CLRR	_INDF0
                                           ;	.line	22; "MC32P7351.c"	for (FSR0 = 0; FSR0 < 0xff; FSR0++)
                                           	INCR	_FSR0
                                           	GOTO	_00118_DS_
                                           _00116_DS_
                                           ;	.line	26; "MC32P7351.c"	FSR0 = 0xFF;
                                           	MOVAI	0xff
                                           	MOVRA	_FSR0
                                           ;	.line	27; "MC32P7351.c"	INDF0 = 0x00;
                                           	CLRR	_INDF0
                                           ;	.line	28; "MC32P7351.c"	}
                                           	RETURN	
                                           ; exit point of _CLR_RAM
                                           
                                           ;***
                                           ;  pBlock Stats: dbName = C
                                           ;***
                                           ;entry:  _delay_ms	;Function start
                                           ; 2 exit points
                                           ;has an exit
                                           ;7 compiler assigned registers:
                                           ;   r0x1035
                                           ;   STK00
                                           ;   r0x1036
                                           ;   r0x1037
                                           ;   r0x1038
                                           ;   r0x1039
                                           ;   r0x103A
                                           ;; Starting pCode block
                                           _delay_ms	;Function start
                                           ; 2 exit points
                                           ;	.line	292; "user.h"	void delay_ms(u16 xms)
                                           	MOVRA	r0x1035
                                           	MOVAR	STK00
                                           	MOVRA	r0x1036
                                           _00108_DS_
                                           ;	.line	294; "user.h"	while (xms)
                                           	MOVAR	r0x1036
                                           	ORAR	r0x1035
                                           	JBCLR	PFLAG,2
                                           	GOTO	_00111_DS_
                                           ;	.line	297; "user.h"	while (i--)
                                           	MOVAI	0x3c
                                           	MOVRA	r0x1037
                                           	MOVAI	0x02
                                           	MOVRA	r0x1038
                                           _00105_DS_
                                           	MOVAR	r0x1037
                                           	MOVRA	r0x1039
                                           	MOVAR	r0x1038
                                           	MOVRA	r0x103A
                                           	MOVAI	0xff
                                           	ADDRA	r0x1037
                                           	JBSET	PFLAG,0
                                           	DECR	r0x1038
                                           	MOVAR	r0x1039
                                           	ORAR	r0x103A
                                           	JBCLR	PFLAG,2
                                           	GOTO	_00107_DS_
                                           ;	.line	299; "user.h"	Nop();
                                           	nop	
                                           	GOTO	_00105_DS_
                                           _00107_DS_
                                           ;	.line	301; "user.h"	xms--; // 把 --操作放在while()判断条件外面，更节省空间
                                           	MOVAI	0xff
                                           	ADDRA	r0x1036
                                           	JBSET	PFLAG,0
                                           	DECR	r0x1035
                                           ;	.line	305; "user.h"	__endasm;
                                           	;
                                           	clrwdt;
                                           	
                                           	GOTO	_00108_DS_
                                           _00111_DS_
                                           ;	.line	307; "user.h"	}
                                           	RETURN	
                                           ; exit point of _delay_ms
                                           
                                           
                                           ;	code size estimation:
                                           ;	 1492+    0 =  1492 instructions ( 2984 byte)
                                           
                                           	end


MEMORY USAGE MAP ('X' = Used,  '-' = Unused)

0000 : XX-------------- XXXXXXXXXXXXXXXX XXXXXXXXXXXXXXXX XXXXXXXXXXXXXXXX
0040 : XXXXXXXXXXXXXXXX XXXXXXXXXXXXXXXX XXXXXXXXXXXXXXXX XXXXXXXXXXXXXXXX
0080 : XXXXXXXXXXXXXXXX XXXXXXXXXXXXXXXX XXXXXXXXXXXXXXXX XXXXXXXXXXXXXXXX
00C0 : XXXXXXXXXXXXXXXX XXXXXXXXXXXXXXXX XXXXXXXXXXXXXXXX XXXXXXXXXXXXXXXX
0100 : XXXXXXXXXXXXXXXX XXXXXXXXXXXXXXXX XXXXXXXXXXXXXXXX XXXXXXXXXXXXXXXX
0140 : XXXXXXXXXXXXXXXX XXXXXXXXXXXXXXXX XXXXXXXXXXXXXXXX XXXXXXXXXXXXXXXX
0180 : XXXXXXXXXXXXXXXX XXXXXXXXXXXXXXXX XXXXXXXXXXXXXXXX XXXXXXXXXXXXXXXX
01C0 : XXXXXXXXXXXXXXXX XXXXXXXXXXXXXXXX XXXXXXXXXXXXXXXX XXXXXXXXXXXXXXXX
0200 : XXXXXXXXXXXXXXXX XXXXXXXXXXXXXXXX XXXXXXXXXXXXXXXX XXXXXXXXXXXXXXXX
0240 : XXXXXXXXXXXXXXXX XXXXXXXXXXXXXXXX XXXXXXXXXXXXXXXX XXXXXXXXXXXXXXXX
0280 : XXXXXXXXXXXXXXXX XXXXXXXXXXXXXXXX XXXXXXXXXXXXXXXX XXXXXXXXXXXXXXXX
02C0 : XXXXXXXXXXXXXXXX XXXXXXXXXXXXXXXX XXXXXXXXXXXXXXXX XXXXXXXXXXXXXXXX
0300 : XXXXXXXXXXXXXXXX XXXXXXXXXXXXXXXX XXXXXXXXXXXXXXXX XXXXXXXXXXXXXXXX
0340 : XXXXXXXXXXXXXXXX XXXXXXXXXXXXXXXX XXXXXXXXXXXXXXXX XXXXXXXXXXXXXXXX
0380 : XXXXXXXXXXXXXXXX XXXXXXXXXXXXXXXX XXXXXXXXXXXXXXXX XXXXXXXXXXXXXXXX
03C0 : XXXXXXXXXXXXXXXX XXXXXXXXXXXXXXXX XXXXXXXXXXXXXXXX XXXXXXXXXXXXXXXX
0400 : XXXXXXXXXXXXXXXX XXXXXXXXXXXXXXXX XXXXXXXXXXXXXXXX XXXXXXXXXXXXXXXX
0440 : XXXXXXXXXXXXXXXX XXXXXXXXXXXXXXXX XXXXXXXXXXXXXXXX XXXXXXXXXXXXXXXX
0480 : XXXXXXXXXXXXXXXX XXXXXXXXXXXXXXXX XXXXXXXXXXXXXXXX XXXXXXXXXXXXXXXX
04C0 : XXXXXXXXXXXXXXXX XXXXXXXXXXXXXXXX XXXXXXXXXXXXXXXX XXXXXXXXXXXXXXXX
0500 : XXXXXXXXXXXXXXXX XXXXXXXXXXXXXXXX XXXXXXXXXXXXXXXX XXXXXXXXXXXXXXXX
0540 : XXXXXXXXXXXXXXXX XXXXXXXXXXXXXXXX XXXXXXXXXXXXXXXX XXXXXXXXXXXXXXXX
0580 : XXXXXXXXXXXXXXXX XXXXXXXXXXXXXXXX XXXXXXXXXXXXXXXX XXXXXXXXXXXXXXXX
05C0 : XXXXXXXXXXXXXXXX XXXXXXXXXXXXXXXX XXXXXXXXXXXXXXXX XXXXXXXXXXXXXXXX
0600 : XXXXXXXXXXXXXXXX XXXXXXXXXXXXXXXX XXXXXXXXXXXXXXXX XXXXXXXXXXXXXXXX
0640 : XXXXXXXXXXXXXXXX XXXXXXXXXXXXXXXX XXXXXXXXXXXXXXXX XXXXXXXXXXXXXXXX
0680 : XXXXXXXXXXXXXXXX XXXXXXXXXXXXXXXX XXXXXXXXXXXXXXXX XXXXXXXXXXXXXXXX
06C0 : XXXXXXXXXXXXXXXX XXXXXXXXXXXXXXXX XXXXXXXXXXXXXXXX XXXXXXXXXXXXXXXX
0700 : XXXXXXXXXXXXXXXX XXXXXXXXXXXXXXXX XXXXXXXXXXXXXXXX XXXXXXXXXXXXXXXX
0740 : XXXXXXXXXXXXXXXX XXXXXXXXXXXXXXXX XXXXXXXXXXXXXXXX XXXXXXXXXXXXXXXX
0780 : XXXXXXXXXXXXXXXX XXXXXXXXXXXXXXXX XXXXXXXXXXXXXXXX XXXXXXXXXXXXXXXX
07C0 : XXXXXXXXXXXXXXXX XXXXXXXXXXXXXXXX XXXXXXXXXXXXXXXX XXXXXXXXXXXXXXXX
0800 : XXXXXXXXXXXXXXXX XXXXXXXXXXXXXXXX XXXXXXXXXXXXXXXX XXXXXXXXXXXXXXXX
0840 : XXXXXXXXXXXXXXXX XXXXXXXXXXXXXXXX XXXXXXXXXXXXXXXX XXXXXXXXXXXXXXXX
0880 : XXXXXXXXXXXXXXXX XXXXXXXXXXXXXXXX XXXXXXXXXXXXXXXX XXXXXXXXXXXXXXXX
08C0 : XXXXXXXXXXXXXXXX XXXXXXXXXXXXXXXX XXXXXXXXXXXXXXXX XXXXXXXXXXXXXXXX
0900 : XXXXXXXXXXXXXXXX XXXXXXXXXXXXXXXX XXXXXXXXXXXXXXXX XXXXXXXXXXXXXXXX
0940 : XXXXXXXXXXXXXXXX XXXXXXXXXXXXXXXX XXXXXXXXXXXXXXXX XXXXXXXXXXXXXXXX
0980 : XXXXXXXXXXXXXXXX XXXXXXXXXXXXXXXX XXXXXXXXXXXXXXXX XXXXXXXXXXXXXXXX
09C0 : XXXXXXXXXXXXXXXX XXXXXXXXXXXXXXXX XXXXXXXXXXXXXXXX XXXXXXXXXXXXXXXX
0A00 : XXXXXXXXXXXXXXXX XXXXXXXXXXXXXXXX XXXXXXXXXXXXXXXX XXXXXXXXXXXXXXXX
0A40 : XXXXXXXXXXXXXXXX XXXXXXXXXXXXXXXX XXXXXXXXXXXXXXXX XXXXXXXXXXXXXXXX
0A80 : XXXXXXXXXXXXXXXX XXXXXXXXXXXXXXXX XXXXXXXXXXXXXXXX XXXXXXXXXXXXXXXX
0AC0 : XXXXXXXXXXXXXXXX XXXXXXXXXXXXXXXX XXXXXXXXXXXXXXXX XXXXXXXXXXXXXXXX
0B00 : XXXXXXXXXXXXXXXX XXXXXXXXXXXXXXXX XXXXXXXXXXXXXXXX XXXXXXXXXXXXXXXX
0B40 : XXXXXXXXXXXXXXXX XXXXXXXXXXXXXXXX XXXXXXXXXXXXXXXX XXXXXXXXXXXXXXXX
0B80 : XXXXXXXXXXXXXXXX XXXXXXXXXXXXXXXX XXXXXXXXXXXXXXXX XXXXXXXXXXXXXXXX
0BC0 : XXXXXXXXXXXXXXXX XXXXXXXXXXXXXXXX XXXXXXXXXXXXXXXX XXXXXXXXXXXXXXXX
0C00 : XXXXXXXXXXXXXXXX XXXXXXXXXXXXXXXX XXXXXXXXXXXXXXXX XXXXXXXXXXXXXXXX
0C40 : XXXXXXXXXXXXXXXX XXXXXXXXXXXXXXXX XXXXXXXXXXXXXXXX XXXXXXXXXXXXXXXX
0C80 : XXXXXXXXXXXXXXXX XXXXXXXXXXXXXXXX XXXXXXXXXXXXXXXX XXXXXXXXXXXXXXXX
0CC0 : XXXXXXXXXXXXXXXX XXXXXXXXXXXXXXXX XXXXXXXXXXXXXXXX XXXXXXXXXXXXXXXX
0D00 : XXXXXXXXXXXXXXXX XXXXXXXXXXXXXXXX XXXXXXXXXXXXXXXX XXXXXXXXXXXXXXXX
0D40 : XXXXXXXXXXXXXXXX XXXXXXXXXXXXXXXX XXXXXXXXXXXXXXXX XXXXXXXXXXXXXXXX
0D80 : XXXXXXXXXXXXXXXX XXXXXXXXXXXXXXXX XXXXXXXXXXXXXXXX XXXXXXXXXXXXXXXX
0DC0 : XXXXXXXXXXXXXXXX XXXXXXXXXXXX---- ---------------- ----------------

All other memory blocks unused.

Program Memory Words Used:  1767

