gplink-2.2.37 (Jan 22 2024)
Listing File Generated: 2025-4-12  16:14:28
 
 
Address  Value    Disassembly              Source
-------  -----    -----------              ------
                                           ;--------------------------------------------------------
                                           ; external declarations
                                           ;--------------------------------------------------------
                                           	extern	__mullong
                                           	extern	__divulong
                                           	extern	_INDF0bits
                                           	extern	_INDF1bits
                                           	extern	_INDF2bits
                                           	extern	_HIBYTEbits
                                           	extern	_FSR0bits
                                           	extern	_FSR1bits
                                           	extern	_PCLbits
                                           	extern	_PFLAGbits
                                           	extern	_MCRbits
                                           	extern	_INDF3bits
                                           	extern	_INTEbits
                                           	extern	_INTFbits
                                           	extern	_DRVCRbits
                                           	extern	_PFRCCRbits
                                           	extern	_P1KBCRbits
                                           	extern	_PFRCCALbits
                                           	extern	_IOP0bits
                                           	extern	_OEP0bits
                                           	extern	_PUP0bits
                                           	extern	_PDP0bits
                                           	extern	_IOP1bits
                                           	extern	_OEP1bits
                                           	extern	_PUP1bits
                                           	extern	_PDP1bits
                                           	extern	_T0CRbits
                                           	extern	_T0CNTbits
                                           	extern	_T0LOADbits
                                           	extern	_T0DATAbits
                                           	extern	_T1CRbits
                                           	extern	_T1CNTbits
                                           	extern	_T1LOADbits
                                           	extern	_T1DATAbits
                                           	extern	_T2CRbits
                                           	extern	_T2CNTbits
                                           	extern	_T2LOADbits
                                           	extern	_T2DATAbits
                                           	extern	_T3CRbits
                                           	extern	_T3CNTbits
                                           	extern	_T3LOADbits
                                           	extern	_PWM0DRbits
                                           	extern	_PWM1DRbits
                                           	extern	_PWM2DRbits
                                           	extern	_PWMCR0bits
                                           	extern	_PWMCR1bits
                                           	extern	_OSCMRbits
                                           	extern	_LVDCRbits
                                           	extern	_ADCR0bits
                                           	extern	_ADCR1bits
                                           	extern	_ADCR2bits
                                           	extern	_OSADJCRbits
                                           	extern	_ADRHbits
                                           	extern	_ADRLbits
                                           	extern	_ADIOS0bits
                                           	extern	_ADIOS1bits
                                           	extern	_PMODbits
                                           	extern	_PWMCR3bits
                                           	extern	_PWMCR2bits
                                           	extern	_PFRCAUXbits
                                           	extern	_HIRCCALbits
                                           	extern	_INDF0
                                           	extern	_INDF1
                                           	extern	_INDF2
                                           	extern	_HIBYTE
                                           	extern	_FSR0
                                           	extern	_FSR1
                                           	extern	_PCL
                                           	extern	_PFLAG
                                           	extern	_MCR
                                           	extern	_INDF3
                                           	extern	_INTE
                                           	extern	_INTF
                                           	extern	_DRVCR
                                           	extern	_PFRCCR
                                           	extern	_P1KBCR
                                           	extern	_PFRCCAL
                                           	extern	_IOP0
                                           	extern	_OEP0
                                           	extern	_PUP0
                                           	extern	_PDP0
                                           	extern	_IOP1
                                           	extern	_OEP1
                                           	extern	_PUP1
                                           	extern	_PDP1
                                           	extern	_T0CR
                                           	extern	_T0CNT
                                           	extern	_T0LOAD
                                           	extern	_T0DATA
                                           	extern	_T1CR
                                           	extern	_T1CNT
                                           	extern	_T1LOAD
                                           	extern	_T1DATA
                                           	extern	_T2CR
                                           	extern	_T2CNT
                                           	extern	_T2LOAD
                                           	extern	_T2DATA
                                           	extern	_T3CR
                                           	extern	_T3CNT
                                           	extern	_T3LOAD
                                           	extern	_PWM0DR
                                           	extern	_PWM1DR
                                           	extern	_PWM2DR
                                           	extern	_PWMCR0
                                           	extern	_PWMCR1
                                           	extern	_OSCMR
                                           	extern	_LVDCR
                                           	extern	_ADCR0
                                           	extern	_ADCR1
                                           	extern	_ADCR2
                                           	extern	_OSADJCR
                                           	extern	_ADRH
                                           	extern	_ADRL
                                           	extern	_ADIOS0
                                           	extern	_ADIOS1
                                           	extern	_PMOD
                                           	extern	_PWMCR3
                                           	extern	_PWMCR2
                                           	extern	_PFRCAUX
                                           	extern	_HIRCCAL
                                           ;--------------------------------------------------------
                                           ; global declarations
                                           ;--------------------------------------------------------
                                           	global	_delay_ms
                                           	global	_CLR_RAM
                                           	global	_IO_Init
                                           	global	_adc_config
                                           	global	_timer0_pwm_config
                                           	global	_timer1_pwm_config
                                           	global	_timer2_pwm_config
                                           	global	_timer3_config
                                           	global	_key_config
                                           	global	_adc_sel_pin
                                           	global	_adc_get_val
                                           	global	_adc_get_val_once
                                           	global	_Sys_Init
                                           	global	_key_scan
                                           	global	_key_event_handle
                                           	global	_adc_scan_handle
                                           	global	_turn_dir_scan_handle
                                           	global	_shutdown_scan_handle
                                           	global	_low_power_scan_handle
                                           	global	_main
                                           	global	_int_isr
                                           	global	_key_event
                                           	global	_mode_flag
                                           	global	_key_press_flag
                                           	global	_i
                                           	global	_adc_val
                                           	global	_turn_dir_ms_cnt
                                           	global	_shut_down_ms_cnt
                                           	global	_adc_bat_val
                                           	global	_adc_charging_val
                                           	global	_max_pwm_val
                                           	global	_last_pwm_val
                                           	global	_tmp_val
                                           	global	_tmp_val_l
                                           	global	_tmp_val_cnt
                                           	global	_flag_bat_is_empty
                                           	global	_tmp_bat_val
                                           	global	_over_charging_cnt
                                           	global	_full_charge_cnt
                                           	global	_abuf
                                           	global	_statusbuf
                                           	global	_flag1
                                           	global	_flag2
                                           	global	_flag3
                                           
                                           	global STK06
                                           	global STK05
                                           	global STK04
                                           	global STK03
                                           	global STK02
                                           	global STK01
                                           	global STK00
                                           
                                           sharebank udata_ovr 0x0000
                                           STK06	res 1
                                           STK05	res 1
                                           STK04	res 1
                                           STK03	res 1
                                           STK02	res 1
                                           STK01	res 1
                                           STK00	res 1
                                           
                                           ;--------------------------------------------------------
                                           ; global definitions
                                           ;--------------------------------------------------------
                                           UD_MC32P7351_0	udata
                                           _key_event	res	1
                                           
                                           UD_MC32P7351_1	udata
                                           _mode_flag	res	1
                                           
                                           UD_MC32P7351_2	udata
                                           _key_press_flag	res	1
                                           
                                           UD_MC32P7351_3	udata
                                           _i	res	1
                                           
                                           UD_MC32P7351_4	udata
                                           _adc_val	res	2
                                           
                                           UD_MC32P7351_5	udata
                                           _turn_dir_ms_cnt	res	4
                                           
                                           UD_MC32P7351_6	udata
                                           _shut_down_ms_cnt	res	4
                                           
                                           UD_MC32P7351_7	udata
                                           _adc_bat_val	res	4
                                           
                                           UD_MC32P7351_8	udata
                                           _adc_charging_val	res	2
                                           
                                           UD_MC32P7351_9	udata
                                           _max_pwm_val	res	4
                                           
                                           UD_MC32P7351_10	udata
                                           _last_pwm_val	res	2
                                           
                                           UD_MC32P7351_11	udata
                                           _tmp_val	res	2
                                           
                                           UD_MC32P7351_12	udata
                                           _tmp_val_l	res	16
                                           
                                           UD_MC32P7351_13	udata
                                           _tmp_val_cnt	res	1
                                           
                                           UD_MC32P7351_14	udata
                                           _flag_bat_is_empty	res	1
                                           
                                           UD_MC32P7351_15	udata
                                           _tmp_bat_val	res	2
                                           
                                           UD_MC32P7351_16	udata
                                           _over_charging_cnt	res	1
                                           
                                           UD_MC32P7351_17	udata
                                           _full_charge_cnt	res	1
                                           
                                           UD_MC32P7351_18	udata
                                           _abuf	res	1
                                           
                                           UD_MC32P7351_19	udata
                                           _statusbuf	res	1
                                           
                                           UD_MC32P7351_20	udata
                                           _flag1	res	1
                                           
                                           UD_MC32P7351_21	udata
                                           _flag2	res	1
                                           
                                           UD_MC32P7351_22	udata
                                           _flag3	res	1
                                           
                                           ;--------------------------------------------------------
                                           ; absolute symbol definitions
                                           ;--------------------------------------------------------
                                           ;--------------------------------------------------------
                                           ; compiler-defined variables
                                           ;--------------------------------------------------------
                                           UDL_MC32P7351_0	udata
                                           r0x104B	res	1
                                           r0x104A	res	1
                                           r0x104C	res	1
                                           r0x104D	res	1
                                           r0x104E	res	1
                                           r0x104F	res	1
                                           r0x1050	res	1
                                           r0x1051	res	1
                                           r0x1052	res	1
                                           r0x1053	res	1
                                           r0x1054	res	1
                                           r0x1056	res	1
                                           r0x1055	res	1
                                           r0x1057	res	1
                                           r0x1058	res	1
                                           r0x1059	res	1
                                           r0x105A	res	1
                                           r0x105C	res	1
                                           r0x105B	res	1
                                           r0x105D	res	1
                                           r0x105E	res	1
                                           r0x105F	res	1
                                           r0x1060	res	1
                                           r0x1061	res	1
                                           r0x1062	res	1
                                           r0x1063	res	1
                                           r0x1064	res	1
                                           _key_scan_cur_key_id_65536_41	res	1
                                           _key_scan_filter_cnt_65536_41	res	1
                                           _key_scan_filter_key_id_65536_41	res	1
                                           _key_scan_press_cnt_65536_41	res	1
                                           _key_scan_flag_is_key_mode_hold_65536_41	res	1
                                           _key_scan_last_key_id_65536_41	res	1
                                           _adc_scan_handle_cnt_65536_106	res	1
                                           _adc_scan_handle_need_charge_cnt_65536_106	res	1
                                           _int_isr___1ms_cnt_196608_238	res	1
                                           _int_isr_key_scan_cnt_327680_240	res	1
                                           _int_isr_low_bat_cnt_327680_243	res	2
                                           _int_isr_shut_down_bat_cnt_327680_247	res	2
                                           _int_isr_update_current_time_cnt_327680_251	res	2
                                           _led_state	res	1
                                           _pwm_counter	res	2
                                           _breath_counter	res	1
                                           _pwm_duty	res	1
                                           _breath_direction	res	1
                                           ;--------------------------------------------------------
                                           ; initialized data
                                           ;--------------------------------------------------------
                                           
                                           ;@Allocation info for local variables in function 'delay_ms'
                                           ;@delay_ms delay_ms                  Allocated to registers ;size:2
                                           ;@delay_ms INDF0bits                 Allocated to registers ;size:1
                                           ;@delay_ms INDF1bits                 Allocated to registers ;size:1
                                           ;@delay_ms INDF2bits                 Allocated to registers ;size:1
                                           ;@delay_ms HIBYTEbits                Allocated to registers ;size:1
                                           ;@delay_ms FSR0bits                  Allocated to registers ;size:1
                                           ;@delay_ms FSR1bits                  Allocated to registers ;size:1
                                           ;@delay_ms PCLbits                   Allocated to registers ;size:1
                                           ;@delay_ms PFLAGbits                 Allocated to registers ;size:1
                                           ;@delay_ms MCRbits                   Allocated to registers ;size:1
                                           ;@delay_ms INDF3bits                 Allocated to registers ;size:1
                                           ;@delay_ms INTEbits                  Allocated to registers ;size:1
                                           ;@delay_ms INTFbits                  Allocated to registers ;size:1
                                           ;@delay_ms DRVCRbits                 Allocated to registers ;size:1
                                           ;@delay_ms PFRCCRbits                Allocated to registers ;size:1
                                           ;@delay_ms P1KBCRbits                Allocated to registers ;size:1
                                           ;@delay_ms PFRCCALbits               Allocated to registers ;size:1
                                           ;@delay_ms IOP0bits                  Allocated to registers ;size:1
                                           ;@delay_ms OEP0bits                  Allocated to registers ;size:1
                                           ;@delay_ms PUP0bits                  Allocated to registers ;size:1
                                           ;@delay_ms PDP0bits                  Allocated to registers ;size:1
                                           ;@delay_ms IOP1bits                  Allocated to registers ;size:1
                                           ;@delay_ms OEP1bits                  Allocated to registers ;size:1
                                           ;@delay_ms PUP1bits                  Allocated to registers ;size:1
                                           ;@delay_ms PDP1bits                  Allocated to registers ;size:1
                                           ;@delay_ms T0CRbits                  Allocated to registers ;size:1
                                           ;@delay_ms T0CNTbits                 Allocated to registers ;size:1
                                           ;@delay_ms T0LOADbits                Allocated to registers ;size:1
                                           ;@delay_ms T0DATAbits                Allocated to registers ;size:1
                                           ;@delay_ms T1CRbits                  Allocated to registers ;size:1
                                           ;@delay_ms T1CNTbits                 Allocated to registers ;size:1
                                           ;@delay_ms T1LOADbits                Allocated to registers ;size:1
                                           ;@delay_ms T1DATAbits                Allocated to registers ;size:1
                                           ;@delay_ms T2CRbits                  Allocated to registers ;size:1
                                           ;@delay_ms T2CNTbits                 Allocated to registers ;size:1
                                           ;@delay_ms T2LOADbits                Allocated to registers ;size:1
                                           ;@delay_ms T2DATAbits                Allocated to registers ;size:1
                                           ;@delay_ms T3CRbits                  Allocated to registers ;size:1
                                           ;@delay_ms T3CNTbits                 Allocated to registers ;size:1
                                           ;@delay_ms T3LOADbits                Allocated to registers ;size:1
                                           ;@delay_ms PWM0DRbits                Allocated to registers ;size:1
                                           ;@delay_ms PWM1DRbits                Allocated to registers ;size:1
                                           ;@delay_ms PWM2DRbits                Allocated to registers ;size:1
                                           ;@delay_ms PWMCR0bits                Allocated to registers ;size:1
                                           ;@delay_ms PWMCR1bits                Allocated to registers ;size:1
                                           ;@delay_ms OSCMRbits                 Allocated to registers ;size:1
                                           ;@delay_ms LVDCRbits                 Allocated to registers ;size:1
                                           ;@delay_ms ADCR0bits                 Allocated to registers ;size:1
                                           ;@delay_ms ADCR1bits                 Allocated to registers ;size:1
                                           ;@delay_ms ADCR2bits                 Allocated to registers ;size:1
                                           ;@delay_ms OSADJCRbits               Allocated to registers ;size:1
                                           ;@delay_ms ADRHbits                  Allocated to registers ;size:1
                                           ;@delay_ms ADRLbits                  Allocated to registers ;size:1
                                           ;@delay_ms ADIOS0bits                Allocated to registers ;size:1
                                           ;@delay_ms ADIOS1bits                Allocated to registers ;size:1
                                           ;@delay_ms PMODbits                  Allocated to registers ;size:1
                                           ;@delay_ms PWMCR3bits                Allocated to registers ;size:1
                                           ;@delay_ms PWMCR2bits                Allocated to registers ;size:1
                                           ;@delay_ms PFRCAUXbits               Allocated to registers ;size:1
                                           ;@delay_ms HIRCCALbits               Allocated to registers ;size:1
                                           ;@delay_ms key_event                 Allocated to registers ;size:1
                                           ;@delay_ms mode_flag                 Allocated to registers ;size:1
                                           ;@delay_ms key_press_flag            Allocated to registers ;size:1
                                           ;@delay_ms i                         Allocated to registers ;size:1
                                           ;@delay_ms adc_val                   Allocated to registers ;size:2
                                           ;@delay_ms turn_dir_ms_cnt           Allocated to registers ;size:4
                                           ;@delay_ms shut_down_ms_cnt          Allocated to registers ;size:4
                                           ;@delay_ms adc_bat_val               Allocated to registers ;size:4
                                           ;@delay_ms adc_charging_val          Allocated to registers ;size:2
                                           ;@delay_ms max_pwm_val               Allocated to registers ;size:4
                                           ;@delay_ms last_pwm_val              Allocated to registers ;size:2
                                           ;@delay_ms tmp_val                   Allocated to registers ;size:2
                                           ;@delay_ms tmp_val_l                 Allocated to registers ;size:16
                                           ;@delay_ms tmp_val_cnt               Allocated to registers ;size:1
                                           ;@delay_ms flag_bat_is_empty         Allocated to registers ;size:1
                                           ;@delay_ms tmp_bat_val               Allocated to registers ;size:2
                                           ;@delay_ms over_charging_cnt         Allocated to registers ;size:1
                                           ;@delay_ms full_charge_cnt           Allocated to registers ;size:1
                                           ;@delay_ms pwm_duty                  Allocated to registers ;size:1
                                           ;@delay_ms pwm_counter               Allocated to registers ;size:2
                                           ;@delay_ms breath_counter            Allocated to registers ;size:1
                                           ;@delay_ms breath_direction          Allocated to registers ;size:1
                                           ;@delay_ms led_state                 Allocated to registers ;size:1
                                           ;@delay_ms abuf                      Allocated to registers ;size:1
                                           ;@delay_ms statusbuf                 Allocated to registers ;size:1
                                           ;@delay_ms flag1                     Allocated to registers ;size:1
                                           ;@delay_ms flag2                     Allocated to registers ;size:1
                                           ;@delay_ms flag3                     Allocated to registers ;size:1
                                           ;@delay_ms xms                       Allocated to registers ;size:2
                                           ;@delay_ms i                         Allocated to registers r0x104C r0x104D ;size:2
                                           ;@delay_ms INDF0                     Allocated to registers ;size:1
                                           ;@delay_ms INDF1                     Allocated to registers ;size:1
                                           ;@delay_ms INDF2                     Allocated to registers ;size:1
                                           ;@delay_ms HIBYTE                    Allocated to registers ;size:1
                                           ;@delay_ms FSR0                      Allocated to registers ;size:1
                                           ;@delay_ms FSR1                      Allocated to registers ;size:1
                                           ;@delay_ms PCL                       Allocated to registers ;size:1
                                           ;@delay_ms PFLAG                     Allocated to registers ;size:1
                                           ;@delay_ms MCR                       Allocated to registers ;size:1
                                           ;@delay_ms INDF3                     Allocated to registers ;size:1
                                           ;@delay_ms INTE                      Allocated to registers ;size:1
                                           ;@delay_ms INTF                      Allocated to registers ;size:1
                                           ;@delay_ms DRVCR                     Allocated to registers ;size:1
                                           ;@delay_ms PFRCCR                    Allocated to registers ;size:1
                                           ;@delay_ms P1KBCR                    Allocated to registers ;size:1
                                           ;@delay_ms PFRCCAL                   Allocated to registers ;size:1
                                           ;@delay_ms IOP0                      Allocated to registers ;size:1
                                           ;@delay_ms OEP0                      Allocated to registers ;size:1
                                           ;@delay_ms PUP0                      Allocated to registers ;size:1
                                           ;@delay_ms PDP0                      Allocated to registers ;size:1
                                           ;@delay_ms IOP1                      Allocated to registers ;size:1
                                           ;@delay_ms OEP1                      Allocated to registers ;size:1
                                           ;@delay_ms PUP1                      Allocated to registers ;size:1
                                           ;@delay_ms PDP1                      Allocated to registers ;size:1
                                           ;@delay_ms T0CR                      Allocated to registers ;size:1
                                           ;@delay_ms T0CNT                     Allocated to registers ;size:1
                                           ;@delay_ms T0LOAD                    Allocated to registers ;size:1
                                           ;@delay_ms T0DATA                    Allocated to registers ;size:1
                                           ;@delay_ms T1CR                      Allocated to registers ;size:1
                                           ;@delay_ms T1CNT                     Allocated to registers ;size:1
                                           ;@delay_ms T1LOAD                    Allocated to registers ;size:1
                                           ;@delay_ms T1DATA                    Allocated to registers ;size:1
                                           ;@delay_ms T2CR                      Allocated to registers ;size:1
                                           ;@delay_ms T2CNT                     Allocated to registers ;size:1
                                           ;@delay_ms T2LOAD                    Allocated to registers ;size:1
                                           ;@delay_ms T2DATA                    Allocated to registers ;size:1
                                           ;@delay_ms T3CR                      Allocated to registers ;size:1
                                           ;@delay_ms T3CNT                     Allocated to registers ;size:1
                                           ;@delay_ms T3LOAD                    Allocated to registers ;size:1
                                           ;@delay_ms PWM0DR                    Allocated to registers ;size:1
                                           ;@delay_ms PWM1DR                    Allocated to registers ;size:1
                                           ;@delay_ms PWM2DR                    Allocated to registers ;size:1
                                           ;@delay_ms PWMCR0                    Allocated to registers ;size:1
                                           ;@delay_ms PWMCR1                    Allocated to registers ;size:1
                                           ;@delay_ms OSCMR                     Allocated to registers ;size:1
                                           ;@delay_ms LVDCR                     Allocated to registers ;size:1
                                           ;@delay_ms ADCR0                     Allocated to registers ;size:1
                                           ;@delay_ms ADCR1                     Allocated to registers ;size:1
                                           ;@delay_ms ADCR2                     Allocated to registers ;size:1
                                           ;@delay_ms OSADJCR                   Allocated to registers ;size:1
                                           ;@delay_ms ADRH                      Allocated to registers ;size:1
                                           ;@delay_ms ADRL                      Allocated to registers ;size:1
                                           ;@delay_ms ADIOS0                    Allocated to registers ;size:1
                                           ;@delay_ms ADIOS1                    Allocated to registers ;size:1
                                           ;@delay_ms PMOD                      Allocated to registers ;size:1
                                           ;@delay_ms PWMCR3                    Allocated to registers ;size:1
                                           ;@delay_ms PWMCR2                    Allocated to registers ;size:1
                                           ;@delay_ms PFRCAUX                   Allocated to registers ;size:1
                                           ;@delay_ms HIRCCAL                   Allocated to registers ;size:1
                                           ;@end Allocation info for local variables in function 'delay_ms';
                                           ;@Allocation info for local variables in function 'CLR_RAM'
                                           ;@end Allocation info for local variables in function 'CLR_RAM';
                                           ;@Allocation info for local variables in function 'IO_Init'
                                           ;@end Allocation info for local variables in function 'IO_Init';
                                           ;@Allocation info for local variables in function 'adc_config'
                                           ;@end Allocation info for local variables in function 'adc_config';
                                           ;@Allocation info for local variables in function 'timer0_pwm_config'
                                           ;@end Allocation info for local variables in function 'timer0_pwm_config';
                                           ;@Allocation info for local variables in function 'timer1_pwm_config'
                                           ;@end Allocation info for local variables in function 'timer1_pwm_config';
                                           ;@Allocation info for local variables in function 'timer2_pwm_config'
                                           ;@end Allocation info for local variables in function 'timer2_pwm_config';
                                           ;@Allocation info for local variables in function 'timer3_config'
                                           ;@end Allocation info for local variables in function 'timer3_config';
                                           ;@Allocation info for local variables in function 'key_config'
                                           ;@end Allocation info for local variables in function 'key_config';
                                           ;@Allocation info for local variables in function 'adc_sel_pin'
                                           ;@adc_sel_pin adc_pin                   Allocated to registers r0x1050 ;size:1
                                           ;@end Allocation info for local variables in function 'adc_sel_pin';
                                           ;@Allocation info for local variables in function 'adc_get_val'
                                           ;@adc_get_val i                         Allocated to registers r0x1052 ;size:1
                                           ;@adc_get_val g_temp_value              Allocated to registers r0x1053 r0x1054 ;size:2
                                           ;@adc_get_val g_tmpbuff                 Allocated to registers r0x104E r0x104F r0x1055 r0x1057 ;size:4
                                           ;@adc_get_val g_adcmax                  Allocated to registers r0x104E r0x104F ;size:2
                                           ;@adc_get_val g_adcmin                  Allocated to registers r0x1050 r0x1051 ;size:2
                                           ;@end Allocation info for local variables in function 'adc_get_val';
                                           ;@Allocation info for local variables in function 'adc_get_val_once'
                                           ;@adc_get_val_once g_temp_value              Allocated to registers r0x104D r0x104C ;size:2
                                           ;@end Allocation info for local variables in function 'adc_get_val_once';
                                           ;@Allocation info for local variables in function 'Sys_Init'
                                           ;@end Allocation info for local variables in function 'Sys_Init';
                                           ;@Allocation info for local variables in function 'key_scan'
                                           ;@key_scan last_key_id               Allocated to registers ;size:1
                                           ;@key_scan press_cnt                 Allocated to registers ;size:1
                                           ;@key_scan filter_cnt                Allocated to registers ;size:1
                                           ;@key_scan filter_key_id             Allocated to registers ;size:1
                                           ;@key_scan cur_key_id                Allocated to registers ;size:1
                                           ;@key_scan flag_is_key_mode_hold     Allocated to registers ;size:1
                                           ;@end Allocation info for local variables in function 'key_scan';
                                           ;@Allocation info for local variables in function 'key_scan'
                                           ;@key_scan last_key_id               Allocated to registers ;size:1
                                           ;@key_scan press_cnt                 Allocated to registers ;size:1
                                           ;@key_scan filter_cnt                Allocated to registers ;size:1
                                           ;@key_scan filter_key_id             Allocated to registers ;size:1
                                           ;@key_scan cur_key_id                Allocated to registers ;size:1
                                           ;@key_scan flag_is_key_mode_hold     Allocated to registers ;size:1
                                           ;@end Allocation info for local variables in function 'key_scan';
                                           ;@Allocation info for local variables in function 'key_event_handle'
                                           ;@end Allocation info for local variables in function 'key_event_handle';
                                           ;@Allocation info for local variables in function 'adc_scan_handle'
                                           ;@adc_scan_handle cnt                       Allocated to registers ;size:1
                                           ;@adc_scan_handle need_charge_cnt           Allocated to registers ;size:1
                                           ;@end Allocation info for local variables in function 'adc_scan_handle';
                                           ;@Allocation info for local variables in function 'turn_dir_scan_handle'
                                           ;@end Allocation info for local variables in function 'turn_dir_scan_handle';
                                           ;@Allocation info for local variables in function 'shutdown_scan_handle'
                                           ;@end Allocation info for local variables in function 'shutdown_scan_handle';
                                           ;@Allocation info for local variables in function 'low_power_scan_handle'
                                           ;@end Allocation info for local variables in function 'low_power_scan_handle';
                                           ;@Allocation info for local variables in function 'main'
                                           ;@end Allocation info for local variables in function 'main';
                                           ;@Allocation info for local variables in function 'int_isr'
                                           ;@int_isr __1ms_cnt                 Allocated to registers ;size:1
                                           ;@int_isr key_scan_cnt              Allocated to registers ;size:1
                                           ;@int_isr low_bat_cnt               Allocated to registers ;size:2
                                           ;@int_isr shut_down_bat_cnt         Allocated to registers ;size:2
                                           ;@int_isr update_current_time_cnt   Allocated to registers ;size:2
                                           ;@end Allocation info for local variables in function 'int_isr';
                                           ;@Allocation info for local variables in function 'int_isr'
                                           ;@int_isr __1ms_cnt                 Allocated to registers ;size:1
                                           ;@int_isr key_scan_cnt              Allocated to registers ;size:1
                                           ;@int_isr low_bat_cnt               Allocated to registers ;size:2
                                           ;@int_isr shut_down_bat_cnt         Allocated to registers ;size:2
                                           ;@int_isr update_current_time_cnt   Allocated to registers ;size:2
                                           ;@end Allocation info for local variables in function 'int_isr';
                                           
                                           ;--------------------------------------------------------
                                           ; overlayable items in internal ram 
                                           ;--------------------------------------------------------
                                           ;	udata_ovr
                                           ;--------------------------------------------------------
                                           ; reset vector 
                                           ;--------------------------------------------------------
                                           STARTUP	code 0x0000
000000   a0b6     goto    0xb6             	goto	_main
                                           ;--------------------------------------------------------
                                           ; interrupt and initialization code
                                           ;--------------------------------------------------------
                                           c_interrupt	code	0x8
                                           __sdcc_interrupt
                                           ;***
                                           ;  pBlock Stats: dbName = I
                                           ;***
                                           ;entry:  _int_isr	;Function start
                                           ; 0 exit points
                                           ;functions called:
                                           ;   _key_scan
                                           ;   _key_scan
                                           ;2 compiler assigned registers:
                                           ;   r0x1063
                                           ;   r0x1064
                                           ;; Starting pCode block
                                           _int_isr	;Function start
                                           ; 0 exit points
                                           ;	.line	1303; "MC32P7351.c"	__endasm;
                                           	;
000008   568b     movra   0x8b             	movra	_abuf;
000009   4587     swapar  0x187            	swapar	_PFLAG;
00000a   568c     movra   0x8c             	movra	_statusbuf;
                                           	
                                           ;	.line	1310; "MC32P7351.c"	if (T3IF & T3IE)
00000b   7620     clrr    0x20             	CLRR	r0x1063
00000c   ff8b     jbclr   0x18b, 0x7       	JBCLR	_INTFbits,7
00000d   6620     incr    0x20             	INCR	r0x1063
00000e   7621     clrr    0x21             	CLRR	r0x1064
00000f   ff8a     jbclr   0x18a, 0x7       	JBCLR	_INTEbits,7
000010   6621     incr    0x21             	INCR	r0x1064
000011   5821     movar   0x21             	MOVAR	r0x1064
000012   7a20     andra   0x20             	ANDRA	r0x1063
000013   3c00     movai   0                	MOVAI	0x00
000014   5c20     orar    0x20             	ORAR	r0x1063
000015   f587     jbclr   0x187, 0x2       	JBCLR	PFLAG,2
000016   a0b1     goto    0xb1             	GOTO	_01030_DS_
                                           ;	.line	1314; "MC32P7351.c"	__1ms_cnt++;
000017   662a     incr    0x2a             	INCR	_int_isr___1ms_cnt_196608_238
                                           ;;unsigned compare: left < lit(0xA=10), size=1
                                           ;	.line	1315; "MC32P7351.c"	if (__1ms_cnt >= 10)
000018   3c0a     movai   0xa              	MOVAI	0x0a
000019   482a     rsubar  0x2a             	RSUBAR	_int_isr___1ms_cnt_196608_238
00001a   e187     jbset   0x187, 0         	JBSET	PFLAG,0
00001b   a06d     goto    0x6d             	GOTO	_01007_DS_
                                           ;;genSkipc:3291: created from rifx:013B5EFC
                                           ;	.line	1317; "MC32P7351.c"	__1ms_cnt = 0;
00001c   762a     clrr    0x2a             	CLRR	_int_isr___1ms_cnt_196608_238
                                           ;	.line	1321; "MC32P7351.c"	key_scan_cnt++;
00001d   662b     incr    0x2b             	INCR	_int_isr_key_scan_cnt_327680_240
                                           ;;unsigned compare: left < lit(0xA=10), size=1
                                           ;	.line	1322; "MC32P7351.c"	if (key_scan_cnt >= 10)
00001e   3c0a     movai   0xa              	MOVAI	0x0a
00001f   482b     rsubar  0x2b             	RSUBAR	_int_isr_key_scan_cnt_327680_240
000020   e187     jbset   0x187, 0         	JBSET	PFLAG,0
000021   a024     goto    0x24             	GOTO	_00988_DS_
                                           ;;genSkipc:3291: created from rifx:013B5EFC
                                           ;	.line	1324; "MC32P7351.c"	key_scan_cnt = 0;
000022   762b     clrr    0x2b             	CLRR	_int_isr_key_scan_cnt_327680_240
                                           ;	.line	1325; "MC32P7351.c"	key_scan();
000023   84ee     call    0x4ee            	CALL	_key_scan
                                           _00988_DS_
                                           ;	.line	1329; "MC32P7351.c"	if (FLAG_IS_DEVICE_OPEN)
000024   e08d     jbset   0x8d, 0          	JBSET	_flag1,0
000025   a034     goto    0x34             	GOTO	_00990_DS_
                                           ;	.line	1331; "MC32P7351.c"	turn_dir_ms_cnt++;  //  turn_dir_scan_handle() 
000026   6669     incr    0x69             	INCR	_turn_dir_ms_cnt
000027   f587     jbclr   0x187, 0x2       	JBCLR	PFLAG,2
000028   666a     incr    0x6a             	INCR	(_turn_dir_ms_cnt + 1)
000029   f587     jbclr   0x187, 0x2       	JBCLR	PFLAG,2
00002a   666b     incr    0x6b             	INCR	(_turn_dir_ms_cnt + 2)
00002b   f587     jbclr   0x187, 0x2       	JBCLR	PFLAG,2
00002c   666c     incr    0x6c             	INCR	(_turn_dir_ms_cnt + 3)
                                           ;	.line	1332; "MC32P7351.c"	shut_down_ms_cnt++; //  shutdown_scan_handle() 
00002d   666d     incr    0x6d             	INCR	_shut_down_ms_cnt
00002e   f587     jbclr   0x187, 0x2       	JBCLR	PFLAG,2
00002f   666e     incr    0x6e             	INCR	(_shut_down_ms_cnt + 1)
000030   f587     jbclr   0x187, 0x2       	JBCLR	PFLAG,2
000031   666f     incr    0x6f             	INCR	(_shut_down_ms_cnt + 2)
000032   f587     jbclr   0x187, 0x2       	JBCLR	PFLAG,2
000033   6670     incr    0x70             	INCR	(_shut_down_ms_cnt + 3)
                                           _00990_DS_
                                           ;	.line	1339; "MC32P7351.c"	if (flag_maybe_low_battery)
000034   e48f     jbset   0x8f, 0x2        	JBSET	_flag3,2
000035   a045     goto    0x45             	GOTO	_00994_DS_
                                           ;	.line	1341; "MC32P7351.c"	low_bat_cnt++;
000036   662c     incr    0x2c             	INCR	_int_isr_low_bat_cnt_327680_243
000037   f587     jbclr   0x187, 0x2       	JBCLR	PFLAG,2
000038   662d     incr    0x2d             	INCR	(_int_isr_low_bat_cnt_327680_243 + 1)
                                           ;;unsigned compare: left < lit(0x1388=5000), size=2
                                           ;	.line	1343; "MC32P7351.c"	if (low_bat_cnt >= 5000) // xx ms
000039   3c13     movai   0x13             	MOVAI	0x13
00003a   482d     rsubar  0x2d             	RSUBAR	(_int_isr_low_bat_cnt_327680_243 + 1)
00003b   e587     jbset   0x187, 0x2       	JBSET	PFLAG,2
00003c   a03f     goto    0x3f             	GOTO	_01111_DS_
00003d   3c88     movai   0x88             	MOVAI	0x88
00003e   482c     rsubar  0x2c             	RSUBAR	_int_isr_low_bat_cnt_327680_243
                                           _01111_DS_
00003f   e187     jbset   0x187, 0         	JBSET	PFLAG,0
000040   a047     goto    0x47             	GOTO	_00995_DS_
                                           ;;genSkipc:3291: created from rifx:013B5EFC
                                           ;	.line	1345; "MC32P7351.c"	low_bat_cnt = 0;
000041   762c     clrr    0x2c             	CLRR	_int_isr_low_bat_cnt_327680_243
000042   762d     clrr    0x2d             	CLRR	(_int_isr_low_bat_cnt_327680_243 + 1)
                                           ;	.line	1346; "MC32P7351.c"	flag_is_low_battery = 1;
000043   c48e     bset    0x8e, 0x2        	BSET	_flag2,2
000044   a047     goto    0x47             	GOTO	_00995_DS_
                                           _00994_DS_
                                           ;	.line	1351; "MC32P7351.c"	low_bat_cnt = 0;
000045   762c     clrr    0x2c             	CLRR	_int_isr_low_bat_cnt_327680_243
000046   762d     clrr    0x2d             	CLRR	(_int_isr_low_bat_cnt_327680_243 + 1)
                                           _00995_DS_
                                           ;	.line	1370; "MC32P7351.c"	if (flag_tim_scan_maybe_shut_down)
000047   e68f     jbset   0x8f, 0x3        	JBSET	_flag3,3
000048   a058     goto    0x58             	GOTO	_00999_DS_
                                           ;	.line	1372; "MC32P7351.c"	shut_down_bat_cnt++;
000049   662e     incr    0x2e             	INCR	_int_isr_shut_down_bat_cnt_327680_247
00004a   f587     jbclr   0x187, 0x2       	JBCLR	PFLAG,2
00004b   662f     incr    0x2f             	INCR	(_int_isr_shut_down_bat_cnt_327680_247 + 1)
                                           ;;unsigned compare: left < lit(0x3E8=1000), size=2
                                           ;	.line	1373; "MC32P7351.c"	if (shut_down_bat_cnt >= 1000) // xx ms
00004c   3c03     movai   0x3              	MOVAI	0x03
00004d   482f     rsubar  0x2f             	RSUBAR	(_int_isr_shut_down_bat_cnt_327680_247 + 1)
00004e   e587     jbset   0x187, 0x2       	JBSET	PFLAG,2
00004f   a052     goto    0x52             	GOTO	_01112_DS_
000050   3ce8     movai   0xe8             	MOVAI	0xe8
000051   482e     rsubar  0x2e             	RSUBAR	_int_isr_shut_down_bat_cnt_327680_247
                                           _01112_DS_
000052   e187     jbset   0x187, 0         	JBSET	PFLAG,0
000053   a05b     goto    0x5b             	GOTO	_01000_DS_
                                           ;;genSkipc:3291: created from rifx:013B5EFC
                                           ;	.line	1375; "MC32P7351.c"	shut_down_bat_cnt = 0;
000054   762e     clrr    0x2e             	CLRR	_int_isr_shut_down_bat_cnt_327680_247
000055   762f     clrr    0x2f             	CLRR	(_int_isr_shut_down_bat_cnt_327680_247 + 1)
                                           ;	.line	1376; "MC32P7351.c"	flag_is_needed_shut_down = 1;
000056   c88f     bset    0x8f, 0x4        	BSET	_flag3,4
000057   a05b     goto    0x5b             	GOTO	_01000_DS_
                                           _00999_DS_
                                           ;	.line	1381; "MC32P7351.c"	shut_down_bat_cnt = 0;
000058   762e     clrr    0x2e             	CLRR	_int_isr_shut_down_bat_cnt_327680_247
000059   762f     clrr    0x2f             	CLRR	(_int_isr_shut_down_bat_cnt_327680_247 + 1)
                                           ;	.line	1382; "MC32P7351.c"	flag_is_needed_shut_down = 0;
00005a   d88f     bclr    0x8f, 0x4        	BCLR	_flag3,4
                                           _01000_DS_
                                           ;	.line	1388; "MC32P7351.c"	if (FLAG_IS_IN_CHARGING)
00005b   e48d     jbset   0x8d, 0x2        	JBSET	_flag1,2
00005c   a06c     goto    0x6c             	GOTO	_01004_DS_
                                           ;	.line	1390; "MC32P7351.c"	update_current_time_cnt++;
00005d   6630     incr    0x30             	INCR	_int_isr_update_current_time_cnt_327680_251
00005e   f587     jbclr   0x187, 0x2       	JBCLR	PFLAG,2
00005f   6631     incr    0x31             	INCR	(_int_isr_update_current_time_cnt_327680_251 + 1)
                                           ;;unsigned compare: left < lit(0x1F4=500), size=2
                                           ;	.line	1391; "MC32P7351.c"	if (update_current_time_cnt >= 500)
000060   3c01     movai   0x1              	MOVAI	0x01
000061   4831     rsubar  0x31             	RSUBAR	(_int_isr_update_current_time_cnt_327680_251 + 1)
000062   e587     jbset   0x187, 0x2       	JBSET	PFLAG,2
000063   a066     goto    0x66             	GOTO	_01113_DS_
000064   3cf4     movai   0xf4             	MOVAI	0xf4
000065   4830     rsubar  0x30             	RSUBAR	_int_isr_update_current_time_cnt_327680_251
                                           _01113_DS_
000066   e187     jbset   0x187, 0         	JBSET	PFLAG,0
000067   a06d     goto    0x6d             	GOTO	_01007_DS_
                                           ;;genSkipc:3291: created from rifx:013B5EFC
                                           ;	.line	1393; "MC32P7351.c"	update_current_time_cnt = 0;
000068   7630     clrr    0x30             	CLRR	_int_isr_update_current_time_cnt_327680_251
000069   7631     clrr    0x31             	CLRR	(_int_isr_update_current_time_cnt_327680_251 + 1)
                                           ;	.line	1394; "MC32P7351.c"	flag_is_update_current = 1;
00006a   ca8f     bset    0x8f, 0x5        	BSET	_flag3,5
00006b   a06d     goto    0x6d             	GOTO	_01007_DS_
                                           _01004_DS_
                                           ;	.line	1399; "MC32P7351.c"	FLAG_IS_IN_CHARGING = 0;
00006c   d48d     bclr    0x8d, 0x2        	BCLR	_flag1,2
                                           _01007_DS_
                                           ;	.line	1407; "MC32P7351.c"	if (FLAG_IS_IN_CHARGING && 0 == FLAG_BAT_IS_FULL)
00006d   e48d     jbset   0x8d, 0x2        	JBSET	_flag1,2
00006e   a0b0     goto    0xb0             	GOTO	_01027_DS_
00006f   fa8d     jbclr   0x8d, 0x5        	JBCLR	_flag1,5
000070   a0b0     goto    0xb0             	GOTO	_01027_DS_
                                           ;	.line	1410; "MC32P7351.c"	if (pwm_counter < pwm_duty)
000071   5836     movar   0x36             	MOVAR	_pwm_duty
000072   5620     movra   0x20             	MOVRA	r0x1063
000073   7621     clrr    0x21             	CLRR	r0x1064
000074   3c00     movai   0                	MOVAI	0x00
000075   4834     rsubar  0x34             	RSUBAR	(_pwm_counter + 1)
000076   e587     jbset   0x187, 0x2       	JBSET	PFLAG,2
000077   a07a     goto    0x7a             	GOTO	_01114_DS_
000078   5820     movar   0x20             	MOVAR	r0x1063
000079   4833     rsubar  0x33             	RSUBAR	_pwm_counter
                                           _01114_DS_
00007a   f187     jbclr   0x187, 0         	JBCLR	PFLAG,0
00007b   a07f     goto    0x7f             	GOTO	_01009_DS_
                                           ;;genSkipc:3291: created from rifx:013B5EFC
                                           ;	.line	1412; "MC32P7351.c"	led_state = 1; // LED
00007c   3c01     movai   0x1              	MOVAI	0x01
00007d   5632     movra   0x32             	MOVRA	_led_state
00007e   a080     goto    0x80             	GOTO	_01010_DS_
                                           _01009_DS_
                                           ;	.line	1416; "MC32P7351.c"	led_state = 0; // LED
00007f   7632     clrr    0x32             	CLRR	_led_state
                                           _01010_DS_
                                           ;	.line	1420; "MC32P7351.c"	pwm_counter++;
000080   6633     incr    0x33             	INCR	_pwm_counter
000081   f587     jbclr   0x187, 0x2       	JBCLR	PFLAG,2
000082   6634     incr    0x34             	INCR	(_pwm_counter + 1)
                                           ;;unsigned compare: left < lit(0x64=100), size=2
                                           ;	.line	1421; "MC32P7351.c"	if (pwm_counter >= PWM_MAX_LEVEL)
000083   3c00     movai   0                	MOVAI	0x00
000084   4834     rsubar  0x34             	RSUBAR	(_pwm_counter + 1)
000085   e587     jbset   0x187, 0x2       	JBSET	PFLAG,2
000086   a089     goto    0x89             	GOTO	_01115_DS_
000087   3c64     movai   0x64             	MOVAI	0x64
000088   4833     rsubar  0x33             	RSUBAR	_pwm_counter
                                           _01115_DS_
000089   e187     jbset   0x187, 0         	JBSET	PFLAG,0
00008a   a08d     goto    0x8d             	GOTO	_01012_DS_
                                           ;;genSkipc:3291: created from rifx:013B5EFC
                                           ;	.line	1423; "MC32P7351.c"	pwm_counter = 0;
00008b   7633     clrr    0x33             	CLRR	_pwm_counter
00008c   7634     clrr    0x34             	CLRR	(_pwm_counter + 1)
                                           _01012_DS_
                                           ;	.line	1427; "MC32P7351.c"	breath_counter++;
00008d   6635     incr    0x35             	INCR	_breath_counter
                                           ;;unsigned compare: left < lit(0xC8=200), size=1
                                           ;	.line	1428; "MC32P7351.c"	if (breath_counter >= BREATH_PERIOD)
00008e   3cc8     movai   0xc8             	MOVAI	0xc8
00008f   4835     rsubar  0x35             	RSUBAR	_breath_counter
000090   e187     jbset   0x187, 0         	JBSET	PFLAG,0
000091   a0a9     goto    0xa9             	GOTO	_01022_DS_
                                           ;;genSkipc:3291: created from rifx:013B5EFC
                                           ;	.line	1430; "MC32P7351.c"	breath_counter = 0;
000092   7635     clrr    0x35             	CLRR	_breath_counter
                                           ;	.line	1433; "MC32P7351.c"	if (breath_direction == 0)
000093   3c00     movai   0                	MOVAI	0x00
000094   5c37     orar    0x37             	ORAR	_breath_direction
000095   e587     jbset   0x187, 0x2       	JBSET	PFLAG,2
000096   a0a1     goto    0xa1             	GOTO	_01019_DS_
                                           ;	.line	1436; "MC32P7351.c"	pwm_duty++;
000097   6636     incr    0x36             	INCR	_pwm_duty
                                           ;;unsigned compare: left < lit(0x64=100), size=1
                                           ;	.line	1437; "MC32P7351.c"	if (pwm_duty >= PWM_MAX_LEVEL)
000098   3c64     movai   0x64             	MOVAI	0x64
000099   4836     rsubar  0x36             	RSUBAR	_pwm_duty
00009a   e187     jbset   0x187, 0         	JBSET	PFLAG,0
00009b   a0a9     goto    0xa9             	GOTO	_01022_DS_
                                           ;;genSkipc:3291: created from rifx:013B5EFC
                                           ;	.line	1439; "MC32P7351.c"	pwm_duty = PWM_MAX_LEVEL;
00009c   3c64     movai   0x64             	MOVAI	0x64
00009d   5636     movra   0x36             	MOVRA	_pwm_duty
                                           ;	.line	1440; "MC32P7351.c"	breath_direction = 1; // 
00009e   3c01     movai   0x1              	MOVAI	0x01
00009f   5637     movra   0x37             	MOVRA	_breath_direction
0000a0   a0a9     goto    0xa9             	GOTO	_01022_DS_
                                           _01019_DS_
                                           ;	.line	1446; "MC32P7351.c"	if (pwm_duty > 0)
0000a1   3c00     movai   0                	MOVAI	0x00
0000a2   5c36     orar    0x36             	ORAR	_pwm_duty
0000a3   f587     jbclr   0x187, 0x2       	JBCLR	PFLAG,2
0000a4   a0a7     goto    0xa7             	GOTO	_01016_DS_
                                           ;	.line	1448; "MC32P7351.c"	pwm_duty--;
0000a5   6e36     decr    0x36             	DECR	_pwm_duty
0000a6   a0a9     goto    0xa9             	GOTO	_01022_DS_
                                           _01016_DS_
                                           ;	.line	1452; "MC32P7351.c"	pwm_duty = 0;
0000a7   7636     clrr    0x36             	CLRR	_pwm_duty
                                           ;	.line	1453; "MC32P7351.c"	breath_direction = 0; // 
0000a8   7637     clrr    0x37             	CLRR	_breath_direction
                                           _01022_DS_
                                           ;	.line	1460; "MC32P7351.c"	if (led_state)
0000a9   3c00     movai   0                	MOVAI	0x00
0000aa   5c32     orar    0x32             	ORAR	_led_state
0000ab   f587     jbclr   0x187, 0x2       	JBCLR	PFLAG,2
0000ac   a0af     goto    0xaf             	GOTO	_01024_DS_
                                           ;	.line	1462; "MC32P7351.c"	LED_CHARGING_PIN = LED_ON;
0000ad   d990     bclr    0x190, 0x4       	BCLR	_IOP0bits,4
0000ae   a0b0     goto    0xb0             	GOTO	_01027_DS_
                                           _01024_DS_
                                           ;	.line	1466; "MC32P7351.c"	LED_CHARGING_PIN = LED_OFF;
0000af   c990     bset    0x190, 0x4       	BSET	_IOP0bits,4
                                           _01027_DS_
                                           ;	.line	1470; "MC32P7351.c"	T3IF = 0;
0000b0   df8b     bclr    0x18b, 0x7       	BCLR	_INTFbits,7
                                           _01030_DS_
                                           ;	.line	1478; "MC32P7351.c"	__endasm;
                                           	;
0000b1   448c     swapar  0x8c             	swapar	_statusbuf;
0000b2   5787     movra   0x187            	movra	_PFLAG;
0000b3   468b     swapr   0x8b             	swapr	_abuf;
0000b4   448b     swapar  0x8b             	swapar	_abuf;
                                           	
                                           END_OF_INTERRUPT
                                           ;	.line	1479; "MC32P7351.c"	}
0000b5   000d     retie                    	RETIE	
                                           
                                           ;--------------------------------------------------------
                                           ; code
                                           ;--------------------------------------------------------
                                           code_MC32P7351	code
                                           ;***
                                           ;  pBlock Stats: dbName = M
                                           ;***
                                           ;entry:  _main	;Function start
                                           ; 2 exit points
                                           ;has an exit
                                           ;functions called:
                                           ;   _Sys_Init
                                           ;   _delay_ms
                                           ;   _adc_sel_pin
                                           ;   _adc_get_val
                                           ;   _key_event_handle
                                           ;   _adc_scan_handle
                                           ;   _turn_dir_scan_handle
                                           ;   _shutdown_scan_handle
                                           ;   __mullong
                                           ;   __divulong
                                           ;   __mullong
                                           ;   __mullong
                                           ;   __divulong
                                           ;   __divulong
                                           ;   _delay_ms
                                           ;   _delay_ms
                                           ;   _key_event_handle
                                           ;   _delay_ms
                                           ;   _key_event_handle
                                           ;   _delay_ms
                                           ;   _low_power_scan_handle
                                           ;   _Sys_Init
                                           ;   _delay_ms
                                           ;   _adc_sel_pin
                                           ;   _adc_get_val
                                           ;   _key_event_handle
                                           ;   _adc_scan_handle
                                           ;   _turn_dir_scan_handle
                                           ;   _shutdown_scan_handle
                                           ;   __mullong
                                           ;   __divulong
                                           ;   __mullong
                                           ;   __mullong
                                           ;   __divulong
                                           ;   __divulong
                                           ;   _delay_ms
                                           ;   _delay_ms
                                           ;   _key_event_handle
                                           ;   _delay_ms
                                           ;   _key_event_handle
                                           ;   _delay_ms
                                           ;   _low_power_scan_handle
                                           ;17 compiler assigned registers:
                                           ;   STK00
                                           ;   r0x1059
                                           ;   r0x105A
                                           ;   STK06
                                           ;   STK05
                                           ;   STK04
                                           ;   STK03
                                           ;   STK02
                                           ;   STK01
                                           ;   r0x105B
                                           ;   r0x105C
                                           ;   r0x105D
                                           ;   r0x105E
                                           ;   r0x105F
                                           ;   r0x1060
                                           ;   r0x1061
                                           ;   r0x1062
                                           ;; Starting pCode block
                                           _main	;Function start
                                           ; 2 exit points
                                           ;	.line	983; "MC32P7351.c"	Sys_Init();
0000b6   8559     call    0x559            	CALL	_Sys_Init
                                           ;	.line	985; "MC32P7351.c"	delay_ms(1); // 
0000b7   3c01     movai   0x1              	MOVAI	0x01
0000b8   5606     movra   0x6              	MOVRA	STK00
0000b9   3c00     movai   0                	MOVAI	0x00
0000ba   8680     call    0x680            	CALL	_delay_ms
                                           ;	.line	990; "MC32P7351.c"	PWM2EC = 1; // pwm
0000bb   cda0     bset    0x1a0, 0x6       	BSET	_T2CRbits,6
                                           ;	.line	991; "MC32P7351.c"	T2DATA = 100;
0000bc   3c64     movai   0x64             	MOVAI	0x64
0000bd   57a3     movra   0x1a3            	MOVRA	_T2DATA
                                           ;	.line	992; "MC32P7351.c"	adc_sel_pin(ADC_PIN_P02_AN1); // 
0000be   3c02     movai   0x2              	MOVAI	0x02
0000bf   8620     call    0x620            	CALL	_adc_sel_pin
                                           ;	.line	993; "MC32P7351.c"	for (i = 0; i < 10; i++)      // 55ms4.8ms
0000c0   7686     clrr    0x86             	CLRR	_i
                                           ;;unsigned compare: left < lit(0xA=10), size=1
                                           _00880_DS_
0000c1   3c0a     movai   0xa              	MOVAI	0x0a
0000c2   4886     rsubar  0x86             	RSUBAR	_i
0000c3   f187     jbclr   0x187, 0         	JBCLR	PFLAG,0
0000c4   a0d6     goto    0xd6             	GOTO	_00831_DS_
                                           ;;genSkipc:3291: created from rifx:013B5EFC
                                           ;	.line	995; "MC32P7351.c"	adc_val = adc_get_val();
0000c5   8583     call    0x583            	CALL	_adc_get_val
0000c6   567a     movra   0x7a             	MOVRA	(_adc_val + 1)
0000c7   5806     movar   0x6              	MOVAR	STK00
0000c8   5679     movra   0x79             	MOVRA	_adc_val
                                           ;;unsigned compare: left < lit(0xF52=3922), size=2
                                           ;	.line	996; "MC32P7351.c"	if (adc_val >= ADCDETECT_BAT_FULL + ADCDETECT_BAT_NULL_EX)
0000c9   3c0f     movai   0xf              	MOVAI	0x0f
0000ca   487a     rsubar  0x7a             	RSUBAR	(_adc_val + 1)
0000cb   e587     jbset   0x187, 0x2       	JBSET	PFLAG,2
0000cc   a0cf     goto    0xcf             	GOTO	_00974_DS_
0000cd   3c52     movai   0x52             	MOVAI	0x52
0000ce   4879     rsubar  0x79             	RSUBAR	_adc_val
                                           _00974_DS_
0000cf   e187     jbset   0x187, 0         	JBSET	PFLAG,0
0000d0   a0d4     goto    0xd4             	GOTO	_00881_DS_
                                           ;;genSkipc:3291: created from rifx:013B5EFC
                                           ;	.line	998; "MC32P7351.c"	flag_bat_is_empty = 1;
0000d1   3c01     movai   0x1              	MOVAI	0x01
0000d2   5688     movra   0x88             	MOVRA	_flag_bat_is_empty
                                           ;	.line	999; "MC32P7351.c"	FLAG_DURING_CHARGING_BAT_IS_NULL = 1; // 
0000d3   ce8d     bset    0x8d, 0x7        	BSET	_flag1,7
                                           _00881_DS_
                                           ;	.line	993; "MC32P7351.c"	for (i = 0; i < 10; i++)      // 55ms4.8ms
0000d4   6686     incr    0x86             	INCR	_i
0000d5   a0c1     goto    0xc1             	GOTO	_00880_DS_
                                           _00831_DS_
                                           ;	.line	1002; "MC32P7351.c"	PWM2EC = 0; // pwm
0000d6   dda0     bclr    0x1a0, 0x6       	BCLR	_T2CRbits,6
                                           ;	.line	1003; "MC32P7351.c"	T2DATA = 0;
0000d7   77a3     clrr    0x1a3            	CLRR	_T2DATA
                                           _00877_DS_
                                           ;	.line	1012; "MC32P7351.c"	key_event_handle(); // 
0000d8   8483     call    0x483            	CALL	_key_event_handle
                                           ;	.line	1013; "MC32P7351.c"	adc_scan_handle();  // (89ms)
0000d9   8368     call    0x368            	CALL	_adc_scan_handle
                                           ;	.line	1015; "MC32P7351.c"	turn_dir_scan_handle();
0000da   8338     call    0x338            	CALL	_turn_dir_scan_handle
                                           ;	.line	1016; "MC32P7351.c"	shutdown_scan_handle(); // 
0000db   8317     call    0x317            	CALL	_shutdown_scan_handle
                                           ;	.line	1020; "MC32P7351.c"	if (FLAG_IS_IN_CHARGING)
0000dc   e48d     jbset   0x8d, 0x2        	JBSET	_flag1,2
0000dd   a2af     goto    0x2af            	GOTO	_00861_DS_
                                           ;	.line	1022; "MC32P7351.c"	last_pwm_val = T2DATA;      // PWM
0000de   59a3     movar   0x1a3            	MOVAR	_T2DATA
0000df   567d     movra   0x7d             	MOVRA	_last_pwm_val
0000e0   767e     clrr    0x7e             	CLRR	(_last_pwm_val + 1)
                                           ;	.line	1023; "MC32P7351.c"	max_pwm_val = (T2LOAD + 1); // PWM
0000e1   59a2     movar   0x1a2            	MOVAR	_T2LOAD
0000e2   5616     movra   0x16             	MOVRA	r0x1059
0000e3   7617     clrr    0x17             	CLRR	r0x105A
0000e4   3c01     movai   0x1              	MOVAI	0x01
0000e5   7c16     addar   0x16             	ADDAR	r0x1059
0000e6   5675     movra   0x75             	MOVRA	_max_pwm_val
0000e7   7676     clrr    0x76             	CLRR	(_max_pwm_val + 1)
0000e8   5276     rlr     0x76             	RLR	(_max_pwm_val + 1)
0000e9   3c00     movai   0                	MOVAI	0x00
0000ea   7e76     addra   0x76             	ADDRA	(_max_pwm_val + 1)
0000eb   7677     clrr    0x77             	CLRR	(_max_pwm_val + 2)
0000ec   7678     clrr    0x78             	CLRR	(_max_pwm_val + 3)
                                           ;;swapping arguments (AOP_TYPEs 1/3)
                                           ;;unsigned compare: left >= lit(0xB16=2838), size=4
                                           ;	.line	1048; "MC32P7351.c"	if (adc_bat_val <= 2837) //  6.5V
0000ed   3c00     movai   0                	MOVAI	0x00
0000ee   4874     rsubar  0x74             	RSUBAR	(_adc_bat_val + 3)
0000ef   e587     jbset   0x187, 0x2       	JBSET	PFLAG,2
0000f0   a0fb     goto    0xfb             	GOTO	_00975_DS_
0000f1   3c00     movai   0                	MOVAI	0x00
0000f2   4873     rsubar  0x73             	RSUBAR	(_adc_bat_val + 2)
0000f3   e587     jbset   0x187, 0x2       	JBSET	PFLAG,2
0000f4   a0fb     goto    0xfb             	GOTO	_00975_DS_
0000f5   3c0b     movai   0xb              	MOVAI	0x0b
0000f6   4872     rsubar  0x72             	RSUBAR	(_adc_bat_val + 1)
0000f7   e587     jbset   0x187, 0x2       	JBSET	PFLAG,2
0000f8   a0fb     goto    0xfb             	GOTO	_00975_DS_
0000f9   3c16     movai   0x16             	MOVAI	0x16
0000fa   4871     rsubar  0x71             	RSUBAR	_adc_bat_val
                                           _00975_DS_
0000fb   f187     jbclr   0x187, 0         	JBCLR	PFLAG,0
0000fc   a109     goto    0x109            	GOTO	_00842_DS_
                                           ;;genSkipc:3291: created from rifx:013B5EFC
                                           ;	.line	1050; "MC32P7351.c"	tmp_bat_val = (adc_bat_val + 37);
0000fd   5871     movar   0x71             	MOVAR	_adc_bat_val
0000fe   5616     movra   0x16             	MOVRA	r0x1059
0000ff   5872     movar   0x72             	MOVAR	(_adc_bat_val + 1)
000100   5617     movra   0x17             	MOVRA	r0x105A
000101   3c25     movai   0x25             	MOVAI	0x25
000102   7c16     addar   0x16             	ADDAR	r0x1059
000103   5681     movra   0x81             	MOVRA	_tmp_bat_val
000104   7682     clrr    0x82             	CLRR	(_tmp_bat_val + 1)
000105   5282     rlr     0x82             	RLR	(_tmp_bat_val + 1)
000106   5817     movar   0x17             	MOVAR	r0x105A
000107   7e82     addra   0x82             	ADDRA	(_tmp_bat_val + 1)
000108   a19b     goto    0x19b            	GOTO	_00843_DS_
                                           ;;swapping arguments (AOP_TYPEs 1/3)
                                           ;;unsigned compare: left >= lit(0xBF1=3057), size=4
                                           _00842_DS_
                                           ;	.line	1052; "MC32P7351.c"	else if (adc_bat_val <= 3056) //  7.0V
000109   3c00     movai   0                	MOVAI	0x00
00010a   4874     rsubar  0x74             	RSUBAR	(_adc_bat_val + 3)
00010b   e587     jbset   0x187, 0x2       	JBSET	PFLAG,2
00010c   a117     goto    0x117            	GOTO	_00976_DS_
00010d   3c00     movai   0                	MOVAI	0x00
00010e   4873     rsubar  0x73             	RSUBAR	(_adc_bat_val + 2)
00010f   e587     jbset   0x187, 0x2       	JBSET	PFLAG,2
000110   a117     goto    0x117            	GOTO	_00976_DS_
000111   3c0b     movai   0xb              	MOVAI	0x0b
000112   4872     rsubar  0x72             	RSUBAR	(_adc_bat_val + 1)
000113   e587     jbset   0x187, 0x2       	JBSET	PFLAG,2
000114   a117     goto    0x117            	GOTO	_00976_DS_
000115   3cf1     movai   0xf1             	MOVAI	0xf1
000116   4871     rsubar  0x71             	RSUBAR	_adc_bat_val
                                           _00976_DS_
000117   f187     jbclr   0x187, 0         	JBCLR	PFLAG,0
000118   a125     goto    0x125            	GOTO	_00839_DS_
                                           ;;genSkipc:3291: created from rifx:013B5EFC
                                           ;	.line	1055; "MC32P7351.c"	tmp_bat_val = (adc_bat_val + 27);
000119   5871     movar   0x71             	MOVAR	_adc_bat_val
00011a   5616     movra   0x16             	MOVRA	r0x1059
00011b   5872     movar   0x72             	MOVAR	(_adc_bat_val + 1)
00011c   5617     movra   0x17             	MOVRA	r0x105A
00011d   3c1b     movai   0x1b             	MOVAI	0x1b
00011e   7c16     addar   0x16             	ADDAR	r0x1059
00011f   5681     movra   0x81             	MOVRA	_tmp_bat_val
000120   7682     clrr    0x82             	CLRR	(_tmp_bat_val + 1)
000121   5282     rlr     0x82             	RLR	(_tmp_bat_val + 1)
000122   5817     movar   0x17             	MOVAR	r0x105A
000123   7e82     addra   0x82             	ADDRA	(_tmp_bat_val + 1)
000124   a19b     goto    0x19b            	GOTO	_00843_DS_
                                           ;;swapping arguments (AOP_TYPEs 1/3)
                                           ;;unsigned compare: left >= lit(0xC75=3189), size=4
                                           _00839_DS_
                                           ;	.line	1057; "MC32P7351.c"	else if (adc_bat_val <= 3188) //  7.3V
000125   3c00     movai   0                	MOVAI	0x00
000126   4874     rsubar  0x74             	RSUBAR	(_adc_bat_val + 3)
000127   e587     jbset   0x187, 0x2       	JBSET	PFLAG,2
000128   a133     goto    0x133            	GOTO	_00977_DS_
000129   3c00     movai   0                	MOVAI	0x00
00012a   4873     rsubar  0x73             	RSUBAR	(_adc_bat_val + 2)
00012b   e587     jbset   0x187, 0x2       	JBSET	PFLAG,2
00012c   a133     goto    0x133            	GOTO	_00977_DS_
00012d   3c0c     movai   0xc              	MOVAI	0x0c
00012e   4872     rsubar  0x72             	RSUBAR	(_adc_bat_val + 1)
00012f   e587     jbset   0x187, 0x2       	JBSET	PFLAG,2
000130   a133     goto    0x133            	GOTO	_00977_DS_
000131   3c75     movai   0x75             	MOVAI	0x75
000132   4871     rsubar  0x71             	RSUBAR	_adc_bat_val
                                           _00977_DS_
000133   f187     jbclr   0x187, 0         	JBCLR	PFLAG,0
000134   a141     goto    0x141            	GOTO	_00836_DS_
                                           ;;genSkipc:3291: created from rifx:013B5EFC
                                           ;	.line	1060; "MC32P7351.c"	tmp_bat_val = (adc_bat_val + 16);
000135   5871     movar   0x71             	MOVAR	_adc_bat_val
000136   5616     movra   0x16             	MOVRA	r0x1059
000137   5872     movar   0x72             	MOVAR	(_adc_bat_val + 1)
000138   5617     movra   0x17             	MOVRA	r0x105A
000139   3c10     movai   0x10             	MOVAI	0x10
00013a   7c16     addar   0x16             	ADDAR	r0x1059
00013b   5681     movra   0x81             	MOVRA	_tmp_bat_val
00013c   7682     clrr    0x82             	CLRR	(_tmp_bat_val + 1)
00013d   5282     rlr     0x82             	RLR	(_tmp_bat_val + 1)
00013e   5817     movar   0x17             	MOVAR	r0x105A
00013f   7e82     addra   0x82             	ADDRA	(_tmp_bat_val + 1)
000140   a19b     goto    0x19b            	GOTO	_00843_DS_
                                           ;;swapping arguments (AOP_TYPEs 1/3)
                                           ;;unsigned compare: left >= lit(0xCFF=3327), size=4
                                           _00836_DS_
                                           ;	.line	1062; "MC32P7351.c"	else if (adc_bat_val <= 3326) //  7.62V
000141   3c00     movai   0                	MOVAI	0x00
000142   4874     rsubar  0x74             	RSUBAR	(_adc_bat_val + 3)
000143   e587     jbset   0x187, 0x2       	JBSET	PFLAG,2
000144   a14f     goto    0x14f            	GOTO	_00978_DS_
000145   3c00     movai   0                	MOVAI	0x00
000146   4873     rsubar  0x73             	RSUBAR	(_adc_bat_val + 2)
000147   e587     jbset   0x187, 0x2       	JBSET	PFLAG,2
000148   a14f     goto    0x14f            	GOTO	_00978_DS_
000149   3c0c     movai   0xc              	MOVAI	0x0c
00014a   4872     rsubar  0x72             	RSUBAR	(_adc_bat_val + 1)
00014b   e587     jbset   0x187, 0x2       	JBSET	PFLAG,2
00014c   a14f     goto    0x14f            	GOTO	_00978_DS_
00014d   3cff     movai   0xff             	MOVAI	0xff
00014e   4871     rsubar  0x71             	RSUBAR	_adc_bat_val
                                           _00978_DS_
00014f   f187     jbclr   0x187, 0         	JBCLR	PFLAG,0
000150   a156     goto    0x156            	GOTO	_00833_DS_
                                           ;;genSkipc:3291: created from rifx:013B5EFC
                                           ;	.line	1065; "MC32P7351.c"	tmp_bat_val = (adc_bat_val + 0);
000151   5871     movar   0x71             	MOVAR	_adc_bat_val
000152   5681     movra   0x81             	MOVRA	_tmp_bat_val
000153   5872     movar   0x72             	MOVAR	(_adc_bat_val + 1)
000154   5682     movra   0x82             	MOVRA	(_tmp_bat_val + 1)
000155   a19b     goto    0x19b            	GOTO	_00843_DS_
                                           _00833_DS_
                                           ;	.line	1078; "MC32P7351.c"	tmp_bat_val = (u32)adc_bat_val - ((u32)adc_bat_val * 157 / 1000 - 522);
000156   5871     movar   0x71             	MOVAR	_adc_bat_val
000157   5600     movra   0                	MOVRA	STK06
000158   5872     movar   0x72             	MOVAR	(_adc_bat_val + 1)
000159   5601     movra   0x1              	MOVRA	STK05
00015a   5873     movar   0x73             	MOVAR	(_adc_bat_val + 2)
00015b   5602     movra   0x2              	MOVRA	STK04
00015c   5874     movar   0x74             	MOVAR	(_adc_bat_val + 3)
00015d   5603     movra   0x3              	MOVRA	STK03
00015e   3c9d     movai   0x9d             	MOVAI	0x9d
00015f   5604     movra   0x4              	MOVRA	STK02
000160   3c00     movai   0                	MOVAI	0x00
000161   5605     movra   0x5              	MOVRA	STK01
000162   3c00     movai   0                	MOVAI	0x00
000163   5606     movra   0x6              	MOVRA	STK00
000164   3c00     movai   0                	MOVAI	0x00
000165   86a0     call    0x6a0            	CALL	__mullong
000166   5619     movra   0x19             	MOVRA	r0x105B
000167   5806     movar   0x6              	MOVAR	STK00
000168   5618     movra   0x18             	MOVRA	r0x105C
000169   5805     movar   0x5              	MOVAR	STK01
00016a   5617     movra   0x17             	MOVRA	r0x105A
00016b   5804     movar   0x4              	MOVAR	STK02
00016c   5616     movra   0x16             	MOVRA	r0x1059
00016d   3ce8     movai   0xe8             	MOVAI	0xe8
00016e   5600     movra   0                	MOVRA	STK06
00016f   3c03     movai   0x3              	MOVAI	0x03
000170   5601     movra   0x1              	MOVRA	STK05
000171   3c00     movai   0                	MOVAI	0x00
000172   5602     movra   0x2              	MOVRA	STK04
000173   3c00     movai   0                	MOVAI	0x00
000174   5603     movra   0x3              	MOVRA	STK03
000175   5816     movar   0x16             	MOVAR	r0x1059
000176   5604     movra   0x4              	MOVRA	STK02
000177   5817     movar   0x17             	MOVAR	r0x105A
000178   5605     movra   0x5              	MOVRA	STK01
000179   5818     movar   0x18             	MOVAR	r0x105C
00017a   5606     movra   0x6              	MOVRA	STK00
00017b   5819     movar   0x19             	MOVAR	r0x105B
00017c   872b     call    0x72b            	CALL	__divulong
00017d   5619     movra   0x19             	MOVRA	r0x105B
00017e   5806     movar   0x6              	MOVAR	STK00
00017f   5618     movra   0x18             	MOVRA	r0x105C
000180   5805     movar   0x5              	MOVAR	STK01
000181   561b     movra   0x1b             	MOVRA	r0x105E
000182   5617     movra   0x17             	MOVRA	r0x105A
000183   5804     movar   0x4              	MOVAR	STK02
000184   561a     movra   0x1a             	MOVRA	r0x105D
000185   5616     movra   0x16             	MOVRA	r0x1059
                                           ;;124	MOVAR	r0x1059
                                           ;;125	MOVAR	r0x105A
000186   3cf6     movai   0xf6             	MOVAI	0xf6
000187   7c1a     addar   0x1a             	ADDAR	r0x105D
000188   5616     movra   0x16             	MOVRA	r0x1059
000189   3cfd     movai   0xfd             	MOVAI	0xfd
00018a   5617     movra   0x17             	MOVRA	r0x105A
00018b   581b     movar   0x1b             	MOVAR	r0x105E
00018c   f187     jbclr   0x187, 0         	JBCLR	PFLAG,0
00018d   601b     jzar    0x1b             	JZAR	r0x105E
00018e   7e17     addra   0x17             	ADDRA	r0x105A
00018f   5871     movar   0x71             	MOVAR	_adc_bat_val
000190   561a     movra   0x1a             	MOVRA	r0x105D
000191   5872     movar   0x72             	MOVAR	(_adc_bat_val + 1)
000192   561b     movra   0x1b             	MOVRA	r0x105E
000193   5816     movar   0x16             	MOVAR	r0x1059
000194   481a     rsubar  0x1a             	RSUBAR	r0x105D
000195   5681     movra   0x81             	MOVRA	_tmp_bat_val
000196   5817     movar   0x17             	MOVAR	r0x105A
000197   e187     jbset   0x187, 0         	JBSET	PFLAG,0
000198   6417     incar   0x17             	INCAR	r0x105A
000199   481b     rsubar  0x1b             	RSUBAR	r0x105E
00019a   5682     movra   0x82             	MOVRA	(_tmp_bat_val + 1)
                                           _00843_DS_
                                           ;	.line	1102; "MC32P7351.c"	tmp_bat_val += 60; // 1.1
00019b   3c3c     movai   0x3c             	MOVAI	0x3c
00019c   7e81     addra   0x81             	ADDRA	_tmp_bat_val
00019d   f187     jbclr   0x187, 0         	JBCLR	PFLAG,0
00019e   6682     incr    0x82             	INCR	(_tmp_bat_val + 1)
                                           ;	.line	1158; "MC32P7351.c"	tmp_val = max_pwm_val - (adc_charging_val * max_pwm_val * 94 / 147) / tmp_bat_val;
00019f   587b     movar   0x7b             	MOVAR	_adc_charging_val
0001a0   5616     movra   0x16             	MOVRA	r0x1059
0001a1   587c     movar   0x7c             	MOVAR	(_adc_charging_val + 1)
0001a2   5617     movra   0x17             	MOVRA	r0x105A
0001a3   761a     clrr    0x1a             	CLRR	r0x105D
0001a4   761b     clrr    0x1b             	CLRR	r0x105E
0001a5   5875     movar   0x75             	MOVAR	_max_pwm_val
0001a6   5600     movra   0                	MOVRA	STK06
0001a7   5876     movar   0x76             	MOVAR	(_max_pwm_val + 1)
0001a8   5601     movra   0x1              	MOVRA	STK05
0001a9   5877     movar   0x77             	MOVAR	(_max_pwm_val + 2)
0001aa   5602     movra   0x2              	MOVRA	STK04
0001ab   5878     movar   0x78             	MOVAR	(_max_pwm_val + 3)
0001ac   5603     movra   0x3              	MOVRA	STK03
0001ad   5816     movar   0x16             	MOVAR	r0x1059
0001ae   5604     movra   0x4              	MOVRA	STK02
0001af   5817     movar   0x17             	MOVAR	r0x105A
0001b0   5605     movra   0x5              	MOVRA	STK01
0001b1   3c00     movai   0                	MOVAI	0x00
0001b2   5606     movra   0x6              	MOVRA	STK00
0001b3   3c00     movai   0                	MOVAI	0x00
0001b4   86a0     call    0x6a0            	CALL	__mullong
0001b5   561b     movra   0x1b             	MOVRA	r0x105E
0001b6   5806     movar   0x6              	MOVAR	STK00
0001b7   561a     movra   0x1a             	MOVRA	r0x105D
0001b8   5805     movar   0x5              	MOVAR	STK01
0001b9   5617     movra   0x17             	MOVRA	r0x105A
0001ba   5804     movar   0x4              	MOVAR	STK02
0001bb   5616     movra   0x16             	MOVRA	r0x1059
0001bc   5816     movar   0x16             	MOVAR	r0x1059
0001bd   5600     movra   0                	MOVRA	STK06
0001be   5817     movar   0x17             	MOVAR	r0x105A
0001bf   5601     movra   0x1              	MOVRA	STK05
0001c0   581a     movar   0x1a             	MOVAR	r0x105D
0001c1   5602     movra   0x2              	MOVRA	STK04
0001c2   581b     movar   0x1b             	MOVAR	r0x105E
0001c3   5603     movra   0x3              	MOVRA	STK03
0001c4   3c5e     movai   0x5e             	MOVAI	0x5e
0001c5   5604     movra   0x4              	MOVRA	STK02
0001c6   3c00     movai   0                	MOVAI	0x00
0001c7   5605     movra   0x5              	MOVRA	STK01
0001c8   3c00     movai   0                	MOVAI	0x00
0001c9   5606     movra   0x6              	MOVRA	STK00
0001ca   3c00     movai   0                	MOVAI	0x00
0001cb   86a0     call    0x6a0            	CALL	__mullong
0001cc   561b     movra   0x1b             	MOVRA	r0x105E
0001cd   5806     movar   0x6              	MOVAR	STK00
0001ce   561a     movra   0x1a             	MOVRA	r0x105D
0001cf   5805     movar   0x5              	MOVAR	STK01
0001d0   5617     movra   0x17             	MOVRA	r0x105A
0001d1   5804     movar   0x4              	MOVAR	STK02
0001d2   5616     movra   0x16             	MOVRA	r0x1059
0001d3   3c93     movai   0x93             	MOVAI	0x93
0001d4   5600     movra   0                	MOVRA	STK06
0001d5   3c00     movai   0                	MOVAI	0x00
0001d6   5601     movra   0x1              	MOVRA	STK05
0001d7   3c00     movai   0                	MOVAI	0x00
0001d8   5602     movra   0x2              	MOVRA	STK04
0001d9   3c00     movai   0                	MOVAI	0x00
0001da   5603     movra   0x3              	MOVRA	STK03
0001db   5816     movar   0x16             	MOVAR	r0x1059
0001dc   5604     movra   0x4              	MOVRA	STK02
0001dd   5817     movar   0x17             	MOVAR	r0x105A
0001de   5605     movra   0x5              	MOVRA	STK01
0001df   581a     movar   0x1a             	MOVAR	r0x105D
0001e0   5606     movra   0x6              	MOVRA	STK00
0001e1   581b     movar   0x1b             	MOVAR	r0x105E
0001e2   872b     call    0x72b            	CALL	__divulong
0001e3   561b     movra   0x1b             	MOVRA	r0x105E
0001e4   5806     movar   0x6              	MOVAR	STK00
0001e5   561a     movra   0x1a             	MOVRA	r0x105D
0001e6   5805     movar   0x5              	MOVAR	STK01
0001e7   5617     movra   0x17             	MOVRA	r0x105A
0001e8   5804     movar   0x4              	MOVAR	STK02
0001e9   5616     movra   0x16             	MOVRA	r0x1059
0001ea   5881     movar   0x81             	MOVAR	_tmp_bat_val
0001eb   561c     movra   0x1c             	MOVRA	r0x105F
0001ec   5882     movar   0x82             	MOVAR	(_tmp_bat_val + 1)
0001ed   561d     movra   0x1d             	MOVRA	r0x1060
0001ee   761e     clrr    0x1e             	CLRR	r0x1061
0001ef   761f     clrr    0x1f             	CLRR	r0x1062
0001f0   581c     movar   0x1c             	MOVAR	r0x105F
0001f1   5600     movra   0                	MOVRA	STK06
0001f2   581d     movar   0x1d             	MOVAR	r0x1060
0001f3   5601     movra   0x1              	MOVRA	STK05
0001f4   3c00     movai   0                	MOVAI	0x00
0001f5   5602     movra   0x2              	MOVRA	STK04
0001f6   3c00     movai   0                	MOVAI	0x00
0001f7   5603     movra   0x3              	MOVRA	STK03
0001f8   5816     movar   0x16             	MOVAR	r0x1059
0001f9   5604     movra   0x4              	MOVRA	STK02
0001fa   5817     movar   0x17             	MOVAR	r0x105A
0001fb   5605     movra   0x5              	MOVRA	STK01
0001fc   581a     movar   0x1a             	MOVAR	r0x105D
0001fd   5606     movra   0x6              	MOVRA	STK00
0001fe   581b     movar   0x1b             	MOVAR	r0x105E
0001ff   872b     call    0x72b            	CALL	__divulong
000200   561b     movra   0x1b             	MOVRA	r0x105E
000201   5806     movar   0x6              	MOVAR	STK00
000202   561a     movra   0x1a             	MOVRA	r0x105D
000203   5805     movar   0x5              	MOVAR	STK01
000204   561f     movra   0x1f             	MOVRA	r0x1062
000205   5617     movra   0x17             	MOVRA	r0x105A
000206   5804     movar   0x4              	MOVAR	STK02
000207   561e     movra   0x1e             	MOVRA	r0x1061
000208   5616     movra   0x16             	MOVRA	r0x1059
000209   5875     movar   0x75             	MOVAR	_max_pwm_val
00020a   561c     movra   0x1c             	MOVRA	r0x105F
00020b   5876     movar   0x76             	MOVAR	(_max_pwm_val + 1)
00020c   561d     movra   0x1d             	MOVRA	r0x1060
                                           ;;121	MOVAR	r0x1059
                                           ;;122	MOVAR	r0x105A
00020d   581e     movar   0x1e             	MOVAR	r0x1061
00020e   481c     rsubar  0x1c             	RSUBAR	r0x105F
00020f   567f     movra   0x7f             	MOVRA	_tmp_val
000210   581f     movar   0x1f             	MOVAR	r0x1062
000211   e187     jbset   0x187, 0         	JBSET	PFLAG,0
000212   641f     incar   0x1f             	INCAR	r0x1062
000213   481d     rsubar  0x1d             	RSUBAR	r0x1060
000214   5680     movra   0x80             	MOVRA	(_tmp_val + 1)
                                           ;	.line	1160; "MC32P7351.c"	if (tmp_val >= max_pwm_val)
000215   587f     movar   0x7f             	MOVAR	_tmp_val
000216   5616     movra   0x16             	MOVRA	r0x1059
000217   5880     movar   0x80             	MOVAR	(_tmp_val + 1)
000218   5617     movra   0x17             	MOVRA	r0x105A
000219   761a     clrr    0x1a             	CLRR	r0x105D
00021a   761b     clrr    0x1b             	CLRR	r0x105E
00021b   5878     movar   0x78             	MOVAR	(_max_pwm_val + 3)
00021c   481b     rsubar  0x1b             	RSUBAR	r0x105E
00021d   e587     jbset   0x187, 0x2       	JBSET	PFLAG,2
00021e   a229     goto    0x229            	GOTO	_00979_DS_
00021f   5877     movar   0x77             	MOVAR	(_max_pwm_val + 2)
000220   481a     rsubar  0x1a             	RSUBAR	r0x105D
000221   e587     jbset   0x187, 0x2       	JBSET	PFLAG,2
000222   a229     goto    0x229            	GOTO	_00979_DS_
000223   5876     movar   0x76             	MOVAR	(_max_pwm_val + 1)
000224   4817     rsubar  0x17             	RSUBAR	r0x105A
000225   e587     jbset   0x187, 0x2       	JBSET	PFLAG,2
000226   a229     goto    0x229            	GOTO	_00979_DS_
000227   5875     movar   0x75             	MOVAR	_max_pwm_val
000228   4816     rsubar  0x16             	RSUBAR	r0x1059
                                           _00979_DS_
000229   e187     jbset   0x187, 0         	JBSET	PFLAG,0
00022a   a22d     goto    0x22d            	GOTO	_00845_DS_
                                           ;;genSkipc:3291: created from rifx:013B5EFC
                                           ;	.line	1163; "MC32P7351.c"	tmp_val = 0;
00022b   767f     clrr    0x7f             	CLRR	_tmp_val
00022c   7680     clrr    0x80             	CLRR	(_tmp_val + 1)
                                           _00845_DS_
                                           ;	.line	1167; "MC32P7351.c"	tmp_val_cnt++;
00022d   6687     incr    0x87             	INCR	_tmp_val_cnt
                                           ;	.line	1168; "MC32P7351.c"	tmp_val_cnt &= 0x07;
00022e   3c07     movai   0x7              	MOVAI	0x07
00022f   7a87     andra   0x87             	ANDRA	_tmp_val_cnt
                                           ;	.line	1169; "MC32P7351.c"	tmp_val_l[tmp_val_cnt] = (tmp_val_l[tmp_val_cnt] + tmp_val) >> 1;
000230   d187     bclr    0x187, 0         	BCLR	PFLAG,0
000231   5087     rlar    0x87             	RLAR	_tmp_val_cnt
000232   5616     movra   0x16             	MOVRA	r0x1059
000233   5816     movar   0x16             	MOVAR	r0x1059
000234   3f49     addai   0x49             	ADDAI	(_tmp_val_l + 0)
000235   5616     movra   0x16             	MOVRA	r0x1059
000236   3c00     movai   0                	MOVAI	high (_tmp_val_l + 0)
000237   f187     jbclr   0x187, 0         	JBCLR	PFLAG,0
000238   3f01     addai   0x1              	ADDAI	0x01
000239   5617     movra   0x17             	MOVRA	r0x105A
00023a   d187     bclr    0x187, 0         	BCLR	PFLAG,0
00023b   5087     rlar    0x87             	RLAR	_tmp_val_cnt
00023c   561a     movra   0x1a             	MOVRA	r0x105D
00023d   581a     movar   0x1a             	MOVAR	r0x105D
00023e   3f49     addai   0x49             	ADDAI	(_tmp_val_l + 0)
00023f   561a     movra   0x1a             	MOVRA	r0x105D
000240   3c00     movai   0                	MOVAI	high (_tmp_val_l + 0)
000241   f187     jbclr   0x187, 0         	JBCLR	PFLAG,0
000242   3f01     addai   0x1              	ADDAI	0x01
000243   561b     movra   0x1b             	MOVRA	r0x105E
000244   581a     movar   0x1a             	MOVAR	r0x105D
000245   5784     movra   0x184            	MOVRA	FSR0
000246   581b     movar   0x1b             	MOVAR	r0x105E
000247   5785     movra   0x185            	MOVRA	FSR1
000248   5982     movar   0x182            	MOVAR	INDF2
000249   561c     movra   0x1c             	MOVRA	r0x105F
00024a   6784     incr    0x184            	INCR	FSR0
00024b   f587     jbclr   0x187, 0x2       	JBCLR	PFLAG,2
00024c   6785     incr    0x185            	INCR	FSR1
00024d   5982     movar   0x182            	MOVAR	INDF2
00024e   561b     movra   0x1b             	MOVRA	r0x105E
00024f   561d     movra   0x1d             	MOVRA	r0x1060
000250   587f     movar   0x7f             	MOVAR	_tmp_val
000251   7c1c     addar   0x1c             	ADDAR	r0x105F
000252   561a     movra   0x1a             	MOVRA	r0x105D
                                           ;;123	MOVAR	r0x1060
000253   5880     movar   0x80             	MOVAR	(_tmp_val + 1)
000254   f187     jbclr   0x187, 0         	JBCLR	PFLAG,0
000255   6080     jzar    0x80             	JZAR	(_tmp_val + 1)
000256   7e1b     addra   0x1b             	ADDRA	r0x105E
                                           ;;shiftRight_Left2ResultLit:5339: shCount=1, size=2, sign=0, same=0, offr=0
000257   d187     bclr    0x187, 0         	BCLR	PFLAG,0
000258   4c1b     rrar    0x1b             	RRAR	r0x105E
000259   561d     movra   0x1d             	MOVRA	r0x1060
00025a   4c1a     rrar    0x1a             	RRAR	r0x105D
00025b   561c     movra   0x1c             	MOVRA	r0x105F
00025c   5816     movar   0x16             	MOVAR	r0x1059
00025d   5784     movra   0x184            	MOVRA	FSR0
00025e   5817     movar   0x17             	MOVAR	r0x105A
00025f   5785     movra   0x185            	MOVRA	FSR1
000260   581c     movar   0x1c             	MOVAR	r0x105F
000261   5782     movra   0x182            	MOVRA	INDF2
000262   6784     incr    0x184            	INCR	FSR0
000263   f587     jbclr   0x187, 0x2       	JBCLR	PFLAG,2
000264   6785     incr    0x185            	INCR	FSR1
000265   581d     movar   0x1d             	MOVAR	r0x1060
000266   5782     movra   0x182            	MOVRA	INDF2
                                           ;	.line	1170; "MC32P7351.c"	tmp_val = 0;
000267   767f     clrr    0x7f             	CLRR	_tmp_val
000268   7680     clrr    0x80             	CLRR	(_tmp_val + 1)
                                           ;	.line	1171; "MC32P7351.c"	for (i = 0; i < 8; i++)
000269   7686     clrr    0x86             	CLRR	_i
                                           ;;unsigned compare: left < lit(0x8=8), size=1
                                           _00883_DS_
00026a   3c08     movai   0x8              	MOVAI	0x08
00026b   4886     rsubar  0x86             	RSUBAR	_i
00026c   f187     jbclr   0x187, 0         	JBCLR	PFLAG,0
00026d   a28b     goto    0x28b            	GOTO	_00846_DS_
                                           ;;genSkipc:3291: created from rifx:013B5EFC
                                           ;	.line	1173; "MC32P7351.c"	tmp_val += tmp_val_l[i];
00026e   d187     bclr    0x187, 0         	BCLR	PFLAG,0
00026f   5086     rlar    0x86             	RLAR	_i
000270   5616     movra   0x16             	MOVRA	r0x1059
000271   5816     movar   0x16             	MOVAR	r0x1059
000272   3f49     addai   0x49             	ADDAI	(_tmp_val_l + 0)
000273   5616     movra   0x16             	MOVRA	r0x1059
000274   3c00     movai   0                	MOVAI	high (_tmp_val_l + 0)
000275   f187     jbclr   0x187, 0         	JBCLR	PFLAG,0
000276   3f01     addai   0x1              	ADDAI	0x01
000277   5617     movra   0x17             	MOVRA	r0x105A
000278   5816     movar   0x16             	MOVAR	r0x1059
000279   5784     movra   0x184            	MOVRA	FSR0
00027a   5817     movar   0x17             	MOVAR	r0x105A
00027b   5785     movra   0x185            	MOVRA	FSR1
00027c   5982     movar   0x182            	MOVAR	INDF2
00027d   561a     movra   0x1a             	MOVRA	r0x105D
00027e   6784     incr    0x184            	INCR	FSR0
00027f   f587     jbclr   0x187, 0x2       	JBCLR	PFLAG,2
000280   6785     incr    0x185            	INCR	FSR1
000281   5982     movar   0x182            	MOVAR	INDF2
000282   561b     movra   0x1b             	MOVRA	r0x105E
000283   581a     movar   0x1a             	MOVAR	r0x105D
000284   7e7f     addra   0x7f             	ADDRA	_tmp_val
000285   581b     movar   0x1b             	MOVAR	r0x105E
000286   f187     jbclr   0x187, 0         	JBCLR	PFLAG,0
000287   601b     jzar    0x1b             	JZAR	r0x105E
000288   7e80     addra   0x80             	ADDRA	(_tmp_val + 1)
                                           ;	.line	1171; "MC32P7351.c"	for (i = 0; i < 8; i++)
000289   6686     incr    0x86             	INCR	_i
00028a   a26a     goto    0x26a            	GOTO	_00883_DS_
                                           ;;shiftRight_Left2ResultLit:5339: shCount=1, size=2, sign=0, same=1, offr=0
                                           _00846_DS_
                                           ;	.line	1175; "MC32P7351.c"	tmp_val >>= 3;
00028b   d187     bclr    0x187, 0         	BCLR	PFLAG,0
00028c   4e80     rrr     0x80             	RRR	(_tmp_val + 1)
00028d   4e7f     rrr     0x7f             	RRR	_tmp_val
                                           ;;shiftRight_Left2ResultLit:5339: shCount=1, size=2, sign=0, same=1, offr=0
00028e   d187     bclr    0x187, 0         	BCLR	PFLAG,0
00028f   4e80     rrr     0x80             	RRR	(_tmp_val + 1)
000290   4e7f     rrr     0x7f             	RRR	_tmp_val
                                           ;;shiftRight_Left2ResultLit:5339: shCount=1, size=2, sign=0, same=1, offr=0
000291   d187     bclr    0x187, 0         	BCLR	PFLAG,0
000292   4e80     rrr     0x80             	RRR	(_tmp_val + 1)
000293   4e7f     rrr     0x7f             	RRR	_tmp_val
                                           ;	.line	1177; "MC32P7351.c"	if (tmp_val > last_pwm_val)
000294   5880     movar   0x80             	MOVAR	(_tmp_val + 1)
000295   487e     rsubar  0x7e             	RSUBAR	(_last_pwm_val + 1)
000296   e587     jbset   0x187, 0x2       	JBSET	PFLAG,2
000297   a29a     goto    0x29a            	GOTO	_00981_DS_
000298   587f     movar   0x7f             	MOVAR	_tmp_val
000299   487d     rsubar  0x7d             	RSUBAR	_last_pwm_val
                                           _00981_DS_
00029a   f187     jbclr   0x187, 0         	JBCLR	PFLAG,0
00029b   a2a0     goto    0x2a0            	GOTO	_00850_DS_
                                           ;;genSkipc:3291: created from rifx:013B5EFC
                                           ;	.line	1179; "MC32P7351.c"	last_pwm_val = last_pwm_val + 1;
00029c   667d     incr    0x7d             	INCR	_last_pwm_val
00029d   f587     jbclr   0x187, 0x2       	JBCLR	PFLAG,2
00029e   667e     incr    0x7e             	INCR	(_last_pwm_val + 1)
00029f   a2ac     goto    0x2ac            	GOTO	_00851_DS_
                                           _00850_DS_
                                           ;	.line	1181; "MC32P7351.c"	else if (tmp_val < last_pwm_val)
0002a0   587e     movar   0x7e             	MOVAR	(_last_pwm_val + 1)
0002a1   4880     rsubar  0x80             	RSUBAR	(_tmp_val + 1)
0002a2   e587     jbset   0x187, 0x2       	JBSET	PFLAG,2
0002a3   a2a6     goto    0x2a6            	GOTO	_00982_DS_
0002a4   587d     movar   0x7d             	MOVAR	_last_pwm_val
0002a5   487f     rsubar  0x7f             	RSUBAR	_tmp_val
                                           _00982_DS_
0002a6   f187     jbclr   0x187, 0         	JBCLR	PFLAG,0
0002a7   a2ac     goto    0x2ac            	GOTO	_00851_DS_
                                           ;;genSkipc:3291: created from rifx:013B5EFC
                                           ;	.line	1183; "MC32P7351.c"	last_pwm_val = last_pwm_val - 1;
0002a8   3cff     movai   0xff             	MOVAI	0xff
0002a9   7e7d     addra   0x7d             	ADDRA	_last_pwm_val
0002aa   e187     jbset   0x187, 0         	JBSET	PFLAG,0
0002ab   6e7e     decr    0x7e             	DECR	(_last_pwm_val + 1)
                                           _00851_DS_
                                           ;	.line	1241; "MC32P7351.c"	T2DATA = last_pwm_val;
0002ac   587d     movar   0x7d             	MOVAR	_last_pwm_val
0002ad   57a3     movra   0x1a3            	MOVRA	_T2DATA
0002ae   a2bb     goto    0x2bb            	GOTO	_00862_DS_
                                           _00861_DS_
                                           ;	.line	1245; "MC32P7351.c"	if (FLAG_DURING_CHARGING_BAT_IS_NULL)
0002af   ee8d     jbset   0x8d, 0x7        	JBSET	_flag1,7
0002b0   a2bb     goto    0x2bb            	GOTO	_00862_DS_
                                           ;	.line	1248; "MC32P7351.c"	LED_FULL_CHARGE_ON();
0002b1   d790     bclr    0x190, 0x3       	BCLR	_IOP0bits,3
                                           ;	.line	1249; "MC32P7351.c"	delay_ms(200);
0002b2   3cc8     movai   0xc8             	MOVAI	0xc8
0002b3   5606     movra   0x6              	MOVRA	STK00
0002b4   3c00     movai   0                	MOVAI	0x00
0002b5   8680     call    0x680            	CALL	_delay_ms
                                           ;	.line	1250; "MC32P7351.c"	LED_FULL_CHARGE_OFF();
0002b6   c790     bset    0x190, 0x3       	BSET	_IOP0bits,3
                                           ;	.line	1251; "MC32P7351.c"	delay_ms(200);
0002b7   3cc8     movai   0xc8             	MOVAI	0xc8
0002b8   5606     movra   0x6              	MOVRA	STK00
0002b9   3c00     movai   0                	MOVAI	0x00
0002ba   8680     call    0x680            	CALL	_delay_ms
                                           _00862_DS_
                                           ;	.line	1255; "MC32P7351.c"	if (flag_is_low_battery)
0002bb   e48e     jbset   0x8e, 0x2        	JBSET	_flag2,2
0002bc   a2d8     goto    0x2d8            	GOTO	_00875_DS_
                                           ;	.line	1257; "MC32P7351.c"	LED_WORKING_OFF();
0002bd   c994     bset    0x194, 0x4       	BSET	_IOP1bits,4
                                           ;	.line	1260; "MC32P7351.c"	LED_CHARGING_ON();
0002be   d990     bclr    0x190, 0x4       	BCLR	_IOP0bits,4
                                           ;	.line	1262; "MC32P7351.c"	for (i = 0; i < 20; i++)
0002bf   7686     clrr    0x86             	CLRR	_i
                                           ;;unsigned compare: left < lit(0x14=20), size=1
                                           _00886_DS_
0002c0   3c14     movai   0x14             	MOVAI	0x14
0002c1   4886     rsubar  0x86             	RSUBAR	_i
0002c2   f187     jbclr   0x187, 0         	JBCLR	PFLAG,0
0002c3   a2cb     goto    0x2cb            	GOTO	_00870_DS_
                                           ;;genSkipc:3291: created from rifx:013B5EFC
                                           ;	.line	1265; "MC32P7351.c"	key_event_handle();
0002c4   8483     call    0x483            	CALL	_key_event_handle
                                           ;	.line	1266; "MC32P7351.c"	delay_ms(10);
0002c5   3c0a     movai   0xa              	MOVAI	0x0a
0002c6   5606     movra   0x6              	MOVRA	STK00
0002c7   3c00     movai   0                	MOVAI	0x00
0002c8   8680     call    0x680            	CALL	_delay_ms
                                           ;	.line	1262; "MC32P7351.c"	for (i = 0; i < 20; i++)
0002c9   6686     incr    0x86             	INCR	_i
0002ca   a2c0     goto    0x2c0            	GOTO	_00886_DS_
                                           _00870_DS_
                                           ;	.line	1269; "MC32P7351.c"	LED_CHARGING_OFF();
0002cb   c990     bset    0x190, 0x4       	BSET	_IOP0bits,4
                                           ;	.line	1271; "MC32P7351.c"	for (i = 0; i < 20; i++)
0002cc   7686     clrr    0x86             	CLRR	_i
                                           ;;unsigned compare: left < lit(0x14=20), size=1
                                           _00889_DS_
0002cd   3c14     movai   0x14             	MOVAI	0x14
0002ce   4886     rsubar  0x86             	RSUBAR	_i
0002cf   f187     jbclr   0x187, 0         	JBCLR	PFLAG,0
0002d0   a2d8     goto    0x2d8            	GOTO	_00875_DS_
                                           ;;genSkipc:3291: created from rifx:013B5EFC
                                           ;	.line	1274; "MC32P7351.c"	key_event_handle();
0002d1   8483     call    0x483            	CALL	_key_event_handle
                                           ;	.line	1275; "MC32P7351.c"	delay_ms(10);
0002d2   3c0a     movai   0xa              	MOVAI	0x0a
0002d3   5606     movra   0x6              	MOVRA	STK00
0002d4   3c00     movai   0                	MOVAI	0x00
0002d5   8680     call    0x680            	CALL	_delay_ms
                                           ;	.line	1271; "MC32P7351.c"	for (i = 0; i < 20; i++)
0002d6   6686     incr    0x86             	INCR	_i
0002d7   a2cd     goto    0x2cd            	GOTO	_00889_DS_
                                           _00875_DS_
                                           ;	.line	1279; "MC32P7351.c"	low_power_scan_handle();
0002d8   82dc     call    0x2dc            	CALL	_low_power_scan_handle
                                           ;	.line	1286; "MC32P7351.c"	__endasm;
                                           	;
0002d9   000e     clrwdt                   	CLRWDT;
                                           	
0002da   a0d8     goto    0xd8             	GOTO	_00877_DS_
                                           ;	.line	1289; "MC32P7351.c"	}
0002db   000c     return                   	RETURN	
                                           ; exit point of _main
                                           
                                           ;***
                                           ;  pBlock Stats: dbName = C
                                           ;***
                                           ;entry:  _low_power_scan_handle	;Function start
                                           ; 2 exit points
                                           ;has an exit
                                           ;functions called:
                                           ;   _CLR_RAM
                                           ;   _adc_config
                                           ;   _adc_sel_pin
                                           ;   _adc_get_val_once
                                           ;   _Sys_Init
                                           ;   _delay_ms
                                           ;   _CLR_RAM
                                           ;   _adc_config
                                           ;   _adc_sel_pin
                                           ;   _adc_get_val_once
                                           ;   _Sys_Init
                                           ;   _delay_ms
                                           ;1 compiler assigned register :
                                           ;   STK00
                                           ;; Starting pCode block
                                           _low_power_scan_handle	;Function start
                                           ; 2 exit points
                                           ;	.line	879; "MC32P7351.c"	if (FLAG_DURING_CHARGING_BAT_IS_NULL || // 
0002dc   fe8d     jbclr   0x8d, 0x7        	JBCLR	_flag1,7
0002dd   a2e4     goto    0x2e4            	GOTO	_00784_DS_
                                           ;	.line	880; "MC32P7351.c"	FLAG_IS_DEVICE_OPEN ||              // 
0002de   f08d     jbclr   0x8d, 0          	JBCLR	_flag1,0
0002df   a2e4     goto    0x2e4            	GOTO	_00784_DS_
                                           ;	.line	881; "MC32P7351.c"	FLAG_IS_IN_CHARGING ||              // PWM
0002e0   f48d     jbclr   0x8d, 0x2        	JBCLR	_flag1,2
0002e1   a2e4     goto    0x2e4            	GOTO	_00784_DS_
                                           ;	.line	882; "MC32P7351.c"	(0 == P01D))                        //  / ()
0002e2   f390     jbclr   0x190, 0x1       	JBCLR	_IOP0bits,1
0002e3   a2e5     goto    0x2e5            	GOTO	_00789_DS_
                                           _00784_DS_
                                           ;	.line	884; "MC32P7351.c"	return;
0002e4   a316     goto    0x316            	GOTO	_00802_DS_
                                           _00789_DS_
                                           ;	.line	902; "MC32P7351.c"	GIE = 0;  // 
0002e5   df88     bclr    0x188, 0x7       	BCLR	_MCRbits,7
                                           ;	.line	903; "MC32P7351.c"	T0EN = 0; // PWM
0002e6   df98     bclr    0x198, 0x7       	BCLR	_T0CRbits,7
                                           ;	.line	904; "MC32P7351.c"	T1EN = 0;
0002e7   df9c     bclr    0x19c, 0x7       	BCLR	_T1CRbits,7
                                           ;	.line	905; "MC32P7351.c"	T2EN = 0;
0002e8   dfa0     bclr    0x1a0, 0x7       	BCLR	_T2CRbits,7
                                           ;	.line	906; "MC32P7351.c"	T3EN = 0;
0002e9   dfa4     bclr    0x1a4, 0x7       	BCLR	_T3CRbits,7
                                           ;	.line	908; "MC32P7351.c"	PWM0EC = 0;
0002ea   dd98     bclr    0x198, 0x6       	BCLR	_T0CRbits,6
                                           ;	.line	909; "MC32P7351.c"	PWM1EC = 0;
0002eb   dd9c     bclr    0x19c, 0x6       	BCLR	_T1CRbits,6
                                           ;	.line	910; "MC32P7351.c"	PWM2EC = 0;
0002ec   dda0     bclr    0x1a0, 0x6       	BCLR	_T2CRbits,6
                                           ;	.line	911; "MC32P7351.c"	T2DATA = 0;
0002ed   77a3     clrr    0x1a3            	CLRR	_T2DATA
                                           ;	.line	912; "MC32P7351.c"	ADEN = 0; // ad
0002ee   d1b0     bclr    0x1b0, 0         	BCLR	_ADCR0bits,0
                                           ;	.line	919; "MC32P7351.c"	LED_WORKING_OFF();
0002ef   c994     bset    0x194, 0x4       	BSET	_IOP1bits,4
                                           ;	.line	920; "MC32P7351.c"	LED_CHARGING_OFF();
0002f0   c990     bset    0x190, 0x4       	BSET	_IOP0bits,4
                                           ;	.line	921; "MC32P7351.c"	LED_FULL_CHARGE_OFF();
0002f1   c790     bset    0x190, 0x3       	BSET	_IOP0bits,3
                                           ;	.line	924; "MC32P7351.c"	P01PU = 1;
0002f2   c392     bset    0x192, 0x1       	BSET	_PUP0bits,1
                                           ;	.line	925; "MC32P7351.c"	P01OE = 0;
0002f3   d391     bclr    0x191, 0x1       	BCLR	_OEP0bits,1
                                           ;	.line	928; "MC32P7351.c"	P00PD = 1;
0002f4   c193     bset    0x193, 0         	BSET	_PDP0bits,0
                                           ;	.line	929; "MC32P7351.c"	P00OE = 0;
0002f5   d191     bclr    0x191, 0         	BCLR	_OEP0bits,0
                                           ;	.line	931; "MC32P7351.c"	HFEN = 0; // 
0002f6   d1ae     bclr    0x1ae, 0         	BCLR	_OSCMRbits,0
                                           ;	.line	932; "MC32P7351.c"	LFEN = 1;
0002f7   c3ae     bset    0x1ae, 0x1       	BSET	_OSCMRbits,1
                                           ;	.line	935; "MC32P7351.c"	Nop();
0002f8   0000     nop                      	nop	
                                           ;	.line	936; "MC32P7351.c"	Nop();
0002f9   0000     nop                      	nop	
                                           ;	.line	937; "MC32P7351.c"	Stop();
0002fa   000b     stop                     	stop	
                                           ;	.line	938; "MC32P7351.c"	Nop();
0002fb   0000     nop                      	nop	
                                           ;	.line	939; "MC32P7351.c"	Nop();
0002fc   0000     nop                      	nop	
                                           ;	.line	941; "MC32P7351.c"	HFEN = 1; // 
0002fd   c1ae     bset    0x1ae, 0         	BSET	_OSCMRbits,0
                                           ;	.line	943; "MC32P7351.c"	CLR_RAM();
0002fe   8674     call    0x674            	CALL	_CLR_RAM
                                           ;	.line	945; "MC32P7351.c"	adc_config();
0002ff   8658     call    0x658            	CALL	_adc_config
                                           ;	.line	946; "MC32P7351.c"	adc_sel_pin(ADC_PIN_P00_AN0);
000300   3c01     movai   0x1              	MOVAI	0x01
000301   8620     call    0x620            	CALL	_adc_sel_pin
                                           ;	.line	947; "MC32P7351.c"	adc_val = adc_get_val_once();
000302   8567     call    0x567            	CALL	_adc_get_val_once
000303   567a     movra   0x7a             	MOVRA	(_adc_val + 1)
000304   5806     movar   0x6              	MOVAR	STK00
000305   5679     movra   0x79             	MOVRA	_adc_val
                                           ;;unsigned compare: left < lit(0x800=2048), size=2
                                           ;	.line	949; "MC32P7351.c"	if (adc_val < ADCDETECT_CHARING_THRESHOLD && P01D)
000306   3c08     movai   0x8              	MOVAI	0x08
000307   487a     rsubar  0x7a             	RSUBAR	(_adc_val + 1)
000308   e587     jbset   0x187, 0x2       	JBSET	PFLAG,2
000309   a30c     goto    0x30c            	GOTO	_00824_DS_
00030a   3c00     movai   0                	MOVAI	0x00
00030b   4879     rsubar  0x79             	RSUBAR	_adc_val
                                           _00824_DS_
00030c   f187     jbclr   0x187, 0         	JBCLR	PFLAG,0
00030d   a310     goto    0x310            	GOTO	_00800_DS_
                                           ;;genSkipc:3291: created from rifx:013B5EFC
00030e   f390     jbclr   0x190, 0x1       	JBCLR	_IOP0bits,1
00030f   a2e5     goto    0x2e5            	GOTO	_00789_DS_
                                           _00800_DS_
                                           ;	.line	975; "MC32P7351.c"	Sys_Init();
000310   8559     call    0x559            	CALL	_Sys_Init
                                           ;	.line	976; "MC32P7351.c"	GIE = 1;
000311   cf88     bset    0x188, 0x7       	BSET	_MCRbits,7
                                           ;	.line	978; "MC32P7351.c"	delay_ms(1); // 
000312   3c01     movai   0x1              	MOVAI	0x01
000313   5606     movra   0x6              	MOVRA	STK00
000314   3c00     movai   0                	MOVAI	0x00
000315   8680     call    0x680            	CALL	_delay_ms
                                           _00802_DS_
                                           ;	.line	979; "MC32P7351.c"	}
000316   000c     return                   	RETURN	
                                           ; exit point of _low_power_scan_handle
                                           
                                           ;***
                                           ;  pBlock Stats: dbName = C
                                           ;***
                                           ;entry:  _shutdown_scan_handle	;Function start
                                           ; 2 exit points
                                           ;has an exit
                                           ;; Starting pCode block
                                           _shutdown_scan_handle	;Function start
                                           ; 2 exit points
                                           ;	.line	850; "MC32P7351.c"	if (FLAG_IS_DEVICE_OPEN)
000317   e08d     jbset   0x8d, 0          	JBSET	_flag1,0
000318   a333     goto    0x333            	GOTO	_00767_DS_
                                           ;;unsigned compare: left < lit(0xDBBA0=900000), size=4
                                           ;	.line	854; "MC32P7351.c"	if (shut_down_ms_cnt >= 900000)
000319   3c00     movai   0                	MOVAI	0x00
00031a   4870     rsubar  0x70             	RSUBAR	(_shut_down_ms_cnt + 3)
00031b   e587     jbset   0x187, 0x2       	JBSET	PFLAG,2
00031c   a327     goto    0x327            	GOTO	_00779_DS_
00031d   3c0d     movai   0xd              	MOVAI	0x0d
00031e   486f     rsubar  0x6f             	RSUBAR	(_shut_down_ms_cnt + 2)
00031f   e587     jbset   0x187, 0x2       	JBSET	PFLAG,2
000320   a327     goto    0x327            	GOTO	_00779_DS_
000321   3cbb     movai   0xbb             	MOVAI	0xbb
000322   486e     rsubar  0x6e             	RSUBAR	(_shut_down_ms_cnt + 1)
000323   e587     jbset   0x187, 0x2       	JBSET	PFLAG,2
000324   a327     goto    0x327            	GOTO	_00779_DS_
000325   3ca0     movai   0xa0             	MOVAI	0xa0
000326   486d     rsubar  0x6d             	RSUBAR	_shut_down_ms_cnt
                                           _00779_DS_
000327   e187     jbset   0x187, 0         	JBSET	PFLAG,0
000328   a337     goto    0x337            	GOTO	_00769_DS_
                                           ;;genSkipc:3291: created from rifx:013B5EFC
                                           ;	.line	857; "MC32P7351.c"	LED_WORKING_OFF(); // 
000329   c994     bset    0x194, 0x4       	BSET	_IOP1bits,4
                                           ;	.line	858; "MC32P7351.c"	LED_CHARGING_OFF();
00032a   c990     bset    0x190, 0x4       	BSET	_IOP0bits,4
                                           ;	.line	859; "MC32P7351.c"	HEATING_OFF(); // 
00032b   d594     bclr    0x194, 0x2       	BCLR	_IOP1bits,2
                                           ;	.line	860; "MC32P7351.c"	FLAG_IS_HEATING = 0;
00032c   d28d     bclr    0x8d, 0x1        	BCLR	_flag1,1
                                           ;	.line	861; "MC32P7351.c"	mode_flag = MODE_4; //  MODE_1
00032d   3c03     movai   0x3              	MOVAI	0x03
00032e   5684     movra   0x84             	MOVRA	_mode_flag
                                           ;	.line	863; "MC32P7351.c"	PWM0EC = 0;
00032f   dd98     bclr    0x198, 0x6       	BCLR	_T0CRbits,6
                                           ;	.line	864; "MC32P7351.c"	PWM1EC = 0;
000330   dd9c     bclr    0x19c, 0x6       	BCLR	_T1CRbits,6
                                           ;	.line	866; "MC32P7351.c"	FLAG_IS_DEVICE_OPEN = 0;
000331   d08d     bclr    0x8d, 0          	BCLR	_flag1,0
000332   a337     goto    0x337            	GOTO	_00769_DS_
                                           _00767_DS_
                                           ;	.line	872; "MC32P7351.c"	shut_down_ms_cnt = 0;
000333   766d     clrr    0x6d             	CLRR	_shut_down_ms_cnt
000334   766e     clrr    0x6e             	CLRR	(_shut_down_ms_cnt + 1)
000335   766f     clrr    0x6f             	CLRR	(_shut_down_ms_cnt + 2)
000336   7670     clrr    0x70             	CLRR	(_shut_down_ms_cnt + 3)
                                           _00769_DS_
                                           ;	.line	874; "MC32P7351.c"	}
000337   000c     return                   	RETURN	
                                           ; exit point of _shutdown_scan_handle
                                           
                                           ;***
                                           ;  pBlock Stats: dbName = C
                                           ;***
                                           ;entry:  _turn_dir_scan_handle	;Function start
                                           ; 2 exit points
                                           ;has an exit
                                           ;functions called:
                                           ;   _delay_ms
                                           ;   _delay_ms
                                           ;   _delay_ms
                                           ;   _delay_ms
                                           ;1 compiler assigned register :
                                           ;   STK00
                                           ;; Starting pCode block
                                           _turn_dir_scan_handle	;Function start
                                           ; 2 exit points
                                           ;	.line	815; "MC32P7351.c"	if (FLAG_IS_DEVICE_OPEN)
000338   e08d     jbset   0x8d, 0          	JBSET	_flag1,0
000339   a363     goto    0x363            	GOTO	_00734_DS_
                                           ;;unsigned compare: left < lit(0x1D4C0=120000), size=4
                                           ;	.line	819; "MC32P7351.c"	if (turn_dir_ms_cnt >= (120000) ||
00033a   3c00     movai   0                	MOVAI	0x00
00033b   486c     rsubar  0x6c             	RSUBAR	(_turn_dir_ms_cnt + 3)
00033c   e587     jbset   0x187, 0x2       	JBSET	PFLAG,2
00033d   a348     goto    0x348            	GOTO	_00750_DS_
00033e   3c01     movai   0x1              	MOVAI	0x01
00033f   486b     rsubar  0x6b             	RSUBAR	(_turn_dir_ms_cnt + 2)
000340   e587     jbset   0x187, 0x2       	JBSET	PFLAG,2
000341   a348     goto    0x348            	GOTO	_00750_DS_
000342   3cd4     movai   0xd4             	MOVAI	0xd4
000343   486a     rsubar  0x6a             	RSUBAR	(_turn_dir_ms_cnt + 1)
000344   e587     jbset   0x187, 0x2       	JBSET	PFLAG,2
000345   a348     goto    0x348            	GOTO	_00750_DS_
000346   3cc0     movai   0xc0             	MOVAI	0xc0
000347   4869     rsubar  0x69             	RSUBAR	_turn_dir_ms_cnt
                                           _00750_DS_
000348   f187     jbclr   0x187, 0         	JBCLR	PFLAG,0
000349   a34c     goto    0x34c            	GOTO	_00730_DS_
                                           ;;genSkipc:3291: created from rifx:013B5EFC
                                           ;	.line	820; "MC32P7351.c"	flag_ctl_dir)
00034a   e08f     jbset   0x8f, 0          	JBSET	_flag3,0
00034b   a367     goto    0x367            	GOTO	_00736_DS_
                                           _00730_DS_
                                           ;	.line	822; "MC32P7351.c"	if (0 == FLAG_DIR)
00034c   f68d     jbclr   0x8d, 0x3        	JBCLR	_flag1,3
00034d   a356     goto    0x356            	GOTO	_00728_DS_
                                           ;	.line	824; "MC32P7351.c"	PWM1EC = 0;
00034e   dd9c     bclr    0x19c, 0x6       	BCLR	_T1CRbits,6
                                           ;	.line	825; "MC32P7351.c"	delay_ms(1000);
00034f   3ce8     movai   0xe8             	MOVAI	0xe8
000350   5606     movra   0x6              	MOVRA	STK00
000351   3c03     movai   0x3              	MOVAI	0x03
000352   8680     call    0x680            	CALL	_delay_ms
                                           ;	.line	826; "MC32P7351.c"	PWM0EC = 1;
000353   cd98     bset    0x198, 0x6       	BSET	_T0CRbits,6
                                           ;	.line	827; "MC32P7351.c"	FLAG_DIR = 1; //
000354   c68d     bset    0x8d, 0x3        	BSET	_flag1,3
000355   a35d     goto    0x35d            	GOTO	_00729_DS_
                                           _00728_DS_
                                           ;	.line	831; "MC32P7351.c"	PWM0EC = 0; //
000356   dd98     bclr    0x198, 0x6       	BCLR	_T0CRbits,6
                                           ;	.line	832; "MC32P7351.c"	delay_ms(1000);
000357   3ce8     movai   0xe8             	MOVAI	0xe8
000358   5606     movra   0x6              	MOVRA	STK00
000359   3c03     movai   0x3              	MOVAI	0x03
00035a   8680     call    0x680            	CALL	_delay_ms
                                           ;	.line	833; "MC32P7351.c"	PWM1EC = 1;   //
00035b   cd9c     bset    0x19c, 0x6       	BSET	_T1CRbits,6
                                           ;	.line	834; "MC32P7351.c"	FLAG_DIR = 0; //
00035c   d68d     bclr    0x8d, 0x3        	BCLR	_flag1,3
                                           _00729_DS_
                                           ;	.line	837; "MC32P7351.c"	flag_ctl_dir = 0;
00035d   d08f     bclr    0x8f, 0          	BCLR	_flag3,0
                                           ;	.line	838; "MC32P7351.c"	turn_dir_ms_cnt = 0;
00035e   7669     clrr    0x69             	CLRR	_turn_dir_ms_cnt
00035f   766a     clrr    0x6a             	CLRR	(_turn_dir_ms_cnt + 1)
000360   766b     clrr    0x6b             	CLRR	(_turn_dir_ms_cnt + 2)
000361   766c     clrr    0x6c             	CLRR	(_turn_dir_ms_cnt + 3)
000362   a367     goto    0x367            	GOTO	_00736_DS_
                                           _00734_DS_
                                           ;	.line	843; "MC32P7351.c"	turn_dir_ms_cnt = 0; // 
000363   7669     clrr    0x69             	CLRR	_turn_dir_ms_cnt
000364   766a     clrr    0x6a             	CLRR	(_turn_dir_ms_cnt + 1)
000365   766b     clrr    0x6b             	CLRR	(_turn_dir_ms_cnt + 2)
000366   766c     clrr    0x6c             	CLRR	(_turn_dir_ms_cnt + 3)
                                           _00736_DS_
                                           ;	.line	845; "MC32P7351.c"	}
000367   000c     return                   	RETURN	
                                           ; exit point of _turn_dir_scan_handle
                                           
                                           ;***
                                           ;  pBlock Stats: dbName = C
                                           ;***
                                           ;entry:  _adc_scan_handle	;Function start
                                           ; 2 exit points
                                           ;has an exit
                                           ;functions called:
                                           ;   _adc_sel_pin
                                           ;   _adc_get_val
                                           ;   _key_event_handle
                                           ;   _adc_sel_pin
                                           ;   _adc_get_val
                                           ;   _key_event_handle
                                           ;   _adc_sel_pin
                                           ;   _adc_get_val
                                           ;   _key_event_handle
                                           ;   _adc_sel_pin
                                           ;   _adc_get_val
                                           ;   _key_event_handle
                                           ;1 compiler assigned register :
                                           ;   STK00
                                           ;; Starting pCode block
                                           _adc_scan_handle	;Function start
                                           ; 2 exit points
                                           ;	.line	550; "MC32P7351.c"	volatile u8 cnt = 0;             // /
000368   7628     clrr    0x28             	CLRR	_adc_scan_handle_cnt_65536_106
                                           ;	.line	551; "MC32P7351.c"	volatile u8 need_charge_cnt = 0; // 
000369   7629     clrr    0x29             	CLRR	_adc_scan_handle_need_charge_cnt_65536_106
                                           ;	.line	553; "MC32P7351.c"	adc_bat_val = 0;
00036a   7671     clrr    0x71             	CLRR	_adc_bat_val
00036b   7672     clrr    0x72             	CLRR	(_adc_bat_val + 1)
00036c   7673     clrr    0x73             	CLRR	(_adc_bat_val + 2)
00036d   7674     clrr    0x74             	CLRR	(_adc_bat_val + 3)
                                           ;	.line	554; "MC32P7351.c"	adc_charging_val = 0;
00036e   767b     clrr    0x7b             	CLRR	_adc_charging_val
00036f   767c     clrr    0x7c             	CLRR	(_adc_charging_val + 1)
                                           ;	.line	556; "MC32P7351.c"	adc_sel_pin(ADC_PIN_P02_AN1); // 
000370   3c02     movai   0x2              	MOVAI	0x02
000371   8620     call    0x620            	CALL	_adc_sel_pin
                                           ;	.line	557; "MC32P7351.c"	for (i = 0; i < 10; i++)      //  // 55ms4.8ms
000372   7686     clrr    0x86             	CLRR	_i
                                           ;;unsigned compare: left < lit(0xA=10), size=1
                                           _00559_DS_
000373   3c0a     movai   0xa              	MOVAI	0x0a
000374   4886     rsubar  0x86             	RSUBAR	_i
000375   f187     jbclr   0x187, 0         	JBCLR	PFLAG,0
000376   a41a     goto    0x41a            	GOTO	_00509_DS_
                                           ;;genSkipc:3291: created from rifx:013B5EFC
                                           ;	.line	559; "MC32P7351.c"	adc_val = adc_get_val();
000377   8583     call    0x583            	CALL	_adc_get_val
000378   567a     movra   0x7a             	MOVRA	(_adc_val + 1)
000379   5806     movar   0x6              	MOVAR	STK00
00037a   5679     movra   0x79             	MOVRA	_adc_val
                                           ;	.line	561; "MC32P7351.c"	if (i == 0)
00037b   3c00     movai   0                	MOVAI	0x00
00037c   5c86     orar    0x86             	ORAR	_i
00037d   e587     jbset   0x187, 0x2       	JBSET	PFLAG,2
00037e   a385     goto    0x385            	GOTO	_00442_DS_
                                           ;	.line	563; "MC32P7351.c"	adc_bat_val = adc_val;
00037f   5879     movar   0x79             	MOVAR	_adc_val
000380   5671     movra   0x71             	MOVRA	_adc_bat_val
000381   587a     movar   0x7a             	MOVAR	(_adc_val + 1)
000382   5672     movra   0x72             	MOVRA	(_adc_bat_val + 1)
000383   7673     clrr    0x73             	CLRR	(_adc_bat_val + 2)
000384   7674     clrr    0x74             	CLRR	(_adc_bat_val + 3)
                                           _00442_DS_
                                           ;	.line	566; "MC32P7351.c"	if (FLAG_IS_IN_CHARGING)
000385   e48d     jbset   0x8d, 0x2        	JBSET	_flag1,2
000386   a3cf     goto    0x3cf            	GOTO	_00507_DS_
                                           ;;unsigned compare: left < lit(0xF52=3922), size=2
                                           ;	.line	569; "MC32P7351.c"	if (adc_val >= ADCDETECT_BAT_FULL + ADCDETECT_BAT_NULL_EX)
000387   3c0f     movai   0xf              	MOVAI	0x0f
000388   487a     rsubar  0x7a             	RSUBAR	(_adc_val + 1)
000389   e587     jbset   0x187, 0x2       	JBSET	PFLAG,2
00038a   a38d     goto    0x38d            	GOTO	_00707_DS_
00038b   3c52     movai   0x52             	MOVAI	0x52
00038c   4879     rsubar  0x79             	RSUBAR	_adc_val
                                           _00707_DS_
00038d   e187     jbset   0x187, 0         	JBSET	PFLAG,0
00038e   a391     goto    0x391            	GOTO	_00444_DS_
                                           ;;genSkipc:3291: created from rifx:013B5EFC
                                           ;	.line	572; "MC32P7351.c"	T2DATA = 0;
00038f   77a3     clrr    0x1a3            	CLRR	_T2DATA
                                           ;	.line	573; "MC32P7351.c"	over_charging_cnt++;
000390   6689     incr    0x89             	INCR	_over_charging_cnt
                                           ;;unsigned compare: left < lit(0xE3A=3642), size=2
                                           _00444_DS_
                                           ;	.line	576; "MC32P7351.c"	if (adc_val >= ADCDETECT_BAT_FULL) // 
000391   3c0e     movai   0xe              	MOVAI	0x0e
000392   487a     rsubar  0x7a             	RSUBAR	(_adc_val + 1)
000393   e587     jbset   0x187, 0x2       	JBSET	PFLAG,2
000394   a397     goto    0x397            	GOTO	_00708_DS_
000395   3c3a     movai   0x3a             	MOVAI	0x3a
000396   4879     rsubar  0x79             	RSUBAR	_adc_val
                                           _00708_DS_
000397   e187     jbset   0x187, 0         	JBSET	PFLAG,0
000398   a39b     goto    0x39b            	GOTO	_00448_DS_
                                           ;;genSkipc:3291: created from rifx:013B5EFC
                                           ;	.line	578; "MC32P7351.c"	cnt++;
000399   6628     incr    0x28             	INCR	_adc_scan_handle_cnt_65536_106
00039a   a3a4     goto    0x3a4            	GOTO	_00449_DS_
                                           ;;unsigned compare: left < lit(0xD90=3472), size=2
                                           _00448_DS_
                                           ;	.line	580; "MC32P7351.c"	else if (adc_val < ADCDETECT_BAT_WILL_FULL) // 
00039b   3c0d     movai   0xd              	MOVAI	0x0d
00039c   487a     rsubar  0x7a             	RSUBAR	(_adc_val + 1)
00039d   e587     jbset   0x187, 0x2       	JBSET	PFLAG,2
00039e   a3a1     goto    0x3a1            	GOTO	_00709_DS_
00039f   3c90     movai   0x90             	MOVAI	0x90
0003a0   4879     rsubar  0x79             	RSUBAR	_adc_val
                                           _00709_DS_
0003a1   f187     jbclr   0x187, 0         	JBCLR	PFLAG,0
0003a2   a3a4     goto    0x3a4            	GOTO	_00449_DS_
                                           ;;genSkipc:3291: created from rifx:013B5EFC
                                           ;	.line	582; "MC32P7351.c"	need_charge_cnt++;
0003a3   6629     incr    0x29             	INCR	_adc_scan_handle_need_charge_cnt_65536_106
                                           _00449_DS_
                                           ;	.line	585; "MC32P7351.c"	if (flag_bat_is_empty)
0003a4   3c00     movai   0                	MOVAI	0x00
0003a5   5c88     orar    0x88             	ORAR	_flag_bat_is_empty
0003a6   f587     jbclr   0x187, 0x2       	JBCLR	PFLAG,2
0003a7   a3ae     goto    0x3ae            	GOTO	_00472_DS_
                                           ;	.line	589; "MC32P7351.c"	LED_CHARGING_OFF(); // 
0003a8   c990     bset    0x190, 0x4       	BSET	_IOP0bits,4
                                           ;	.line	590; "MC32P7351.c"	PWM2EC = 0;         // pwmPWM
0003a9   dda0     bclr    0x1a0, 0x6       	BCLR	_T2CRbits,6
                                           ;	.line	591; "MC32P7351.c"	T2DATA = 0;
0003aa   77a3     clrr    0x1a3            	CLRR	_T2DATA
                                           ;	.line	592; "MC32P7351.c"	FLAG_BAT_IS_NEED_CHARGE = 0;
0003ab   d88d     bclr    0x8d, 0x4        	BCLR	_flag1,4
                                           ;	.line	593; "MC32P7351.c"	FLAG_DURING_CHARGING_BAT_IS_NULL = 1; // 
0003ac   ce8d     bset    0x8d, 0x7        	BSET	_flag1,7
                                           ;	.line	595; "MC32P7351.c"	break;
0003ad   a41a     goto    0x41a            	GOTO	_00509_DS_
                                           ;;unsigned compare: left < lit(0x8=8), size=1
                                           _00472_DS_
                                           ;	.line	597; "MC32P7351.c"	else if (cnt >= 8 || over_charging_cnt >= 8)
0003ae   3c08     movai   0x8              	MOVAI	0x08
0003af   4828     rsubar  0x28             	RSUBAR	_adc_scan_handle_cnt_65536_106
0003b0   f187     jbclr   0x187, 0         	JBCLR	PFLAG,0
0003b1   a3b6     goto    0x3b6            	GOTO	_00467_DS_
                                           ;;genSkipc:3291: created from rifx:013B5EFC
                                           ;;unsigned compare: left < lit(0x8=8), size=1
0003b2   3c08     movai   0x8              	MOVAI	0x08
0003b3   4889     rsubar  0x89             	RSUBAR	_over_charging_cnt
0003b4   e187     jbset   0x187, 0         	JBSET	PFLAG,0
0003b5   a3c7     goto    0x3c7            	GOTO	_00468_DS_
                                           ;;genSkipc:3291: created from rifx:013B5EFC
                                           _00467_DS_
                                           ;	.line	600; "MC32P7351.c"	full_charge_cnt++;
0003b6   668a     incr    0x8a             	INCR	_full_charge_cnt
                                           ;;unsigned compare: left < lit(0x64=100), size=1
                                           ;	.line	601; "MC32P7351.c"	if (full_charge_cnt >= 100 || over_charging_cnt >= 8) // 5.5s
0003b7   3c64     movai   0x64             	MOVAI	0x64
0003b8   488a     rsubar  0x8a             	RSUBAR	_full_charge_cnt
0003b9   f187     jbclr   0x187, 0         	JBCLR	PFLAG,0
0003ba   a3bf     goto    0x3bf            	GOTO	_00459_DS_
                                           ;;genSkipc:3291: created from rifx:013B5EFC
                                           ;;unsigned compare: left < lit(0x8=8), size=1
0003bb   3c08     movai   0x8              	MOVAI	0x08
0003bc   4889     rsubar  0x89             	RSUBAR	_over_charging_cnt
0003bd   e187     jbset   0x187, 0         	JBSET	PFLAG,0
0003be   a417     goto    0x417            	GOTO	_00508_DS_
                                           ;;genSkipc:3291: created from rifx:013B5EFC
                                           _00459_DS_
                                           ;	.line	603; "MC32P7351.c"	full_charge_cnt = 0; //
0003bf   768a     clrr    0x8a             	CLRR	_full_charge_cnt
                                           ;	.line	605; "MC32P7351.c"	PWM2EC = 0; // pwm
0003c0   dda0     bclr    0x1a0, 0x6       	BCLR	_T2CRbits,6
                                           ;	.line	606; "MC32P7351.c"	T2DATA = 0;
0003c1   77a3     clrr    0x1a3            	CLRR	_T2DATA
                                           ;	.line	608; "MC32P7351.c"	FLAG_BAT_IS_NEED_CHARGE = 0;
0003c2   d88d     bclr    0x8d, 0x4        	BCLR	_flag1,4
                                           ;	.line	609; "MC32P7351.c"	FLAG_BAT_IS_FULL = 1;
0003c3   ca8d     bset    0x8d, 0x5        	BSET	_flag1,5
                                           ;	.line	611; "MC32P7351.c"	LED_CHARGING_OFF(); // 
0003c4   c990     bset    0x190, 0x4       	BSET	_IOP0bits,4
                                           ;	.line	614; "MC32P7351.c"	LED_WORKING_ON(); // 
0003c5   d994     bclr    0x194, 0x4       	BCLR	_IOP1bits,4
                                           ;	.line	615; "MC32P7351.c"	break;
0003c6   a41a     goto    0x41a            	GOTO	_00509_DS_
                                           ;;unsigned compare: left < lit(0x8=8), size=1
                                           _00468_DS_
                                           ;	.line	618; "MC32P7351.c"	else if (need_charge_cnt >= 8)
0003c7   3c08     movai   0x8              	MOVAI	0x08
0003c8   4829     rsubar  0x29             	RSUBAR	_adc_scan_handle_need_charge_cnt_65536_106
0003c9   e187     jbset   0x187, 0         	JBSET	PFLAG,0
0003ca   a417     goto    0x417            	GOTO	_00508_DS_
                                           ;;genSkipc:3291: created from rifx:013B5EFC
                                           ;	.line	622; "MC32P7351.c"	LED_FULL_CHARGE_OFF(); // 
0003cb   c790     bset    0x190, 0x3       	BSET	_IOP0bits,3
                                           ;	.line	623; "MC32P7351.c"	FLAG_BAT_IS_NEED_CHARGE = 1;
0003cc   c88d     bset    0x8d, 0x4        	BSET	_flag1,4
                                           ;	.line	624; "MC32P7351.c"	FLAG_BAT_IS_FULL = 0;
0003cd   da8d     bclr    0x8d, 0x5        	BCLR	_flag1,5
                                           ;	.line	625; "MC32P7351.c"	break;
0003ce   a41a     goto    0x41a            	GOTO	_00509_DS_
                                           _00507_DS_
                                           ;	.line	631; "MC32P7351.c"	if (flag_bat_is_empty == 0 && adc_val <= ADCDETECT_BAT_FULL - ((ADCDETECT_BAT_FULL - ADCDETECT_BAT_WILL_FULL) / 2))
0003cf   3c00     movai   0                	MOVAI	0x00
0003d0   5c88     orar    0x88             	ORAR	_flag_bat_is_empty
0003d1   e587     jbset   0x187, 0x2       	JBSET	PFLAG,2
0003d2   a3dc     goto    0x3dc            	GOTO	_00475_DS_
                                           ;;swapping arguments (AOP_TYPEs 1/3)
                                           ;;unsigned compare: left >= lit(0xDE6=3558), size=2
0003d3   3c0d     movai   0xd              	MOVAI	0x0d
0003d4   487a     rsubar  0x7a             	RSUBAR	(_adc_val + 1)
0003d5   e587     jbset   0x187, 0x2       	JBSET	PFLAG,2
0003d6   a3d9     goto    0x3d9            	GOTO	_00715_DS_
0003d7   3ce6     movai   0xe6             	MOVAI	0xe6
0003d8   4879     rsubar  0x79             	RSUBAR	_adc_val
                                           _00715_DS_
0003d9   f187     jbclr   0x187, 0         	JBCLR	PFLAG,0
0003da   a3dc     goto    0x3dc            	GOTO	_00475_DS_
                                           ;;genSkipc:3291: created from rifx:013B5EFC
                                           ;	.line	633; "MC32P7351.c"	cnt++;
0003db   6628     incr    0x28             	INCR	_adc_scan_handle_cnt_65536_106
                                           ;;unsigned compare: left < lit(0x8=8), size=1
                                           _00475_DS_
                                           ;	.line	636; "MC32P7351.c"	if (cnt >= 8)
0003dc   3c08     movai   0x8              	MOVAI	0x08
0003dd   4828     rsubar  0x28             	RSUBAR	_adc_scan_handle_cnt_65536_106
0003de   e187     jbset   0x187, 0         	JBSET	PFLAG,0
0003df   a3e3     goto    0x3e3            	GOTO	_00478_DS_
                                           ;;genSkipc:3291: created from rifx:013B5EFC
                                           ;	.line	639; "MC32P7351.c"	FLAG_BAT_IS_NEED_CHARGE = 1;
0003e0   c88d     bset    0x8d, 0x4        	BSET	_flag1,4
                                           ;	.line	640; "MC32P7351.c"	FLAG_BAT_IS_FULL = 0;
0003e1   da8d     bclr    0x8d, 0x5        	BCLR	_flag1,5
                                           ;	.line	641; "MC32P7351.c"	break;
0003e2   a41a     goto    0x41a            	GOTO	_00509_DS_
                                           _00478_DS_
                                           ;	.line	645; "MC32P7351.c"	flag_bat_is_empty == 0 &&  /*  */
0003e3   3c00     movai   0                	MOVAI	0x00
0003e4   5c88     orar    0x88             	ORAR	_flag_bat_is_empty
0003e5   e587     jbset   0x187, 0x2       	JBSET	PFLAG,2
0003e6   a3f3     goto    0x3f3            	GOTO	_00485_DS_
                                           ;	.line	646; "MC32P7351.c"	FLAG_IS_DEVICE_OPEN &&     /*  */
0003e7   e08d     jbset   0x8d, 0          	JBSET	_flag1,0
0003e8   a3f3     goto    0x3f3            	GOTO	_00485_DS_
                                           ;;unsigned compare: left < lit(0xA93=2707), size=2
                                           ;	.line	648; "MC32P7351.c"	)
0003e9   3c0a     movai   0xa              	MOVAI	0x0a
0003ea   487a     rsubar  0x7a             	RSUBAR	(_adc_val + 1)
0003eb   e587     jbset   0x187, 0x2       	JBSET	PFLAG,2
0003ec   a3ef     goto    0x3ef            	GOTO	_00717_DS_
0003ed   3c93     movai   0x93             	MOVAI	0x93
0003ee   4879     rsubar  0x79             	RSUBAR	_adc_val
                                           _00717_DS_
0003ef   f187     jbclr   0x187, 0         	JBCLR	PFLAG,0
0003f0   a3f3     goto    0x3f3            	GOTO	_00485_DS_
                                           ;;genSkipc:3291: created from rifx:013B5EFC
                                           ;	.line	650; "MC32P7351.c"	flag_tim_scan_maybe_shut_down = 1;
0003f1   c68f     bset    0x8f, 0x3        	BSET	_flag3,3
0003f2   a406     goto    0x406            	GOTO	_00486_DS_
                                           _00485_DS_
                                           ;	.line	652; "MC32P7351.c"	else if (flag_bat_is_empty == 0 &&
0003f3   3c00     movai   0                	MOVAI	0x00
0003f4   5c88     orar    0x88             	ORAR	_flag_bat_is_empty
0003f5   e587     jbset   0x187, 0x2       	JBSET	PFLAG,2
0003f6   a404     goto    0x404            	GOTO	_00480_DS_
                                           ;	.line	653; "MC32P7351.c"	FLAG_IS_DEVICE_OPEN &&
0003f7   e08d     jbset   0x8d, 0          	JBSET	_flag1,0
0003f8   a404     goto    0x404            	GOTO	_00480_DS_
                                           ;;unsigned compare: left < lit(0xB15=2837), size=2
                                           ;	.line	654; "MC32P7351.c"	adc_val < LOW_BATTERY_AD_VAL)
0003f9   3c0b     movai   0xb              	MOVAI	0x0b
0003fa   487a     rsubar  0x7a             	RSUBAR	(_adc_val + 1)
0003fb   e587     jbset   0x187, 0x2       	JBSET	PFLAG,2
0003fc   a3ff     goto    0x3ff            	GOTO	_00718_DS_
0003fd   3c15     movai   0x15             	MOVAI	0x15
0003fe   4879     rsubar  0x79             	RSUBAR	_adc_val
                                           _00718_DS_
0003ff   f187     jbclr   0x187, 0         	JBCLR	PFLAG,0
000400   a404     goto    0x404            	GOTO	_00480_DS_
                                           ;;genSkipc:3291: created from rifx:013B5EFC
                                           ;	.line	657; "MC32P7351.c"	flag_maybe_low_battery = 1;
000401   c48f     bset    0x8f, 0x2        	BSET	_flag3,2
                                           ;	.line	658; "MC32P7351.c"	flag_tim_scan_maybe_shut_down = 0;
000402   d68f     bclr    0x8f, 0x3        	BCLR	_flag3,3
000403   a406     goto    0x406            	GOTO	_00486_DS_
                                           _00480_DS_
                                           ;	.line	662; "MC32P7351.c"	flag_maybe_low_battery = 0;
000404   d48f     bclr    0x8f, 0x2        	BCLR	_flag3,2
                                           ;	.line	663; "MC32P7351.c"	flag_tim_scan_maybe_shut_down = 0;
000405   d68f     bclr    0x8f, 0x3        	BCLR	_flag3,3
                                           _00486_DS_
                                           ;	.line	667; "MC32P7351.c"	if (flag_is_needed_shut_down && FLAG_IS_DEVICE_OPEN)
000406   e88f     jbset   0x8f, 0x4        	JBSET	_flag3,4
000407   a417     goto    0x417            	GOTO	_00508_DS_
000408   e08d     jbset   0x8d, 0          	JBSET	_flag1,0
000409   a417     goto    0x417            	GOTO	_00508_DS_
                                           ;	.line	669; "MC32P7351.c"	flag_is_needed_shut_down = 0;
00040a   d88f     bclr    0x8f, 0x4        	BCLR	_flag3,4
                                           ;	.line	671; "MC32P7351.c"	LED_WORKING_OFF(); // 
00040b   c994     bset    0x194, 0x4       	BSET	_IOP1bits,4
                                           ;	.line	672; "MC32P7351.c"	LED_CHARGING_OFF();
00040c   c990     bset    0x190, 0x4       	BSET	_IOP0bits,4
                                           ;	.line	673; "MC32P7351.c"	HEATING_OFF(); // 
00040d   d594     bclr    0x194, 0x2       	BCLR	_IOP1bits,2
                                           ;	.line	674; "MC32P7351.c"	FLAG_IS_DEVICE_OPEN = 0;
00040e   d08d     bclr    0x8d, 0          	BCLR	_flag1,0
                                           ;	.line	675; "MC32P7351.c"	FLAG_IS_HEATING = 0;
00040f   d28d     bclr    0x8d, 0x1        	BCLR	_flag1,1
                                           ;	.line	677; "MC32P7351.c"	if (flag_is_low_battery)
000410   e48e     jbset   0x8e, 0x2        	JBSET	_flag2,2
000411   a414     goto    0x414            	GOTO	_00502_DS_
                                           ;	.line	680; "MC32P7351.c"	flag_is_low_battery = 0;
000412   d48e     bclr    0x8e, 0x2        	BCLR	_flag2,2
                                           ;	.line	681; "MC32P7351.c"	LED_CHARGING_OFF(); // LED
000413   c990     bset    0x190, 0x4       	BSET	_IOP0bits,4
                                           _00502_DS_
                                           ;	.line	684; "MC32P7351.c"	mode_flag = MODE_1; //  MODE_2
000414   7684     clrr    0x84             	CLRR	_mode_flag
                                           ;	.line	687; "MC32P7351.c"	PWM0EC = 0;
000415   dd98     bclr    0x198, 0x6       	BCLR	_T0CRbits,6
                                           ;	.line	688; "MC32P7351.c"	PWM1EC = 0;
000416   dd9c     bclr    0x19c, 0x6       	BCLR	_T1CRbits,6
                                           _00508_DS_
                                           ;	.line	693; "MC32P7351.c"	key_event_handle();
000417   8483     call    0x483            	CALL	_key_event_handle
                                           ;	.line	557; "MC32P7351.c"	for (i = 0; i < 10; i++)      //  // 55ms4.8ms
000418   6686     incr    0x86             	INCR	_i
000419   a373     goto    0x373            	GOTO	_00559_DS_
                                           _00509_DS_
                                           ;	.line	696; "MC32P7351.c"	cnt = 0;
00041a   7628     clrr    0x28             	CLRR	_adc_scan_handle_cnt_65536_106
                                           ;	.line	697; "MC32P7351.c"	adc_sel_pin(ADC_PIN_P00_AN0); // ( == USB-C / 2)
00041b   3c01     movai   0x1              	MOVAI	0x01
00041c   8620     call    0x620            	CALL	_adc_sel_pin
                                           ;	.line	698; "MC32P7351.c"	for (i = 0; i < 10; i++)
00041d   7686     clrr    0x86             	CLRR	_i
                                           ;;unsigned compare: left < lit(0xA=10), size=1
                                           _00562_DS_
00041e   3c0a     movai   0xa              	MOVAI	0x0a
00041f   4886     rsubar  0x86             	RSUBAR	_i
000420   f187     jbclr   0x187, 0         	JBCLR	PFLAG,0
000421   a482     goto    0x482            	GOTO	_00564_DS_
                                           ;;genSkipc:3291: created from rifx:013B5EFC
                                           ;	.line	700; "MC32P7351.c"	adc_val = adc_get_val();
000422   8583     call    0x583            	CALL	_adc_get_val
000423   567a     movra   0x7a             	MOVRA	(_adc_val + 1)
000424   5806     movar   0x6              	MOVAR	STK00
000425   5679     movra   0x79             	MOVRA	_adc_val
                                           ;	.line	701; "MC32P7351.c"	if (flag_bat_is_empty) // 
000426   3c00     movai   0                	MOVAI	0x00
000427   5c88     orar    0x88             	ORAR	_flag_bat_is_empty
000428   f587     jbclr   0x187, 0x2       	JBCLR	PFLAG,2
000429   a42e     goto    0x42e            	GOTO	_00511_DS_
                                           ;	.line	703; "MC32P7351.c"	adc_val = 4095; // if (adc_val < ADCDETECT_CHARING_THRESHOLD)
00042a   3cff     movai   0xff             	MOVAI	0xff
00042b   5679     movra   0x79             	MOVRA	_adc_val
00042c   3c0f     movai   0xf              	MOVAI	0x0f
00042d   567a     movra   0x7a             	MOVRA	(_adc_val + 1)
                                           _00511_DS_
                                           ;	.line	706; "MC32P7351.c"	if (adc_charging_val != 0)
00042e   587b     movar   0x7b             	MOVAR	_adc_charging_val
00042f   5c7c     orar    0x7c             	ORAR	(_adc_charging_val + 1)
000430   f587     jbclr   0x187, 0x2       	JBCLR	PFLAG,2
000431   a43c     goto    0x43c            	GOTO	_00513_DS_
                                           ;	.line	708; "MC32P7351.c"	adc_charging_val += adc_val;
000432   5879     movar   0x79             	MOVAR	_adc_val
000433   7e7b     addra   0x7b             	ADDRA	_adc_charging_val
000434   587a     movar   0x7a             	MOVAR	(_adc_val + 1)
000435   f187     jbclr   0x187, 0         	JBCLR	PFLAG,0
000436   607a     jzar    0x7a             	JZAR	(_adc_val + 1)
000437   7e7c     addra   0x7c             	ADDRA	(_adc_charging_val + 1)
                                           ;;shiftRight_Left2ResultLit:5339: shCount=1, size=2, sign=0, same=1, offr=0
                                           ;	.line	709; "MC32P7351.c"	adc_charging_val /= 2;
000438   d187     bclr    0x187, 0         	BCLR	PFLAG,0
000439   4e7c     rrr     0x7c             	RRR	(_adc_charging_val + 1)
00043a   4e7b     rrr     0x7b             	RRR	_adc_charging_val
00043b   a442     goto    0x442            	GOTO	_00514_DS_
                                           _00513_DS_
                                           ;	.line	713; "MC32P7351.c"	adc_charging_val += adc_val;
00043c   5879     movar   0x79             	MOVAR	_adc_val
00043d   7e7b     addra   0x7b             	ADDRA	_adc_charging_val
00043e   587a     movar   0x7a             	MOVAR	(_adc_val + 1)
00043f   f187     jbclr   0x187, 0         	JBCLR	PFLAG,0
000440   607a     jzar    0x7a             	JZAR	(_adc_val + 1)
000441   7e7c     addra   0x7c             	ADDRA	(_adc_charging_val + 1)
                                           _00514_DS_
                                           ;	.line	716; "MC32P7351.c"	if (FLAG_IS_IN_CHARGING)
000442   e48d     jbset   0x8d, 0x2        	JBSET	_flag1,2
000443   a460     goto    0x460            	GOTO	_00555_DS_
                                           ;;unsigned compare: left < lit(0x800=2048), size=2
                                           ;	.line	719; "MC32P7351.c"	if (adc_val < ADCDETECT_CHARING_THRESHOLD)
000444   3c08     movai   0x8              	MOVAI	0x08
000445   487a     rsubar  0x7a             	RSUBAR	(_adc_val + 1)
000446   e587     jbset   0x187, 0x2       	JBSET	PFLAG,2
000447   a44a     goto    0x44a            	GOTO	_00720_DS_
000448   3c00     movai   0                	MOVAI	0x00
000449   4879     rsubar  0x79             	RSUBAR	_adc_val
                                           _00720_DS_
00044a   f187     jbclr   0x187, 0         	JBCLR	PFLAG,0
00044b   a44d     goto    0x44d            	GOTO	_00516_DS_
                                           ;;genSkipc:3291: created from rifx:013B5EFC
                                           ;	.line	721; "MC32P7351.c"	cnt++;
00044c   6628     incr    0x28             	INCR	_adc_scan_handle_cnt_65536_106
                                           ;;unsigned compare: left < lit(0x8=8), size=1
                                           _00516_DS_
                                           ;	.line	724; "MC32P7351.c"	if (cnt >= 8)
00044d   3c08     movai   0x8              	MOVAI	0x08
00044e   4828     rsubar  0x28             	RSUBAR	_adc_scan_handle_cnt_65536_106
00044f   e187     jbset   0x187, 0         	JBSET	PFLAG,0
000450   a459     goto    0x459            	GOTO	_00527_DS_
                                           ;;genSkipc:3291: created from rifx:013B5EFC
                                           ;	.line	727; "MC32P7351.c"	FLAG_IS_IN_CHARGING = 0;
000451   d48d     bclr    0x8d, 0x2        	BCLR	_flag1,2
                                           ;	.line	728; "MC32P7351.c"	LED_CHARGING_OFF(); // 
000452   c990     bset    0x190, 0x4       	BSET	_IOP0bits,4
                                           ;	.line	729; "MC32P7351.c"	PWM2EC = 0;         // pwm
000453   dda0     bclr    0x1a0, 0x6       	BCLR	_T2CRbits,6
                                           ;	.line	730; "MC32P7351.c"	T2DATA = 0;
000454   77a3     clrr    0x1a3            	CLRR	_T2DATA
                                           ;	.line	731; "MC32P7351.c"	LED_FULL_CHARGE_OFF(); // 
000455   c790     bset    0x190, 0x3       	BSET	_IOP0bits,3
                                           ;	.line	732; "MC32P7351.c"	LED_WORKING_OFF();     // 
000456   c994     bset    0x194, 0x4       	BSET	_IOP1bits,4
                                           ;	.line	734; "MC32P7351.c"	FLAG_DURING_CHARGING_BAT_IS_NULL = 0; // 
000457   de8d     bclr    0x8d, 0x7        	BCLR	_flag1,7
                                           ;	.line	735; "MC32P7351.c"	break;
000458   a482     goto    0x482            	GOTO	_00564_DS_
                                           _00527_DS_
                                           ;	.line	738; "MC32P7351.c"	if (FLAG_IS_DEVICE_OPEN)
000459   f08d     jbclr   0x8d, 0          	JBCLR	_flag1,0
00045a   a47f     goto    0x47f            	GOTO	_00556_DS_
                                           ;	.line	743; "MC32P7351.c"	if (FLAG_BAT_IS_FULL)
00045b   fa8d     jbclr   0x8d, 0x5        	JBCLR	_flag1,5
00045c   a47f     goto    0x47f            	GOTO	_00556_DS_
                                           ;	.line	749; "MC32P7351.c"	LED_FULL_CHARGE_OFF();
00045d   c790     bset    0x190, 0x3       	BSET	_IOP0bits,3
                                           ;	.line	750; "MC32P7351.c"	LED_WORKING_OFF();
00045e   c994     bset    0x194, 0x4       	BSET	_IOP1bits,4
00045f   a47f     goto    0x47f            	GOTO	_00556_DS_
                                           _00555_DS_
                                           ;	.line	758; "MC32P7351.c"	if (flag_bat_is_empty == 0 && adc_val >= ADCDETECT_CHARING_THRESHOLD)
000460   3c00     movai   0                	MOVAI	0x00
000461   5c88     orar    0x88             	ORAR	_flag_bat_is_empty
000462   e587     jbset   0x187, 0x2       	JBSET	PFLAG,2
000463   a46d     goto    0x46d            	GOTO	_00541_DS_
                                           ;;unsigned compare: left < lit(0x800=2048), size=2
000464   3c08     movai   0x8              	MOVAI	0x08
000465   487a     rsubar  0x7a             	RSUBAR	(_adc_val + 1)
000466   e587     jbset   0x187, 0x2       	JBSET	PFLAG,2
000467   a46a     goto    0x46a            	GOTO	_00722_DS_
000468   3c00     movai   0                	MOVAI	0x00
000469   4879     rsubar  0x79             	RSUBAR	_adc_val
                                           _00722_DS_
00046a   e187     jbset   0x187, 0         	JBSET	PFLAG,0
00046b   a46d     goto    0x46d            	GOTO	_00541_DS_
                                           ;;genSkipc:3291: created from rifx:013B5EFC
                                           ;	.line	760; "MC32P7351.c"	cnt++;
00046c   6628     incr    0x28             	INCR	_adc_scan_handle_cnt_65536_106
                                           ;;unsigned compare: left < lit(0x8=8), size=1
                                           _00541_DS_
                                           ;	.line	763; "MC32P7351.c"	if (cnt >= 8)
00046d   3c08     movai   0x8              	MOVAI	0x08
00046e   4828     rsubar  0x28             	RSUBAR	_adc_scan_handle_cnt_65536_106
00046f   e187     jbset   0x187, 0         	JBSET	PFLAG,0
000470   a47f     goto    0x47f            	GOTO	_00556_DS_
                                           ;;genSkipc:3291: created from rifx:013B5EFC
                                           ;	.line	766; "MC32P7351.c"	full_charge_cnt = 0;
000471   768a     clrr    0x8a             	CLRR	_full_charge_cnt
                                           ;	.line	767; "MC32P7351.c"	over_charging_cnt = 0;
000472   7689     clrr    0x89             	CLRR	_over_charging_cnt
                                           ;	.line	769; "MC32P7351.c"	FLAG_IS_IN_CHARGING = 1;
000473   c48d     bset    0x8d, 0x2        	BSET	_flag1,2
                                           ;	.line	772; "MC32P7351.c"	PWM2EC = 1; // pwm
000474   cda0     bset    0x1a0, 0x6       	BSET	_T2CRbits,6
                                           ;	.line	773; "MC32P7351.c"	LED_FULL_CHARGE_OFF();
000475   c790     bset    0x190, 0x3       	BSET	_IOP0bits,3
                                           ;	.line	774; "MC32P7351.c"	LED_WORKING_OFF(); // 
000476   c994     bset    0x194, 0x4       	BSET	_IOP1bits,4
                                           ;	.line	775; "MC32P7351.c"	HEATING_OFF();     // 
000477   d594     bclr    0x194, 0x2       	BCLR	_IOP1bits,2
                                           ;	.line	776; "MC32P7351.c"	FLAG_IS_DEVICE_OPEN = 0;
000478   d08d     bclr    0x8d, 0          	BCLR	_flag1,0
                                           ;	.line	777; "MC32P7351.c"	FLAG_IS_HEATING = 0;
000479   d28d     bclr    0x8d, 0x1        	BCLR	_flag1,1
                                           ;	.line	778; "MC32P7351.c"	mode_flag = MODE_1; //  MODE_2
00047a   7684     clrr    0x84             	CLRR	_mode_flag
                                           ;	.line	780; "MC32P7351.c"	PWM0EC = 0;
00047b   dd98     bclr    0x198, 0x6       	BCLR	_T0CRbits,6
                                           ;	.line	781; "MC32P7351.c"	PWM1EC = 0;
00047c   dd9c     bclr    0x19c, 0x6       	BCLR	_T1CRbits,6
                                           ;	.line	783; "MC32P7351.c"	flag_is_low_battery = 0; // 
00047d   d48e     bclr    0x8e, 0x2        	BCLR	_flag2,2
                                           ;	.line	784; "MC32P7351.c"	break;
00047e   a482     goto    0x482            	GOTO	_00564_DS_
                                           _00556_DS_
                                           ;	.line	809; "MC32P7351.c"	key_event_handle();
00047f   8483     call    0x483            	CALL	_key_event_handle
                                           ;	.line	698; "MC32P7351.c"	for (i = 0; i < 10; i++)
000480   6686     incr    0x86             	INCR	_i
000481   a41e     goto    0x41e            	GOTO	_00562_DS_
                                           _00564_DS_
                                           ;	.line	811; "MC32P7351.c"	}
000482   000c     return                   	RETURN	
                                           ; exit point of _adc_scan_handle
                                           
                                           ;***
                                           ;  pBlock Stats: dbName = C
                                           ;***
                                           ;entry:  _key_event_handle	;Function start
                                           ; 2 exit points
                                           ;has an exit
                                           ;; Starting pCode block
                                           _key_event_handle	;Function start
                                           ; 2 exit points
                                           ;	.line	438; "MC32P7351.c"	if (FLAG_IS_DEVICE_OPEN)
000483   e08d     jbset   0x8d, 0          	JBSET	_flag1,0
000484   a4dc     goto    0x4dc            	GOTO	_00435_DS_
                                           ;	.line	441; "MC32P7351.c"	if (KEY_EVENT_MODE_HOLD == key_event)
000485   5883     movar   0x83             	MOVAR	_key_event
000486   3903     xorai   0x3              	XORAI	0x03
000487   e587     jbset   0x187, 0x2       	JBSET	PFLAG,2
000488   a496     goto    0x496            	GOTO	_00420_DS_
                                           ;	.line	444; "MC32P7351.c"	LED_WORKING_OFF(); // 
000489   c994     bset    0x194, 0x4       	BSET	_IOP1bits,4
                                           ;	.line	445; "MC32P7351.c"	LED_CHARGING_OFF();
00048a   c990     bset    0x190, 0x4       	BSET	_IOP0bits,4
                                           ;	.line	446; "MC32P7351.c"	HEATING_OFF(); // 
00048b   d594     bclr    0x194, 0x2       	BCLR	_IOP1bits,2
                                           ;	.line	447; "MC32P7351.c"	FLAG_IS_DEVICE_OPEN = 0;
00048c   d08d     bclr    0x8d, 0          	BCLR	_flag1,0
                                           ;	.line	448; "MC32P7351.c"	FLAG_IS_HEATING = 0;
00048d   d28d     bclr    0x8d, 0x1        	BCLR	_flag1,1
                                           ;	.line	450; "MC32P7351.c"	if (flag_is_low_battery)
00048e   e48e     jbset   0x8e, 0x2        	JBSET	_flag2,2
00048f   a492     goto    0x492            	GOTO	_00381_DS_
                                           ;	.line	453; "MC32P7351.c"	flag_is_low_battery = 0;
000490   d48e     bclr    0x8e, 0x2        	BCLR	_flag2,2
                                           ;	.line	454; "MC32P7351.c"	LED_CHARGING_OFF(); // LED
000491   c990     bset    0x190, 0x4       	BSET	_IOP0bits,4
                                           _00381_DS_
                                           ;	.line	457; "MC32P7351.c"	mode_flag = MODE_1; //  MODE_2
000492   7684     clrr    0x84             	CLRR	_mode_flag
                                           ;	.line	460; "MC32P7351.c"	PWM0EC = 0;
000493   dd98     bclr    0x198, 0x6       	BCLR	_T0CRbits,6
                                           ;	.line	461; "MC32P7351.c"	PWM1EC = 0;
000494   dd9c     bclr    0x19c, 0x6       	BCLR	_T1CRbits,6
000495   a4ec     goto    0x4ec            	GOTO	_00436_DS_
                                           _00420_DS_
                                           ;	.line	463; "MC32P7351.c"	else if (KEY_EVENT_MODE_PRESS == key_event)
000496   5883     movar   0x83             	MOVAR	_key_event
000497   3902     xorai   0x2              	XORAI	0x02
000498   e587     jbset   0x187, 0x2       	JBSET	PFLAG,2
000499   a4cc     goto    0x4cc            	GOTO	_00417_DS_
                                           ;	.line	465; "MC32P7351.c"	if (MODE_1 == mode_flag)
00049a   3c00     movai   0                	MOVAI	0x00
00049b   5c84     orar    0x84             	ORAR	_mode_flag
00049c   e587     jbset   0x187, 0x2       	JBSET	PFLAG,2
00049d   a4a6     goto    0x4a6            	GOTO	_00391_DS_
                                           ;	.line	468; "MC32P7351.c"	T0DATA = 160;
00049e   3ca0     movai   0xa0             	MOVAI	0xa0
00049f   579b     movra   0x19b            	MOVRA	_T0DATA
                                           ;	.line	469; "MC32P7351.c"	T1DATA = 160;
0004a0   3ca0     movai   0xa0             	MOVAI	0xa0
0004a1   579f     movra   0x19f            	MOVRA	_T1DATA
                                           ;	.line	471; "MC32P7351.c"	mode_flag = MODE_2;
0004a2   3c01     movai   0x1              	MOVAI	0x01
0004a3   5684     movra   0x84             	MOVRA	_mode_flag
                                           ;	.line	472; "MC32P7351.c"	flag_ctl_dir = 1;
0004a4   c08f     bset    0x8f, 0          	BSET	_flag3,0
0004a5   a4c7     goto    0x4c7            	GOTO	_00392_DS_
                                           _00391_DS_
                                           ;	.line	474; "MC32P7351.c"	else if (MODE_2 == mode_flag)
0004a6   5884     movar   0x84             	MOVAR	_mode_flag
0004a7   3901     xorai   0x1              	XORAI	0x01
0004a8   e587     jbset   0x187, 0x2       	JBSET	PFLAG,2
0004a9   a4b2     goto    0x4b2            	GOTO	_00388_DS_
                                           ;	.line	477; "MC32P7351.c"	T0DATA = 255;
0004aa   3cff     movai   0xff             	MOVAI	0xff
0004ab   579b     movra   0x19b            	MOVRA	_T0DATA
                                           ;	.line	478; "MC32P7351.c"	T1DATA = 255; // 100%TxLOAD
0004ac   3cff     movai   0xff             	MOVAI	0xff
0004ad   579f     movra   0x19f            	MOVRA	_T1DATA
                                           ;	.line	480; "MC32P7351.c"	mode_flag = MODE_3;
0004ae   3c02     movai   0x2              	MOVAI	0x02
0004af   5684     movra   0x84             	MOVRA	_mode_flag
                                           ;	.line	481; "MC32P7351.c"	flag_ctl_dir = 1;
0004b0   c08f     bset    0x8f, 0          	BSET	_flag3,0
0004b1   a4c7     goto    0x4c7            	GOTO	_00392_DS_
                                           _00388_DS_
                                           ;	.line	483; "MC32P7351.c"	else if (MODE_3 == mode_flag)
0004b2   5884     movar   0x84             	MOVAR	_mode_flag
0004b3   3902     xorai   0x2              	XORAI	0x02
0004b4   e587     jbset   0x187, 0x2       	JBSET	PFLAG,2
0004b5   a4bd     goto    0x4bd            	GOTO	_00385_DS_
                                           ;	.line	486; "MC32P7351.c"	T0DATA = 0;
0004b6   779b     clrr    0x19b            	CLRR	_T0DATA
                                           ;	.line	487; "MC32P7351.c"	T1DATA = 0;
0004b7   779f     clrr    0x19f            	CLRR	_T1DATA
                                           ;	.line	488; "MC32P7351.c"	PWM0EC = 0;
0004b8   dd98     bclr    0x198, 0x6       	BCLR	_T0CRbits,6
                                           ;	.line	489; "MC32P7351.c"	PWM1EC = 0;
0004b9   dd9c     bclr    0x19c, 0x6       	BCLR	_T1CRbits,6
                                           ;	.line	490; "MC32P7351.c"	mode_flag = MODE_4;
0004ba   3c03     movai   0x3              	MOVAI	0x03
0004bb   5684     movra   0x84             	MOVRA	_mode_flag
0004bc   a4c7     goto    0x4c7            	GOTO	_00392_DS_
                                           _00385_DS_
                                           ;	.line	492; "MC32P7351.c"	else if (MODE_4 == mode_flag)
0004bd   5884     movar   0x84             	MOVAR	_mode_flag
0004be   3903     xorai   0x3              	XORAI	0x03
0004bf   e587     jbset   0x187, 0x2       	JBSET	PFLAG,2
0004c0   a4c7     goto    0x4c7            	GOTO	_00392_DS_
                                           ;	.line	496; "MC32P7351.c"	T0DATA = 150;
0004c1   3c96     movai   0x96             	MOVAI	0x96
0004c2   579b     movra   0x19b            	MOVRA	_T0DATA
                                           ;	.line	497; "MC32P7351.c"	T1DATA = 150;
0004c3   3c96     movai   0x96             	MOVAI	0x96
0004c4   579f     movra   0x19f            	MOVRA	_T1DATA
                                           ;	.line	498; "MC32P7351.c"	mode_flag = MODE_1;
0004c5   7684     clrr    0x84             	CLRR	_mode_flag
                                           ;	.line	499; "MC32P7351.c"	flag_ctl_dir = 1;
0004c6   c08f     bset    0x8f, 0          	BSET	_flag3,0
                                           _00392_DS_
                                           ;	.line	502; "MC32P7351.c"	turn_dir_ms_cnt = 0; // 
0004c7   7669     clrr    0x69             	CLRR	_turn_dir_ms_cnt
0004c8   766a     clrr    0x6a             	CLRR	(_turn_dir_ms_cnt + 1)
0004c9   766b     clrr    0x6b             	CLRR	(_turn_dir_ms_cnt + 2)
0004ca   766c     clrr    0x6c             	CLRR	(_turn_dir_ms_cnt + 3)
0004cb   a4ec     goto    0x4ec            	GOTO	_00436_DS_
                                           _00417_DS_
                                           ;	.line	504; "MC32P7351.c"	else if (KEY_EVENT_HEAT_PRESS == key_event)
0004cc   5883     movar   0x83             	MOVAR	_key_event
0004cd   3901     xorai   0x1              	XORAI	0x01
0004ce   e587     jbset   0x187, 0x2       	JBSET	PFLAG,2
0004cf   a4ec     goto    0x4ec            	GOTO	_00436_DS_
                                           ;	.line	506; "MC32P7351.c"	if (0 == FLAG_IS_HEATING)
0004d0   f28d     jbclr   0x8d, 0x1        	JBCLR	_flag1,1
0004d1   a4d7     goto    0x4d7            	GOTO	_00402_DS_
                                           ;	.line	508; "MC32P7351.c"	HEATING_ON(); // 
0004d2   c594     bset    0x194, 0x2       	BSET	_IOP1bits,2
                                           ;	.line	509; "MC32P7351.c"	LED_WORKING_OFF();
0004d3   c994     bset    0x194, 0x4       	BSET	_IOP1bits,4
                                           ;	.line	510; "MC32P7351.c"	LED_CHARGING_ON();
0004d4   d990     bclr    0x190, 0x4       	BCLR	_IOP0bits,4
                                           ;	.line	511; "MC32P7351.c"	FLAG_IS_HEATING = 1;
0004d5   c28d     bset    0x8d, 0x1        	BSET	_flag1,1
0004d6   a4ec     goto    0x4ec            	GOTO	_00436_DS_
                                           _00402_DS_
                                           ;	.line	515; "MC32P7351.c"	HEATING_OFF(); // 
0004d7   d594     bclr    0x194, 0x2       	BCLR	_IOP1bits,2
                                           ;	.line	516; "MC32P7351.c"	LED_CHARGING_OFF();
0004d8   c990     bset    0x190, 0x4       	BSET	_IOP0bits,4
                                           ;	.line	517; "MC32P7351.c"	LED_WORKING_ON();
0004d9   d994     bclr    0x194, 0x4       	BCLR	_IOP1bits,4
                                           ;	.line	518; "MC32P7351.c"	FLAG_IS_HEATING = 0;
0004da   d28d     bclr    0x8d, 0x1        	BCLR	_flag1,1
0004db   a4ec     goto    0x4ec            	GOTO	_00436_DS_
                                           _00435_DS_
                                           ;	.line	525; "MC32P7351.c"	if (KEY_EVENT_MODE_HOLD == key_event && 0 == FLAG_IS_IN_CHARGING)
0004dc   5883     movar   0x83             	MOVAR	_key_event
0004dd   3903     xorai   0x3              	XORAI	0x03
0004de   e587     jbset   0x187, 0x2       	JBSET	PFLAG,2
0004df   a4ec     goto    0x4ec            	GOTO	_00436_DS_
0004e0   f48d     jbclr   0x8d, 0x2        	JBCLR	_flag1,2
0004e1   a4ec     goto    0x4ec            	GOTO	_00436_DS_
                                           ;	.line	527; "MC32P7351.c"	LED_FULL_CHARGE_OFF(); // 
0004e2   c790     bset    0x190, 0x3       	BSET	_IOP0bits,3
                                           ;	.line	528; "MC32P7351.c"	LED_CHARGING_OFF();    // 
0004e3   c990     bset    0x190, 0x4       	BSET	_IOP0bits,4
                                           ;	.line	529; "MC32P7351.c"	LED_WORKING_ON();      // 
0004e4   d994     bclr    0x194, 0x4       	BCLR	_IOP1bits,4
                                           ;	.line	530; "MC32P7351.c"	FLAG_IS_DEVICE_OPEN = 1;
0004e5   c08d     bset    0x8d, 0          	BSET	_flag1,0
                                           ;	.line	533; "MC32P7351.c"	T0DATA = 150;
0004e6   3c96     movai   0x96             	MOVAI	0x96
0004e7   579b     movra   0x19b            	MOVRA	_T0DATA
                                           ;	.line	534; "MC32P7351.c"	T1DATA = 150;
0004e8   3c96     movai   0x96             	MOVAI	0x96
0004e9   579f     movra   0x19f            	MOVRA	_T1DATA
                                           ;	.line	535; "MC32P7351.c"	mode_flag = MODE_1; //  MODE_2
0004ea   7684     clrr    0x84             	CLRR	_mode_flag
                                           ;	.line	540; "MC32P7351.c"	PWM1EC = 1;
0004eb   cd9c     bset    0x19c, 0x6       	BSET	_T1CRbits,6
                                           _00436_DS_
                                           ;	.line	545; "MC32P7351.c"	key_event = KEY_EVENT_NONE;
0004ec   7683     clrr    0x83             	CLRR	_key_event
                                           ;	.line	546; "MC32P7351.c"	}
0004ed   000c     return                   	RETURN	
                                           ; exit point of _key_event_handle
                                           
                                           ;***
                                           ;  pBlock Stats: dbName = C
                                           ;***
                                           ;entry:  _key_scan	;Function start
                                           ; 2 exit points
                                           ;has an exit
                                           ;; Starting pCode block
                                           _key_scan	;Function start
                                           ; 2 exit points
                                           ;	.line	321; "MC32P7351.c"	volatile u8 cur_key_id = KEY_ID_NONE;
0004ee   7622     clrr    0x22             	CLRR	_key_scan_cur_key_id_65536_41
                                           ;	.line	325; "MC32P7351.c"	if (0 == KEY_MODE_PIN)
0004ef   f390     jbclr   0x190, 0x1       	JBCLR	_IOP0bits,1
0004f0   a4f4     goto    0x4f4            	GOTO	_00240_DS_
                                           ;	.line	327; "MC32P7351.c"	cur_key_id = KEY_ID_MODE;
0004f1   3c01     movai   0x1              	MOVAI	0x01
0004f2   5622     movra   0x22             	MOVRA	_key_scan_cur_key_id_65536_41
0004f3   a4f8     goto    0x4f8            	GOTO	_00241_DS_
                                           _00240_DS_
                                           ;	.line	329; "MC32P7351.c"	else if (0 == KEY_HEAT_PIN)
0004f4   f394     jbclr   0x194, 0x1       	JBCLR	_IOP1bits,1
0004f5   a4f8     goto    0x4f8            	GOTO	_00241_DS_
                                           ;	.line	331; "MC32P7351.c"	cur_key_id = KEY_ID_HEAT;
0004f6   3c02     movai   0x2              	MOVAI	0x02
0004f7   5622     movra   0x22             	MOVRA	_key_scan_cur_key_id_65536_41
                                           _00241_DS_
                                           ;	.line	334; "MC32P7351.c"	if (cur_key_id != filter_key_id)
0004f8   5824     movar   0x24             	MOVAR	_key_scan_filter_key_id_65536_41
0004f9   4022     xorar   0x22             	XORAR	_key_scan_cur_key_id_65536_41
0004fa   e587     jbset   0x187, 0x2       	JBSET	PFLAG,2
0004fb   a4fd     goto    0x4fd            	GOTO	_00361_DS_
0004fc   a501     goto    0x501            	GOTO	_00243_DS_
                                           _00361_DS_
                                           ;	.line	337; "MC32P7351.c"	filter_cnt = 0;
0004fd   7623     clrr    0x23             	CLRR	_key_scan_filter_cnt_65536_41
                                           ;	.line	338; "MC32P7351.c"	filter_key_id = cur_key_id;
0004fe   5822     movar   0x22             	MOVAR	_key_scan_cur_key_id_65536_41
0004ff   5624     movra   0x24             	MOVRA	_key_scan_filter_key_id_65536_41
                                           ;	.line	339; "MC32P7351.c"	return;
000500   a558     goto    0x558            	GOTO	_00283_DS_
                                           ;;unsigned compare: left < lit(0x3=3), size=1
                                           _00243_DS_
                                           ;	.line	342; "MC32P7351.c"	if (filter_cnt < KEY_FILTER_TIMES)
000501   3c03     movai   0x3              	MOVAI	0x03
000502   4823     rsubar  0x23             	RSUBAR	_key_scan_filter_cnt_65536_41
000503   f187     jbclr   0x187, 0         	JBCLR	PFLAG,0
000504   a507     goto    0x507            	GOTO	_00245_DS_
                                           ;;genSkipc:3291: created from rifx:013B5EFC
                                           ;	.line	346; "MC32P7351.c"	filter_cnt++;
000505   6623     incr    0x23             	INCR	_key_scan_filter_cnt_65536_41
                                           ;	.line	347; "MC32P7351.c"	return;
000506   a558     goto    0x558            	GOTO	_00283_DS_
                                           _00245_DS_
                                           ;	.line	352; "MC32P7351.c"	if (last_key_id != cur_key_id)
000507   5822     movar   0x22             	MOVAR	_key_scan_cur_key_id_65536_41
000508   4027     xorar   0x27             	XORAR	_key_scan_last_key_id_65536_41
000509   e587     jbset   0x187, 0x2       	JBSET	PFLAG,2
00050a   a50c     goto    0x50c            	GOTO	_00363_DS_
00050b   a52e     goto    0x52e            	GOTO	_00281_DS_
                                           _00363_DS_
                                           ;	.line	354; "MC32P7351.c"	if (last_key_id == KEY_ID_NONE)
00050c   3c00     movai   0                	MOVAI	0x00
00050d   5c27     orar    0x27             	ORAR	_key_scan_last_key_id_65536_41
00050e   e587     jbset   0x187, 0x2       	JBSET	PFLAG,2
00050f   a512     goto    0x512            	GOTO	_00259_DS_
                                           ;	.line	357; "MC32P7351.c"	press_cnt = 0;
000510   7625     clrr    0x25             	CLRR	_key_scan_press_cnt_65536_41
000511   a556     goto    0x556            	GOTO	_00282_DS_
                                           _00259_DS_
                                           ;	.line	359; "MC32P7351.c"	else if (cur_key_id == KEY_ID_NONE)
000512   3c00     movai   0                	MOVAI	0x00
000513   5c22     orar    0x22             	ORAR	_key_scan_cur_key_id_65536_41
000514   e587     jbset   0x187, 0x2       	JBSET	PFLAG,2
000515   a556     goto    0x556            	GOTO	_00282_DS_
                                           ;;unsigned compare: left < lit(0x4B=75), size=1
                                           ;	.line	362; "MC32P7351.c"	if (press_cnt < 75)
000516   3c4b     movai   0x4b             	MOVAI	0x4b
000517   4825     rsubar  0x25             	RSUBAR	_key_scan_press_cnt_65536_41
000518   f187     jbclr   0x187, 0         	JBCLR	PFLAG,0
000519   a528     goto    0x528            	GOTO	_00254_DS_
                                           ;;genSkipc:3291: created from rifx:013B5EFC
                                           ;	.line	365; "MC32P7351.c"	if (KEY_ID_MODE == last_key_id)
00051a   5827     movar   0x27             	MOVAR	_key_scan_last_key_id_65536_41
00051b   3901     xorai   0x1              	XORAI	0x01
00051c   e587     jbset   0x187, 0x2       	JBSET	PFLAG,2
00051d   a521     goto    0x521            	GOTO	_00249_DS_
                                           ;	.line	368; "MC32P7351.c"	key_event = KEY_EVENT_MODE_PRESS;
00051e   3c02     movai   0x2              	MOVAI	0x02
00051f   5683     movra   0x83             	MOVRA	_key_event
000520   a556     goto    0x556            	GOTO	_00282_DS_
                                           _00249_DS_
                                           ;	.line	374; "MC32P7351.c"	else if (KEY_ID_HEAT == last_key_id)
000521   5827     movar   0x27             	MOVAR	_key_scan_last_key_id_65536_41
000522   3902     xorai   0x2              	XORAI	0x02
000523   e587     jbset   0x187, 0x2       	JBSET	PFLAG,2
000524   a556     goto    0x556            	GOTO	_00282_DS_
                                           ;	.line	377; "MC32P7351.c"	key_event = KEY_EVENT_HEAT_PRESS;
000525   3c01     movai   0x1              	MOVAI	0x01
000526   5683     movra   0x83             	MOVRA	_key_event
000527   a556     goto    0x556            	GOTO	_00282_DS_
                                           _00254_DS_
                                           ;	.line	385; "MC32P7351.c"	if (KEY_ID_MODE == last_key_id)
000528   5827     movar   0x27             	MOVAR	_key_scan_last_key_id_65536_41
000529   3901     xorai   0x1              	XORAI	0x01
00052a   e587     jbset   0x187, 0x2       	JBSET	PFLAG,2
00052b   a556     goto    0x556            	GOTO	_00282_DS_
                                           ;	.line	387; "MC32P7351.c"	flag_is_key_mode_hold = 0;
00052c   7626     clrr    0x26             	CLRR	_key_scan_flag_is_key_mode_hold_65536_41
00052d   a556     goto    0x556            	GOTO	_00282_DS_
                                           _00281_DS_
                                           ;	.line	392; "MC32P7351.c"	else if (cur_key_id != KEY_ID_NONE)
00052e   3c00     movai   0                	MOVAI	0x00
00052f   5c22     orar    0x22             	ORAR	_key_scan_cur_key_id_65536_41
000530   f587     jbclr   0x187, 0x2       	JBCLR	PFLAG,2
000531   a556     goto    0x556            	GOTO	_00282_DS_
                                           ;;unsigned compare: left < lit(0xFF=255), size=1
                                           ;	.line	395; "MC32P7351.c"	if (press_cnt < 255)
000532   3cff     movai   0xff             	MOVAI	0xff
000533   4825     rsubar  0x25             	RSUBAR	_key_scan_press_cnt_65536_41
000534   f187     jbclr   0x187, 0         	JBCLR	PFLAG,0
000535   a537     goto    0x537            	GOTO	_00262_DS_
                                           ;;genSkipc:3291: created from rifx:013B5EFC
                                           ;	.line	396; "MC32P7351.c"	press_cnt++;
000536   6625     incr    0x25             	INCR	_key_scan_press_cnt_65536_41
                                           _00262_DS_
                                           ;	.line	398; "MC32P7351.c"	if (KEY_ID_MODE == cur_key_id)
000537   5822     movar   0x22             	MOVAR	_key_scan_cur_key_id_65536_41
000538   3901     xorai   0x1              	XORAI	0x01
000539   e587     jbset   0x187, 0x2       	JBSET	PFLAG,2
00053a   a556     goto    0x556            	GOTO	_00282_DS_
                                           ;	.line	400; "MC32P7351.c"	if (FLAG_IS_DEVICE_OPEN)
00053b   e08d     jbset   0x8d, 0          	JBSET	_flag1,0
00053c   a54a     goto    0x54a            	GOTO	_00274_DS_
                                           ;;unsigned compare: left < lit(0xC8=200), size=1
                                           ;	.line	402; "MC32P7351.c"	if (press_cnt >= 200) // 2000ms
00053d   3cc8     movai   0xc8             	MOVAI	0xc8
00053e   4825     rsubar  0x25             	RSUBAR	_key_scan_press_cnt_65536_41
00053f   e187     jbset   0x187, 0         	JBSET	PFLAG,0
000540   a556     goto    0x556            	GOTO	_00282_DS_
                                           ;;genSkipc:3291: created from rifx:013B5EFC
                                           ;	.line	404; "MC32P7351.c"	if (flag_is_key_mode_hold)
000541   3c00     movai   0                	MOVAI	0x00
000542   5c26     orar    0x26             	ORAR	_key_scan_flag_is_key_mode_hold_65536_41
000543   e587     jbset   0x187, 0x2       	JBSET	PFLAG,2
000544   a556     goto    0x556            	GOTO	_00282_DS_
                                           ;	.line	409; "MC32P7351.c"	key_event = KEY_EVENT_MODE_HOLD;
000545   3c03     movai   0x3              	MOVAI	0x03
000546   5683     movra   0x83             	MOVRA	_key_event
                                           ;	.line	410; "MC32P7351.c"	flag_is_key_mode_hold = 1;
000547   3c01     movai   0x1              	MOVAI	0x01
000548   5626     movra   0x26             	MOVRA	_key_scan_flag_is_key_mode_hold_65536_41
000549   a556     goto    0x556            	GOTO	_00282_DS_
                                           ;;unsigned compare: left < lit(0x64=100), size=1
                                           _00274_DS_
                                           ;	.line	417; "MC32P7351.c"	if (press_cnt >= 100) // 1000ms1024ms
00054a   3c64     movai   0x64             	MOVAI	0x64
00054b   4825     rsubar  0x25             	RSUBAR	_key_scan_press_cnt_65536_41
00054c   e187     jbset   0x187, 0         	JBSET	PFLAG,0
00054d   a556     goto    0x556            	GOTO	_00282_DS_
                                           ;;genSkipc:3291: created from rifx:013B5EFC
                                           ;	.line	419; "MC32P7351.c"	if (flag_is_key_mode_hold)
00054e   3c00     movai   0                	MOVAI	0x00
00054f   5c26     orar    0x26             	ORAR	_key_scan_flag_is_key_mode_hold_65536_41
000550   e587     jbset   0x187, 0x2       	JBSET	PFLAG,2
000551   a556     goto    0x556            	GOTO	_00282_DS_
                                           ;	.line	424; "MC32P7351.c"	key_event = KEY_EVENT_MODE_HOLD;
000552   3c03     movai   0x3              	MOVAI	0x03
000553   5683     movra   0x83             	MOVRA	_key_event
                                           ;	.line	425; "MC32P7351.c"	flag_is_key_mode_hold = 1;
000554   3c01     movai   0x1              	MOVAI	0x01
000555   5626     movra   0x26             	MOVRA	_key_scan_flag_is_key_mode_hold_65536_41
                                           _00282_DS_
                                           ;	.line	432; "MC32P7351.c"	last_key_id = cur_key_id;
000556   5822     movar   0x22             	MOVAR	_key_scan_cur_key_id_65536_41
000557   5627     movra   0x27             	MOVRA	_key_scan_last_key_id_65536_41
                                           _00283_DS_
                                           ;	.line	433; "MC32P7351.c"	}
000558   000c     return                   	RETURN	
                                           ; exit point of _key_scan
                                           
                                           ;***
                                           ;  pBlock Stats: dbName = C
                                           ;***
                                           ;entry:  _Sys_Init	;Function start
                                           ; 2 exit points
                                           ;has an exit
                                           ;functions called:
                                           ;   _CLR_RAM
                                           ;   _IO_Init
                                           ;   _timer0_pwm_config
                                           ;   _timer1_pwm_config
                                           ;   _timer2_pwm_config
                                           ;   _timer3_config
                                           ;   _key_config
                                           ;   _adc_config
                                           ;   _CLR_RAM
                                           ;   _IO_Init
                                           ;   _timer0_pwm_config
                                           ;   _timer1_pwm_config
                                           ;   _timer2_pwm_config
                                           ;   _timer3_config
                                           ;   _key_config
                                           ;   _adc_config
                                           ;; Starting pCode block
                                           _Sys_Init	;Function start
                                           ; 2 exit points
                                           ;	.line	276; "MC32P7351.c"	GIE = 0;
000559   df88     bclr    0x188, 0x7       	BCLR	_MCRbits,7
                                           ;	.line	277; "MC32P7351.c"	CLR_RAM();
00055a   8674     call    0x674            	CALL	_CLR_RAM
                                           ;	.line	278; "MC32P7351.c"	IO_Init();
00055b   8664     call    0x664            	CALL	_IO_Init
                                           ;	.line	280; "MC32P7351.c"	LED_WORKING_OFF();
00055c   c994     bset    0x194, 0x4       	BSET	_IOP1bits,4
                                           ;	.line	281; "MC32P7351.c"	LED_FULL_CHARGE_OFF();
00055d   c790     bset    0x190, 0x3       	BSET	_IOP0bits,3
                                           ;	.line	282; "MC32P7351.c"	LED_CHARGING_OFF();
00055e   c990     bset    0x190, 0x4       	BSET	_IOP0bits,4
                                           ;	.line	284; "MC32P7351.c"	timer0_pwm_config();
00055f   8652     call    0x652            	CALL	_timer0_pwm_config
                                           ;	.line	285; "MC32P7351.c"	timer1_pwm_config();
000560   864c     call    0x64c            	CALL	_timer1_pwm_config
                                           ;	.line	286; "MC32P7351.c"	timer2_pwm_config();
000561   8642     call    0x642            	CALL	_timer2_pwm_config
                                           ;	.line	288; "MC32P7351.c"	timer3_config();
000562   863c     call    0x63c            	CALL	_timer3_config
                                           ;	.line	290; "MC32P7351.c"	key_config();
000563   8637     call    0x637            	CALL	_key_config
                                           ;	.line	291; "MC32P7351.c"	adc_config();
000564   8658     call    0x658            	CALL	_adc_config
                                           ;	.line	293; "MC32P7351.c"	GIE = 1;
000565   cf88     bset    0x188, 0x7       	BSET	_MCRbits,7
                                           ;	.line	294; "MC32P7351.c"	}
000566   000c     return                   	RETURN	
                                           ; exit point of _Sys_Init
                                           
                                           ;***
                                           ;  pBlock Stats: dbName = C
                                           ;***
                                           ;entry:  _adc_get_val_once	;Function start
                                           ; 2 exit points
                                           ;has an exit
                                           ;7 compiler assigned registers:
                                           ;   r0x104A
                                           ;   r0x104B
                                           ;   r0x104C
                                           ;   r0x104D
                                           ;   r0x104E
                                           ;   r0x104F
                                           ;   STK00
                                           ;; Starting pCode block
                                           _adc_get_val_once	;Function start
                                           ; 2 exit points
                                           ;	.line	237; "MC32P7351.c"	ADEOC = 0; // ADCAD
000567   d3b0     bclr    0x1b0, 0x1       	BCLR	_ADCR0bits,1
                                           _00228_DS_
                                           ;	.line	238; "MC32P7351.c"	while (!ADEOC)
000568   e3b0     jbset   0x1b0, 0x1       	JBSET	_ADCR0bits,1
000569   a568     goto    0x568            	GOTO	_00228_DS_
                                           ;	.line	240; "MC32P7351.c"	g_temp_value = ADRH; // 
00056a   59b4     movar   0x1b4            	MOVAR	_ADRH
00056b   5608     movra   0x8              	MOVRA	r0x104A
00056c   7607     clrr    0x7              	CLRR	r0x104B
                                           ;	.line	241; "MC32P7351.c"	g_temp_value = g_temp_value << 4 | (ADRL & 0x0F);
00056d   4407     swapar  0x7              	SWAPAR	r0x104B
00056e   3ef0     andai   0xf0             	ANDAI	0xf0
00056f   5609     movra   0x9              	MOVRA	r0x104C
000570   4408     swapar  0x8              	SWAPAR	r0x104A
000571   560a     movra   0xa              	MOVRA	r0x104D
000572   3e0f     andai   0xf              	ANDAI	0x0f
000573   5e09     orra    0x9              	ORRA	r0x104C
000574   420a     xorra   0xa              	XORRA	r0x104D
000575   59b5     movar   0x1b5            	MOVAR	_ADRL
000576   5608     movra   0x8              	MOVRA	r0x104A
000577   7607     clrr    0x7              	CLRR	r0x104B
000578   3c0f     movai   0xf              	MOVAI	0x0f
000579   7a08     andra   0x8              	ANDRA	r0x104A
00057a   7607     clrr    0x7              	CLRR	r0x104B
                                           ;;101	MOVAR	r0x104A
                                           ;;99	MOVRA	r0x104E
                                           ;;104	MOVAR	r0x104B
                                           ;;102	MOVRA	r0x104F
                                           ;;100	MOVAR	r0x104E
00057b   5808     movar   0x8              	MOVAR	r0x104A
00057c   5e0a     orra    0xa              	ORRA	r0x104D
                                           ;;103	MOVAR	r0x104F
00057d   3c00     movai   0                	MOVAI	0x00
00057e   5e09     orra    0x9              	ORRA	r0x104C
                                           ;	.line	265; "MC32P7351.c"	return g_temp_value;
00057f   580a     movar   0xa              	MOVAR	r0x104D
000580   5606     movra   0x6              	MOVRA	STK00
000581   5809     movar   0x9              	MOVAR	r0x104C
                                           ;	.line	266; "MC32P7351.c"	}
000582   000c     return                   	RETURN	
                                           ; exit point of _adc_get_val_once
                                           
                                           ;***
                                           ;  pBlock Stats: dbName = C
                                           ;***
                                           ;entry:  _adc_get_val	;Function start
                                           ; 2 exit points
                                           ;has an exit
                                           ;16 compiler assigned registers:
                                           ;   r0x104A
                                           ;   r0x104B
                                           ;   r0x104C
                                           ;   r0x104D
                                           ;   r0x104E
                                           ;   r0x104F
                                           ;   r0x1050
                                           ;   r0x1051
                                           ;   r0x1052
                                           ;   r0x1053
                                           ;   r0x1054
                                           ;   r0x1055
                                           ;   r0x1056
                                           ;   r0x1057
                                           ;   r0x1058
                                           ;   STK00
                                           ;; Starting pCode block
                                           _adc_get_val	;Function start
                                           ; 2 exit points
                                           ;	.line	184; "MC32P7351.c"	u32 g_tmpbuff = 0;
000583   7608     clrr    0x8              	CLRR	r0x104A
000584   7607     clrr    0x7              	CLRR	r0x104B
000585   7609     clrr    0x9              	CLRR	r0x104C
000586   760a     clrr    0xa              	CLRR	r0x104D
                                           ;	.line	185; "MC32P7351.c"	u16 g_adcmax = 0;
000587   760b     clrr    0xb              	CLRR	r0x104E
000588   760c     clrr    0xc              	CLRR	r0x104F
                                           ;	.line	186; "MC32P7351.c"	u16 g_adcmin = 0xFFFF;
000589   3cff     movai   0xff             	MOVAI	0xff
00058a   560d     movra   0xd              	MOVRA	r0x1050
00058b   560e     movra   0xe              	MOVRA	r0x1051
                                           ;	.line	189; "MC32P7351.c"	for (i = 0; i < 20; i++)
00058c   760f     clrr    0xf              	CLRR	r0x1052
                                           _00182_DS_
                                           ;	.line	191; "MC32P7351.c"	ADEOC = 0; // ADCAD
00058d   d3b0     bclr    0x1b0, 0x1       	BCLR	_ADCR0bits,1
                                           _00171_DS_
                                           ;	.line	192; "MC32P7351.c"	while (!ADEOC)
00058e   e3b0     jbset   0x1b0, 0x1       	JBSET	_ADCR0bits,1
00058f   a58e     goto    0x58e            	GOTO	_00171_DS_
                                           ;	.line	194; "MC32P7351.c"	g_temp_value = ADRH; // 
000590   59b4     movar   0x1b4            	MOVAR	_ADRH
000591   5610     movra   0x10             	MOVRA	r0x1053
000592   7611     clrr    0x11             	CLRR	r0x1054
                                           ;	.line	195; "MC32P7351.c"	g_temp_value = g_temp_value << 4 | (ADRL & 0x0F);
000593   4411     swapar  0x11             	SWAPAR	r0x1054
000594   3ef0     andai   0xf0             	ANDAI	0xf0
000595   5613     movra   0x13             	MOVRA	r0x1055
000596   4410     swapar  0x10             	SWAPAR	r0x1053
000597   5612     movra   0x12             	MOVRA	r0x1056
000598   3e0f     andai   0xf              	ANDAI	0x0f
000599   5e13     orra    0x13             	ORRA	r0x1055
00059a   4212     xorra   0x12             	XORRA	r0x1056
00059b   59b5     movar   0x1b5            	MOVAR	_ADRL
00059c   5610     movra   0x10             	MOVRA	r0x1053
00059d   7611     clrr    0x11             	CLRR	r0x1054
00059e   3c0f     movai   0xf              	MOVAI	0x0f
00059f   7a10     andra   0x10             	ANDRA	r0x1053
0005a0   7611     clrr    0x11             	CLRR	r0x1054
                                           ;;120	MOVAR	r0x1053
0005a1   3c00     movai   0                	MOVAI	0x00
0005a2   5615     movra   0x15             	MOVRA	r0x1058
                                           ;;119	MOVAR	r0x1057
0005a3   5810     movar   0x10             	MOVAR	r0x1053
0005a4   5614     movra   0x14             	MOVRA	r0x1057
0005a5   5c12     orar    0x12             	ORAR	r0x1056
0005a6   5610     movra   0x10             	MOVRA	r0x1053
0005a7   5815     movar   0x15             	MOVAR	r0x1058
0005a8   5c13     orar    0x13             	ORAR	r0x1055
0005a9   5611     movra   0x11             	MOVRA	r0x1054
                                           ;;unsigned compare: left < lit(0x2=2), size=1
                                           ;	.line	196; "MC32P7351.c"	if (i < 2)
0005aa   3c02     movai   0x2              	MOVAI	0x02
0005ab   480f     rsubar  0xf              	RSUBAR	r0x1052
0005ac   e187     jbset   0x187, 0         	JBSET	PFLAG,0
0005ad   a5d8     goto    0x5d8            	GOTO	_00180_DS_
                                           ;;genSkipc:3291: created from rifx:013B5EFC
                                           ;	.line	198; "MC32P7351.c"	if (g_temp_value > g_adcmax)
0005ae   5811     movar   0x11             	MOVAR	r0x1054
0005af   480c     rsubar  0xc              	RSUBAR	r0x104F
0005b0   e587     jbset   0x187, 0x2       	JBSET	PFLAG,2
0005b1   a5b4     goto    0x5b4            	GOTO	_00222_DS_
0005b2   5810     movar   0x10             	MOVAR	r0x1053
0005b3   480b     rsubar  0xb              	RSUBAR	r0x104E
                                           _00222_DS_
0005b4   f187     jbclr   0x187, 0         	JBCLR	PFLAG,0
0005b5   a5ba     goto    0x5ba            	GOTO	_00177_DS_
                                           ;;genSkipc:3291: created from rifx:013B5EFC
                                           ;	.line	199; "MC32P7351.c"	g_adcmax = g_temp_value; // 
0005b6   5810     movar   0x10             	MOVAR	r0x1053
0005b7   560b     movra   0xb              	MOVRA	r0x104E
0005b8   5811     movar   0x11             	MOVAR	r0x1054
0005b9   560c     movra   0xc              	MOVRA	r0x104F
                                           _00177_DS_
                                           ;	.line	200; "MC32P7351.c"	if (g_temp_value < g_adcmin)
0005ba   580e     movar   0xe              	MOVAR	r0x1051
0005bb   4811     rsubar  0x11             	RSUBAR	r0x1054
0005bc   e587     jbset   0x187, 0x2       	JBSET	PFLAG,2
0005bd   a5c0     goto    0x5c0            	GOTO	_00223_DS_
0005be   580d     movar   0xd              	MOVAR	r0x1050
0005bf   4810     rsubar  0x10             	RSUBAR	r0x1053
                                           _00223_DS_
0005c0   f187     jbclr   0x187, 0         	JBCLR	PFLAG,0
0005c1   a5c6     goto    0x5c6            	GOTO	_00179_DS_
                                           ;;genSkipc:3291: created from rifx:013B5EFC
                                           ;	.line	201; "MC32P7351.c"	g_adcmin = g_temp_value; // 
0005c2   5810     movar   0x10             	MOVAR	r0x1053
0005c3   560d     movra   0xd              	MOVRA	r0x1050
0005c4   5811     movar   0x11             	MOVAR	r0x1054
0005c5   560e     movra   0xe              	MOVRA	r0x1051
                                           ;;116	MOVAR	r0x1053
                                           ;;118	MOVAR	r0x1054
                                           _00179_DS_
                                           ;	.line	202; "MC32P7351.c"	g_tmpbuff += g_temp_value;
0005c6   7614     clrr    0x14             	CLRR	r0x1057
0005c7   7615     clrr    0x15             	CLRR	r0x1058
                                           ;;115	MOVAR	r0x1056
0005c8   5810     movar   0x10             	MOVAR	r0x1053
0005c9   5612     movra   0x12             	MOVRA	r0x1056
0005ca   7e08     addra   0x8              	ADDRA	r0x104A
                                           ;;117	MOVAR	r0x1055
0005cb   5811     movar   0x11             	MOVAR	r0x1054
0005cc   5613     movra   0x13             	MOVRA	r0x1055
0005cd   f187     jbclr   0x187, 0         	JBCLR	PFLAG,0
0005ce   6013     jzar    0x13             	JZAR	r0x1055
0005cf   7e07     addra   0x7              	ADDRA	r0x104B
0005d0   5814     movar   0x14             	MOVAR	r0x1057
0005d1   f187     jbclr   0x187, 0         	JBCLR	PFLAG,0
0005d2   6014     jzar    0x14             	JZAR	r0x1057
0005d3   7e09     addra   0x9              	ADDRA	r0x104C
0005d4   5815     movar   0x15             	MOVAR	r0x1058
0005d5   f187     jbclr   0x187, 0         	JBCLR	PFLAG,0
0005d6   6015     jzar    0x15             	JZAR	r0x1058
0005d7   7e0a     addra   0xa              	ADDRA	r0x104D
                                           _00180_DS_
                                           ;	.line	189; "MC32P7351.c"	for (i = 0; i < 20; i++)
0005d8   660f     incr    0xf              	INCR	r0x1052
                                           ;;unsigned compare: left < lit(0x14=20), size=1
0005d9   3c14     movai   0x14             	MOVAI	0x14
0005da   480f     rsubar  0xf              	RSUBAR	r0x1052
0005db   e187     jbset   0x187, 0         	JBSET	PFLAG,0
0005dc   a58d     goto    0x58d            	GOTO	_00182_DS_
                                           ;;genSkipc:3291: created from rifx:013B5EFC
                                           ;;114	MOVAR	r0x104E
                                           ;	.line	204; "MC32P7351.c"	g_tmpbuff -= g_adcmax;           // 
0005dd   580c     movar   0xc              	MOVAR	r0x104F
0005de   5610     movra   0x10             	MOVRA	r0x1053
0005df   7611     clrr    0x11             	CLRR	r0x1054
0005e0   7612     clrr    0x12             	CLRR	r0x1056
                                           ;;113	MOVAR	r0x1052
0005e1   580b     movar   0xb              	MOVAR	r0x104E
0005e2   560f     movra   0xf              	MOVRA	r0x1052
0005e3   4808     rsubar  0x8              	RSUBAR	r0x104A
0005e4   560b     movra   0xb              	MOVRA	r0x104E
0005e5   5807     movar   0x7              	MOVAR	r0x104B
0005e6   560c     movra   0xc              	MOVRA	r0x104F
0005e7   5810     movar   0x10             	MOVAR	r0x1053
0005e8   e187     jbset   0x187, 0         	JBSET	PFLAG,0
0005e9   6010     jzar    0x10             	JZAR	r0x1053
0005ea   4a0c     rsubra  0xc              	RSUBRA	r0x104F
0005eb   5809     movar   0x9              	MOVAR	r0x104C
0005ec   5613     movra   0x13             	MOVRA	r0x1055
0005ed   5811     movar   0x11             	MOVAR	r0x1054
0005ee   e187     jbset   0x187, 0         	JBSET	PFLAG,0
0005ef   6011     jzar    0x11             	JZAR	r0x1054
0005f0   4a13     rsubra  0x13             	RSUBRA	r0x1055
0005f1   5812     movar   0x12             	MOVAR	r0x1056
0005f2   e187     jbset   0x187, 0         	JBSET	PFLAG,0
0005f3   6412     incar   0x12             	INCAR	r0x1056
0005f4   480a     rsubar  0xa              	RSUBAR	r0x104D
0005f5   5614     movra   0x14             	MOVRA	r0x1057
                                           ;;106	MOVAR	r0x1050
                                           ;;108	MOVAR	r0x1051
                                           ;	.line	205; "MC32P7351.c"	g_tmpbuff -= g_adcmin;           // 
0005f6   7609     clrr    0x9              	CLRR	r0x104C
0005f7   760a     clrr    0xa              	CLRR	r0x104D
                                           ;;105	MOVAR	r0x104A
0005f8   580d     movar   0xd              	MOVAR	r0x1050
0005f9   5608     movra   0x8              	MOVRA	r0x104A
0005fa   4a0b     rsubra  0xb              	RSUBRA	r0x104E
                                           ;;107	MOVAR	r0x104B
0005fb   580e     movar   0xe              	MOVAR	r0x1051
0005fc   5607     movra   0x7              	MOVRA	r0x104B
0005fd   e187     jbset   0x187, 0         	JBSET	PFLAG,0
0005fe   6007     jzar    0x7              	JZAR	r0x104B
0005ff   4a0c     rsubra  0xc              	RSUBRA	r0x104F
000600   5809     movar   0x9              	MOVAR	r0x104C
000601   e187     jbset   0x187, 0         	JBSET	PFLAG,0
000602   6009     jzar    0x9              	JZAR	r0x104C
000603   4a13     rsubra  0x13             	RSUBRA	r0x1055
000604   580a     movar   0xa              	MOVAR	r0x104D
000605   e187     jbset   0x187, 0         	JBSET	PFLAG,0
000606   600a     jzar    0xa              	JZAR	r0x104D
000607   4a14     rsubra  0x14             	RSUBRA	r0x1057
                                           ;	.line	206; "MC32P7351.c"	g_temp_value = (g_tmpbuff >> 4); // 16
000608   440b     swapar  0xb              	SWAPAR	r0x104E
000609   3e0f     andai   0xf              	ANDAI	0x0f
00060a   5608     movra   0x8              	MOVRA	r0x104A
00060b   440c     swapar  0xc              	SWAPAR	r0x104F
00060c   5607     movra   0x7              	MOVRA	r0x104B
00060d   3ef0     andai   0xf0             	ANDAI	0xf0
00060e   5e08     orra    0x8              	ORRA	r0x104A
00060f   4207     xorra   0x7              	XORRA	r0x104B
000610   4413     swapar  0x13             	SWAPAR	r0x1055
000611   5609     movra   0x9              	MOVRA	r0x104C
000612   3ef0     andai   0xf0             	ANDAI	0xf0
000613   5e07     orra    0x7              	ORRA	r0x104B
000614   4209     xorra   0x9              	XORRA	r0x104C
000615   4414     swapar  0x14             	SWAPAR	r0x1057
000616   560a     movra   0xa              	MOVRA	r0x104D
000617   3ef0     andai   0xf0             	ANDAI	0xf0
000618   5e09     orra    0x9              	ORRA	r0x104C
000619   420a     xorra   0xa              	XORRA	r0x104D
                                           ;;110	MOVAR	r0x104A
                                           ;;112	MOVAR	r0x104B
                                           ;;109	MOVAR	r0x104E
                                           ;	.line	230; "MC32P7351.c"	return g_temp_value;
00061a   5808     movar   0x8              	MOVAR	r0x104A
00061b   560b     movra   0xb              	MOVRA	r0x104E
00061c   5606     movra   0x6              	MOVRA	STK00
                                           ;;111	MOVAR	r0x104F
00061d   5807     movar   0x7              	MOVAR	r0x104B
00061e   560c     movra   0xc              	MOVRA	r0x104F
                                           ;	.line	231; "MC32P7351.c"	}
00061f   000c     return                   	RETURN	
                                           ; exit point of _adc_get_val
                                           
                                           ;***
                                           ;  pBlock Stats: dbName = C
                                           ;***
                                           ;entry:  _adc_sel_pin	;Function start
                                           ; 2 exit points
                                           ;has an exit
                                           ;functions called:
                                           ;   _delay_ms
                                           ;   _delay_ms
                                           ;2 compiler assigned registers:
                                           ;   r0x1050
                                           ;   STK00
                                           ;; Starting pCode block
                                           _adc_sel_pin	;Function start
                                           ; 2 exit points
                                           ;	.line	145; "MC32P7351.c"	void adc_sel_pin(u8 adc_pin)
000620   560d     movra   0xd              	MOVRA	r0x1050
                                           ;	.line	148; "MC32P7351.c"	switch (adc_pin)
000621   580d     movar   0xd              	MOVAR	r0x1050
000622   3901     xorai   0x1              	XORAI	0x01
000623   e587     jbset   0x187, 0x2       	JBSET	PFLAG,2
000624   a626     goto    0x626            	GOTO	_00165_DS_
000625   a62c     goto    0x62c            	GOTO	_00151_DS_
                                           _00165_DS_
000626   580d     movar   0xd              	MOVAR	r0x1050
000627   3902     xorai   0x2              	XORAI	0x02
000628   e587     jbset   0x187, 0x2       	JBSET	PFLAG,2
000629   a62b     goto    0x62b            	GOTO	_00166_DS_
00062a   a62f     goto    0x62f            	GOTO	_00152_DS_
                                           _00166_DS_
00062b   a632     goto    0x632            	GOTO	_00154_DS_
                                           _00151_DS_
                                           ;	.line	151; "MC32P7351.c"	ADCR0 &= ~(0x0F << 4); // 
00062c   3c0f     movai   0xf              	MOVAI	0x0f
00062d   7bb0     andra   0x1b0            	ANDRA	_ADCR0
                                           ;	.line	159; "MC32P7351.c"	break;
00062e   a632     goto    0x632            	GOTO	_00154_DS_
                                           _00152_DS_
                                           ;	.line	162; "MC32P7351.c"	ADCR0 &= ~(0x0F << 4); // 
00062f   3c0f     movai   0xf              	MOVAI	0x0f
000630   7bb0     andra   0x1b0            	ANDRA	_ADCR0
                                           ;	.line	163; "MC32P7351.c"	ADCR0 |= 0x01 << 4;    // AIN1--P02;
000631   c9b0     bset    0x1b0, 0x4       	BSET	_ADCR0,4
                                           _00154_DS_
                                           ;	.line	176; "MC32P7351.c"	delay_ms(1); // adcadc
000632   3c01     movai   0x1              	MOVAI	0x01
000633   5606     movra   0x6              	MOVRA	STK00
000634   3c00     movai   0                	MOVAI	0x00
000635   8680     call    0x680            	CALL	_delay_ms
                                           ;	.line	177; "MC32P7351.c"	}
000636   000c     return                   	RETURN	
                                           ; exit point of _adc_sel_pin
                                           
                                           ;***
                                           ;  pBlock Stats: dbName = C
                                           ;***
                                           ;entry:  _key_config	;Function start
                                           ; 2 exit points
                                           ;has an exit
                                           ;; Starting pCode block
                                           _key_config	;Function start
                                           ; 2 exit points
                                           ;	.line	136; "MC32P7351.c"	P11PU = 1; // 
000637   c396     bset    0x196, 0x1       	BSET	_PUP1bits,1
                                           ;	.line	137; "MC32P7351.c"	P11OE = 0; // 
000638   d395     bclr    0x195, 0x1       	BCLR	_OEP1bits,1
                                           ;	.line	140; "MC32P7351.c"	P01PU = 1; // 
000639   c392     bset    0x192, 0x1       	BSET	_PUP0bits,1
                                           ;	.line	141; "MC32P7351.c"	P01OE = 0; // 
00063a   d391     bclr    0x191, 0x1       	BCLR	_OEP0bits,1
                                           ;	.line	142; "MC32P7351.c"	}
00063b   000c     return                   	RETURN	
                                           ; exit point of _key_config
                                           
                                           ;***
                                           ;  pBlock Stats: dbName = C
                                           ;***
                                           ;entry:  _timer3_config	;Function start
                                           ; 2 exit points
                                           ;has an exit
                                           ;; Starting pCode block
                                           _timer3_config	;Function start
                                           ; 2 exit points
                                           ;	.line	127; "MC32P7351.c"	T3LOAD = 25 - 1; //
00063c   3c18     movai   0x18             	MOVAI	0x18
00063d   57a6     movra   0x1a6            	MOVRA	_T3LOAD
                                           ;	.line	128; "MC32P7351.c"	T3CR = 0x85;     // FCPU32
00063e   3c85     movai   0x85             	MOVAI	0x85
00063f   57a4     movra   0x1a4            	MOVRA	_T3CR
                                           ;	.line	129; "MC32P7351.c"	T3IE = 1;
000640   cf8a     bset    0x18a, 0x7       	BSET	_INTEbits,7
                                           ;	.line	130; "MC32P7351.c"	}
000641   000c     return                   	RETURN	
                                           ; exit point of _timer3_config
                                           
                                           ;***
                                           ;  pBlock Stats: dbName = C
                                           ;***
                                           ;entry:  _timer2_pwm_config	;Function start
                                           ; 2 exit points
                                           ;has an exit
                                           ;; Starting pCode block
                                           _timer2_pwm_config	;Function start
                                           ; 2 exit points
                                           ;	.line	107; "MC32P7351.c"	T2CKS0 = 1;
000642   c7a0     bset    0x1a0, 0x3       	BSET	_T2CRbits,3
                                           ;	.line	108; "MC32P7351.c"	T2CKS1 = 0;
000643   d9a0     bclr    0x1a0, 0x4       	BCLR	_T2CRbits,4
                                           ;	.line	110; "MC32P7351.c"	TMRCKS0 = 0;
000644   d7ad     bclr    0x1ad, 0x3       	BCLR	_PWMCR1bits,3
                                           ;	.line	111; "MC32P7351.c"	TMRCKS1 = 1;
000645   c9ad     bset    0x1ad, 0x4       	BSET	_PWMCR1bits,4
                                           ;	.line	113; "MC32P7351.c"	T2LOAD = 209; //
000646   3cd1     movai   0xd1             	MOVAI	0xd1
000647   57a2     movra   0x1a2            	MOVRA	_T2LOAD
                                           ;	.line	114; "MC32P7351.c"	T2DATA = 0;
000648   77a3     clrr    0x1a3            	CLRR	_T2DATA
                                           ;	.line	115; "MC32P7351.c"	PWM2EC = 0; // PWM
000649   dda0     bclr    0x1a0, 0x6       	BCLR	_T2CRbits,6
                                           ;	.line	117; "MC32P7351.c"	T2EN = 1;
00064a   cfa0     bset    0x1a0, 0x7       	BSET	_T2CRbits,7
                                           ;	.line	118; "MC32P7351.c"	}
00064b   000c     return                   	RETURN	
                                           ; exit point of _timer2_pwm_config
                                           
                                           ;***
                                           ;  pBlock Stats: dbName = C
                                           ;***
                                           ;entry:  _timer1_pwm_config	;Function start
                                           ; 2 exit points
                                           ;has an exit
                                           ;; Starting pCode block
                                           _timer1_pwm_config	;Function start
                                           ; 2 exit points
                                           ;	.line	96; "MC32P7351.c"	T1LOAD = 172 - 1;
00064c   3cab     movai   0xab             	MOVAI	0xab
00064d   579e     movra   0x19e            	MOVRA	_T1LOAD
                                           ;	.line	98; "MC32P7351.c"	PWM1EC = 0;  // PWM1
00064e   dd9c     bclr    0x19c, 0x6       	BCLR	_T1CRbits,6
                                           ;	.line	99; "MC32P7351.c"	T1CR = 0x81; // FCPU2
00064f   3c81     movai   0x81             	MOVAI	0x81
000650   579c     movra   0x19c            	MOVRA	_T1CR
                                           ;	.line	100; "MC32P7351.c"	}
000651   000c     return                   	RETURN	
                                           ; exit point of _timer1_pwm_config
                                           
                                           ;***
                                           ;  pBlock Stats: dbName = C
                                           ;***
                                           ;entry:  _timer0_pwm_config	;Function start
                                           ; 2 exit points
                                           ;has an exit
                                           ;; Starting pCode block
                                           _timer0_pwm_config	;Function start
                                           ; 2 exit points
                                           ;	.line	83; "MC32P7351.c"	T0LOAD = 172 - 1;
000652   3cab     movai   0xab             	MOVAI	0xab
000653   579a     movra   0x19a            	MOVRA	_T0LOAD
                                           ;	.line	85; "MC32P7351.c"	PWM0EC = 0;  // PWM
000654   dd98     bclr    0x198, 0x6       	BCLR	_T0CRbits,6
                                           ;	.line	86; "MC32P7351.c"	T0CR = 0x81; // FCPU2
000655   3c81     movai   0x81             	MOVAI	0x81
000656   5798     movra   0x198            	MOVRA	_T0CR
                                           ;	.line	87; "MC32P7351.c"	}
000657   000c     return                   	RETURN	
                                           ; exit point of _timer0_pwm_config
                                           
                                           ;***
                                           ;  pBlock Stats: dbName = C
                                           ;***
                                           ;entry:  _adc_config	;Function start
                                           ; 2 exit points
                                           ;has an exit
                                           ;; Starting pCode block
                                           _adc_config	;Function start
                                           ; 2 exit points
                                           ;	.line	62; "MC32P7351.c"	P00OE = 0; // 
000658   d191     bclr    0x191, 0         	BCLR	_OEP0bits,0
                                           ;	.line	63; "MC32P7351.c"	P00DC = 1; // 
000659   c1b6     bset    0x1b6, 0         	BSET	_ADIOS0bits,0
                                           ;	.line	66; "MC32P7351.c"	P02OE = 0; // 
00065a   d591     bclr    0x191, 0x2       	BCLR	_OEP0bits,2
                                           ;	.line	67; "MC32P7351.c"	P02DC = 1; // 
00065b   c3b6     bset    0x1b6, 0x1       	BSET	_ADIOS0bits,1
                                           ;	.line	69; "MC32P7351.c"	ADCR0 = 0x0A; // 12ADCADC
00065c   3c0a     movai   0xa              	MOVAI	0x0a
00065d   57b0     movra   0x1b0            	MOVRA	_ADCR0
                                           ;	.line	70; "MC32P7351.c"	ADCR1 = 0xE1; // 125K  3V
00065e   3ce1     movai   0xe1             	MOVAI	0xe1
00065f   57b1     movra   0x1b1            	MOVRA	_ADCR1
                                           ;	.line	71; "MC32P7351.c"	ADCR2 = 0xFF; // ADC15ADC
000660   3cff     movai   0xff             	MOVAI	0xff
000661   57b2     movra   0x1b2            	MOVRA	_ADCR2
                                           ;	.line	72; "MC32P7351.c"	ADEN = 1;     // ADC
000662   c1b0     bset    0x1b0, 0         	BSET	_ADCR0bits,0
                                           ;	.line	73; "MC32P7351.c"	}
000663   000c     return                   	RETURN	
                                           ; exit point of _adc_config
                                           
                                           ;***
                                           ;  pBlock Stats: dbName = C
                                           ;***
                                           ;entry:  _IO_Init	;Function start
                                           ; 2 exit points
                                           ;has an exit
                                           ;; Starting pCode block
                                           _IO_Init	;Function start
                                           ; 2 exit points
                                           ;	.line	37; "MC32P7351.c"	IOP0 = 0x00;   // io
000664   7790     clrr    0x190            	CLRR	_IOP0
                                           ;	.line	38; "MC32P7351.c"	OEP0 = 0x3F;   // io 1:out  0:in
000665   3c3f     movai   0x3f             	MOVAI	0x3f
000666   5791     movra   0x191            	MOVRA	_OEP0
                                           ;	.line	39; "MC32P7351.c"	PUP0 = 0x00;   // io   1:enable  0:disable
000667   7792     clrr    0x192            	CLRR	_PUP0
                                           ;	.line	40; "MC32P7351.c"	PDP0 = 0x00;   // io   1:enable  0:disable
000668   7793     clrr    0x193            	CLRR	_PDP0
                                           ;	.line	41; "MC32P7351.c"	ADIOS0 = 0x00; // io  1:  0:io
000669   77b6     clrr    0x1b6            	CLRR	_ADIOS0
                                           ;	.line	43; "MC32P7351.c"	IOP1 = 0x00;   // io
00066a   7794     clrr    0x194            	CLRR	_IOP1
                                           ;	.line	44; "MC32P7351.c"	OEP1 = 0xFF;   // io 1:out  0:in
00066b   3cff     movai   0xff             	MOVAI	0xff
00066c   5795     movra   0x195            	MOVRA	_OEP1
                                           ;	.line	45; "MC32P7351.c"	PUP1 = 0x00;   // io   1:enable  0:disable
00066d   7796     clrr    0x196            	CLRR	_PUP1
                                           ;	.line	46; "MC32P7351.c"	PDP1 = 0x00;   // io   1:enable  0:disable
00066e   7797     clrr    0x197            	CLRR	_PDP1
                                           ;	.line	47; "MC32P7351.c"	ADIOS1 = 0x00; // io  1:  0:io
00066f   77b7     clrr    0x1b7            	CLRR	_ADIOS1
                                           ;	.line	54; "MC32P7351.c"	PMOD = 0x00;  // P00P01P13 io
000670   77bc     clrr    0x1bc            	CLRR	_PMOD
                                           ;	.line	55; "MC32P7351.c"	DRVCR = 0x80; // 
000671   3c80     movai   0x80             	MOVAI	0x80
000672   578c     movra   0x18c            	MOVRA	_DRVCR
                                           ;	.line	56; "MC32P7351.c"	}
000673   000c     return                   	RETURN	
                                           ; exit point of _IO_Init
                                           
                                           ;***
                                           ;  pBlock Stats: dbName = C
                                           ;***
                                           ;entry:  _CLR_RAM	;Function start
                                           ; 2 exit points
                                           ;has an exit
                                           ;; Starting pCode block
                                           _CLR_RAM	;Function start
                                           ; 2 exit points
                                           ;	.line	22; "MC32P7351.c"	for (FSR0 = 0; FSR0 < 0xff; FSR0++)
000674   7784     clrr    0x184            	CLRR	_FSR0
                                           ;;unsigned compare: left < lit(0xFF=255), size=1
                                           _00118_DS_
000675   3cff     movai   0xff             	MOVAI	0xff
000676   4984     rsubar  0x184            	RSUBAR	_FSR0
000677   f187     jbclr   0x187, 0         	JBCLR	PFLAG,0
000678   a67c     goto    0x67c            	GOTO	_00116_DS_
                                           ;;genSkipc:3291: created from rifx:013B5EFC
                                           ;	.line	24; "MC32P7351.c"	INDF0 = 0x00;
000679   7780     clrr    0x180            	CLRR	_INDF0
                                           ;	.line	22; "MC32P7351.c"	for (FSR0 = 0; FSR0 < 0xff; FSR0++)
00067a   6784     incr    0x184            	INCR	_FSR0
00067b   a675     goto    0x675            	GOTO	_00118_DS_
                                           _00116_DS_
                                           ;	.line	26; "MC32P7351.c"	FSR0 = 0xFF;
00067c   3cff     movai   0xff             	MOVAI	0xff
00067d   5784     movra   0x184            	MOVRA	_FSR0
                                           ;	.line	27; "MC32P7351.c"	INDF0 = 0x00;
00067e   7780     clrr    0x180            	CLRR	_INDF0
                                           ;	.line	28; "MC32P7351.c"	}
00067f   000c     return                   	RETURN	
                                           ; exit point of _CLR_RAM
                                           
                                           ;***
                                           ;  pBlock Stats: dbName = C
                                           ;***
                                           ;entry:  _delay_ms	;Function start
                                           ; 2 exit points
                                           ;has an exit
                                           ;7 compiler assigned registers:
                                           ;   r0x104A
                                           ;   STK00
                                           ;   r0x104B
                                           ;   r0x104C
                                           ;   r0x104D
                                           ;   r0x104E
                                           ;   r0x104F
                                           ;; Starting pCode block
                                           _delay_ms	;Function start
                                           ; 2 exit points
                                           ;	.line	363; "user.h"	void delay_ms(u16 xms)
000680   5608     movra   0x8              	MOVRA	r0x104A
000681   5806     movar   0x6              	MOVAR	STK00
000682   5607     movra   0x7              	MOVRA	r0x104B
                                           _00108_DS_
                                           ;	.line	365; "user.h"	while (xms)
000683   5807     movar   0x7              	MOVAR	r0x104B
000684   5c08     orar    0x8              	ORAR	r0x104A
000685   f587     jbclr   0x187, 0x2       	JBCLR	PFLAG,2
000686   a69f     goto    0x69f            	GOTO	_00111_DS_
                                           ;	.line	368; "user.h"	while (i--)
000687   3c3c     movai   0x3c             	MOVAI	0x3c
000688   5609     movra   0x9              	MOVRA	r0x104C
000689   3c02     movai   0x2              	MOVAI	0x02
00068a   560a     movra   0xa              	MOVRA	r0x104D
                                           _00105_DS_
00068b   5809     movar   0x9              	MOVAR	r0x104C
00068c   560b     movra   0xb              	MOVRA	r0x104E
00068d   580a     movar   0xa              	MOVAR	r0x104D
00068e   560c     movra   0xc              	MOVRA	r0x104F
00068f   3cff     movai   0xff             	MOVAI	0xff
000690   7e09     addra   0x9              	ADDRA	r0x104C
000691   e187     jbset   0x187, 0         	JBSET	PFLAG,0
000692   6e0a     decr    0xa              	DECR	r0x104D
000693   580b     movar   0xb              	MOVAR	r0x104E
000694   5c0c     orar    0xc              	ORAR	r0x104F
000695   f587     jbclr   0x187, 0x2       	JBCLR	PFLAG,2
000696   a699     goto    0x699            	GOTO	_00107_DS_
                                           ;	.line	370; "user.h"	Nop();
000697   0000     nop                      	nop	
000698   a68b     goto    0x68b            	GOTO	_00105_DS_
                                           _00107_DS_
                                           ;	.line	372; "user.h"	xms--; //  --while()
000699   3cff     movai   0xff             	MOVAI	0xff
00069a   7e07     addra   0x7              	ADDRA	r0x104B
00069b   e187     jbset   0x187, 0         	JBSET	PFLAG,0
00069c   6e08     decr    0x8              	DECR	r0x104A
                                           ;	.line	376; "user.h"	__endasm;
                                           	;
00069d   000e     clrwdt                   	clrwdt;
                                           	
00069e   a683     goto    0x683            	GOTO	_00108_DS_
                                           _00111_DS_
                                           ;	.line	378; "user.h"	}
00069f   000c     return                   	RETURN	
                                           ; exit point of _delay_ms
                                           
                                           
                                           ;	code size estimation:
                                           ;	 1673+    0 =  1673 instructions ( 3346 byte)
                                           
                                           	end
                                           ;--------------------------------------------------------
                                           ; File Created by SN-SDCC : SinoMCU ANSI-C Compiler
                                           ; Version 2.0.0 (Dec 11 2019) (MINGW32)
                                           ; This file was generated Sat Apr 12 16:14:28 2025
                                           ;--------------------------------------------------------
                                           ; MC32 port for the RISC core
                                           ;--------------------------------------------------------
                                           ;	.file	"MC32P7351.c"
                                           	list	p=7351
                                           	radix dec
                                           	include "7351.inc"
                                           ;--------------------------------------------------------
                                           ; external declarations
                                           ;--------------------------------------------------------
                                           	extern	__mullong
                                           	extern	__divulong
                                           	extern	_INDF0bits
                                           	extern	_INDF1bits
                                           	extern	_INDF2bits
                                           	extern	_HIBYTEbits
                                           	extern	_FSR0bits
                                           	extern	_FSR1bits
                                           	extern	_PCLbits
                                           	extern	_PFLAGbits
                                           	extern	_MCRbits
                                           	extern	_INDF3bits
                                           	extern	_INTEbits
                                           	extern	_INTFbits
                                           	extern	_DRVCRbits
                                           	extern	_PFRCCRbits
                                           	extern	_P1KBCRbits
                                           	extern	_PFRCCALbits
                                           	extern	_IOP0bits
                                           	extern	_OEP0bits
                                           	extern	_PUP0bits
                                           	extern	_PDP0bits
                                           	extern	_IOP1bits
                                           	extern	_OEP1bits
                                           	extern	_PUP1bits
                                           	extern	_PDP1bits
                                           	extern	_T0CRbits
                                           	extern	_T0CNTbits
                                           	extern	_T0LOADbits
                                           	extern	_T0DATAbits
                                           	extern	_T1CRbits
                                           	extern	_T1CNTbits
                                           	extern	_T1LOADbits
                                           	extern	_T1DATAbits
                                           	extern	_T2CRbits
                                           	extern	_T2CNTbits
                                           	extern	_T2LOADbits
                                           	extern	_T2DATAbits
                                           	extern	_T3CRbits
                                           	extern	_T3CNTbits
                                           	extern	_T3LOADbits
                                           	extern	_PWM0DRbits
                                           	extern	_PWM1DRbits
                                           	extern	_PWM2DRbits
                                           	extern	_PWMCR0bits
                                           	extern	_PWMCR1bits
                                           	extern	_OSCMRbits
                                           	extern	_LVDCRbits
                                           	extern	_ADCR0bits
                                           	extern	_ADCR1bits
                                           	extern	_ADCR2bits
                                           	extern	_OSADJCRbits
                                           	extern	_ADRHbits
                                           	extern	_ADRLbits
                                           	extern	_ADIOS0bits
                                           	extern	_ADIOS1bits
                                           	extern	_PMODbits
                                           	extern	_PWMCR3bits
                                           	extern	_PWMCR2bits
                                           	extern	_PFRCAUXbits
                                           	extern	_HIRCCALbits
                                           	extern	_INDF0
                                           	extern	_INDF1
                                           	extern	_INDF2
                                           	extern	_HIBYTE
                                           	extern	_FSR0
                                           	extern	_FSR1
                                           	extern	_PCL
                                           	extern	_PFLAG
                                           	extern	_MCR
                                           	extern	_INDF3
                                           	extern	_INTE
                                           	extern	_INTF
                                           	extern	_DRVCR
                                           	extern	_PFRCCR
                                           	extern	_P1KBCR
                                           	extern	_PFRCCAL
                                           	extern	_IOP0
                                           	extern	_OEP0
                                           	extern	_PUP0
                                           	extern	_PDP0
                                           	extern	_IOP1
                                           	extern	_OEP1
                                           	extern	_PUP1
                                           	extern	_PDP1
                                           	extern	_T0CR
                                           	extern	_T0CNT
                                           	extern	_T0LOAD
                                           	extern	_T0DATA
                                           	extern	_T1CR
                                           	extern	_T1CNT
                                           	extern	_T1LOAD
                                           	extern	_T1DATA
                                           	extern	_T2CR
                                           	extern	_T2CNT
                                           	extern	_T2LOAD
                                           	extern	_T2DATA
                                           	extern	_T3CR
                                           	extern	_T3CNT
                                           	extern	_T3LOAD
                                           	extern	_PWM0DR
                                           	extern	_PWM1DR
                                           	extern	_PWM2DR
                                           	extern	_PWMCR0
                                           	extern	_PWMCR1
                                           	extern	_OSCMR
                                           	extern	_LVDCR
                                           	extern	_ADCR0
                                           	extern	_ADCR1
                                           	extern	_ADCR2
                                           	extern	_OSADJCR
                                           	extern	_ADRH
                                           	extern	_ADRL
                                           	extern	_ADIOS0
                                           	extern	_ADIOS1
                                           	extern	_PMOD
                                           	extern	_PWMCR3
                                           	extern	_PWMCR2
                                           	extern	_PFRCAUX
                                           	extern	_HIRCCAL
                                           ;--------------------------------------------------------
                                           ; global declarations
                                           ;--------------------------------------------------------
                                           	global	_delay_ms
                                           	global	_CLR_RAM
                                           	global	_IO_Init
                                           	global	_adc_config
                                           	global	_timer0_pwm_config
                                           	global	_timer1_pwm_config
                                           	global	_timer2_pwm_config
                                           	global	_timer3_config
                                           	global	_key_config
                                           	global	_adc_sel_pin
                                           	global	_adc_get_val
                                           	global	_adc_get_val_once
                                           	global	_Sys_Init
                                           	global	_key_scan
                                           	global	_key_event_handle
                                           	global	_adc_scan_handle
                                           	global	_turn_dir_scan_handle
                                           	global	_shutdown_scan_handle
                                           	global	_low_power_scan_handle
                                           	global	_main
                                           	global	_int_isr
                                           	global	_key_event
                                           	global	_mode_flag
                                           	global	_key_press_flag
                                           	global	_i
                                           	global	_adc_val
                                           	global	_turn_dir_ms_cnt
                                           	global	_shut_down_ms_cnt
                                           	global	_adc_bat_val
                                           	global	_adc_charging_val
                                           	global	_max_pwm_val
                                           	global	_last_pwm_val
                                           	global	_tmp_val
                                           	global	_tmp_val_l
                                           	global	_tmp_val_cnt
                                           	global	_flag_bat_is_empty
                                           	global	_tmp_bat_val
                                           	global	_over_charging_cnt
                                           	global	_full_charge_cnt
                                           	global	_abuf
                                           	global	_statusbuf
                                           	global	_flag1
                                           	global	_flag2
                                           	global	_flag3
                                           
                                           	global STK06
                                           	global STK05
                                           	global STK04
                                           	global STK03
                                           	global STK02
                                           	global STK01
                                           	global STK00
                                           
                                           sharebank udata_ovr 0x0000
                                           STK06	res 1
                                           STK05	res 1
                                           STK04	res 1
                                           STK03	res 1
                                           STK02	res 1
                                           STK01	res 1
                                           STK00	res 1
                                           
                                           ;--------------------------------------------------------
                                           ; global definitions
                                           ;--------------------------------------------------------
                                           UD_MC32P7351_0	udata
                                           _key_event	res	1
                                           
                                           UD_MC32P7351_1	udata
                                           _mode_flag	res	1
                                           
                                           UD_MC32P7351_2	udata
                                           _key_press_flag	res	1
                                           
                                           UD_MC32P7351_3	udata
                                           _i	res	1
                                           
                                           UD_MC32P7351_4	udata
                                           _adc_val	res	2
                                           
                                           UD_MC32P7351_5	udata
                                           _turn_dir_ms_cnt	res	4
                                           
                                           UD_MC32P7351_6	udata
                                           _shut_down_ms_cnt	res	4
                                           
                                           UD_MC32P7351_7	udata
                                           _adc_bat_val	res	4
                                           
                                           UD_MC32P7351_8	udata
                                           _adc_charging_val	res	2
                                           
                                           UD_MC32P7351_9	udata
                                           _max_pwm_val	res	4
                                           
                                           UD_MC32P7351_10	udata
                                           _last_pwm_val	res	2
                                           
                                           UD_MC32P7351_11	udata
                                           _tmp_val	res	2
                                           
                                           UD_MC32P7351_12	udata
                                           _tmp_val_l	res	16
                                           
                                           UD_MC32P7351_13	udata
                                           _tmp_val_cnt	res	1
                                           
                                           UD_MC32P7351_14	udata
                                           _flag_bat_is_empty	res	1
                                           
                                           UD_MC32P7351_15	udata
                                           _tmp_bat_val	res	2
                                           
                                           UD_MC32P7351_16	udata
                                           _over_charging_cnt	res	1
                                           
                                           UD_MC32P7351_17	udata
                                           _full_charge_cnt	res	1
                                           
                                           UD_MC32P7351_18	udata
                                           _abuf	res	1
                                           
                                           UD_MC32P7351_19	udata
                                           _statusbuf	res	1
                                           
                                           UD_MC32P7351_20	udata
                                           _flag1	res	1
                                           
                                           UD_MC32P7351_21	udata
                                           _flag2	res	1
                                           
                                           UD_MC32P7351_22	udata
                                           _flag3	res	1
                                           
                                           ;--------------------------------------------------------
                                           ; absolute symbol definitions
                                           ;--------------------------------------------------------
                                           ;--------------------------------------------------------
                                           ; compiler-defined variables
                                           ;--------------------------------------------------------
                                           UDL_MC32P7351_0	udata
                                           r0x104B	res	1
                                           r0x104A	res	1
                                           r0x104C	res	1
                                           r0x104D	res	1
                                           r0x104E	res	1
                                           r0x104F	res	1
                                           r0x1050	res	1
                                           r0x1051	res	1
                                           r0x1052	res	1
                                           r0x1053	res	1
                                           r0x1054	res	1
                                           r0x1056	res	1
                                           r0x1055	res	1
                                           r0x1057	res	1
                                           r0x1058	res	1
                                           r0x1059	res	1
                                           r0x105A	res	1
                                           r0x105C	res	1
                                           r0x105B	res	1
                                           r0x105D	res	1
                                           r0x105E	res	1
                                           r0x105F	res	1
                                           r0x1060	res	1
                                           r0x1061	res	1
                                           r0x1062	res	1
                                           r0x1063	res	1
                                           r0x1064	res	1
                                           _key_scan_cur_key_id_65536_41	res	1
                                           _key_scan_filter_cnt_65536_41	res	1
                                           _key_scan_filter_key_id_65536_41	res	1
                                           _key_scan_press_cnt_65536_41	res	1
                                           _key_scan_flag_is_key_mode_hold_65536_41	res	1
                                           _key_scan_last_key_id_65536_41	res	1
                                           _adc_scan_handle_cnt_65536_106	res	1
                                           _adc_scan_handle_need_charge_cnt_65536_106	res	1
                                           _int_isr___1ms_cnt_196608_238	res	1
                                           _int_isr_key_scan_cnt_327680_240	res	1
                                           _int_isr_low_bat_cnt_327680_243	res	2
                                           _int_isr_shut_down_bat_cnt_327680_247	res	2
                                           _int_isr_update_current_time_cnt_327680_251	res	2
                                           _led_state	res	1
                                           _pwm_counter	res	2
                                           _breath_counter	res	1
                                           _pwm_duty	res	1
                                           _breath_direction	res	1
                                           ;--------------------------------------------------------
                                           ; initialized data
                                           ;--------------------------------------------------------
                                           
                                           ;@Allocation info for local variables in function 'delay_ms'
                                           ;@delay_ms delay_ms                  Allocated to registers ;size:2
                                           ;@delay_ms INDF0bits                 Allocated to registers ;size:1
                                           ;@delay_ms INDF1bits                 Allocated to registers ;size:1
                                           ;@delay_ms INDF2bits                 Allocated to registers ;size:1
                                           ;@delay_ms HIBYTEbits                Allocated to registers ;size:1
                                           ;@delay_ms FSR0bits                  Allocated to registers ;size:1
                                           ;@delay_ms FSR1bits                  Allocated to registers ;size:1
                                           ;@delay_ms PCLbits                   Allocated to registers ;size:1
                                           ;@delay_ms PFLAGbits                 Allocated to registers ;size:1
                                           ;@delay_ms MCRbits                   Allocated to registers ;size:1
                                           ;@delay_ms INDF3bits                 Allocated to registers ;size:1
                                           ;@delay_ms INTEbits                  Allocated to registers ;size:1
                                           ;@delay_ms INTFbits                  Allocated to registers ;size:1
                                           ;@delay_ms DRVCRbits                 Allocated to registers ;size:1
                                           ;@delay_ms PFRCCRbits                Allocated to registers ;size:1
                                           ;@delay_ms P1KBCRbits                Allocated to registers ;size:1
                                           ;@delay_ms PFRCCALbits               Allocated to registers ;size:1
                                           ;@delay_ms IOP0bits                  Allocated to registers ;size:1
                                           ;@delay_ms OEP0bits                  Allocated to registers ;size:1
                                           ;@delay_ms PUP0bits                  Allocated to registers ;size:1
                                           ;@delay_ms PDP0bits                  Allocated to registers ;size:1
                                           ;@delay_ms IOP1bits                  Allocated to registers ;size:1
                                           ;@delay_ms OEP1bits                  Allocated to registers ;size:1
                                           ;@delay_ms PUP1bits                  Allocated to registers ;size:1
                                           ;@delay_ms PDP1bits                  Allocated to registers ;size:1
                                           ;@delay_ms T0CRbits                  Allocated to registers ;size:1
                                           ;@delay_ms T0CNTbits                 Allocated to registers ;size:1
                                           ;@delay_ms T0LOADbits                Allocated to registers ;size:1
                                           ;@delay_ms T0DATAbits                Allocated to registers ;size:1
                                           ;@delay_ms T1CRbits                  Allocated to registers ;size:1
                                           ;@delay_ms T1CNTbits                 Allocated to registers ;size:1
                                           ;@delay_ms T1LOADbits                Allocated to registers ;size:1
                                           ;@delay_ms T1DATAbits                Allocated to registers ;size:1
                                           ;@delay_ms T2CRbits                  Allocated to registers ;size:1
                                           ;@delay_ms T2CNTbits                 Allocated to registers ;size:1
                                           ;@delay_ms T2LOADbits                Allocated to registers ;size:1
                                           ;@delay_ms T2DATAbits                Allocated to registers ;size:1
                                           ;@delay_ms T3CRbits                  Allocated to registers ;size:1
                                           ;@delay_ms T3CNTbits                 Allocated to registers ;size:1
                                           ;@delay_ms T3LOADbits                Allocated to registers ;size:1
                                           ;@delay_ms PWM0DRbits                Allocated to registers ;size:1
                                           ;@delay_ms PWM1DRbits                Allocated to registers ;size:1
                                           ;@delay_ms PWM2DRbits                Allocated to registers ;size:1
                                           ;@delay_ms PWMCR0bits                Allocated to registers ;size:1
                                           ;@delay_ms PWMCR1bits                Allocated to registers ;size:1
                                           ;@delay_ms OSCMRbits                 Allocated to registers ;size:1
                                           ;@delay_ms LVDCRbits                 Allocated to registers ;size:1
                                           ;@delay_ms ADCR0bits                 Allocated to registers ;size:1
                                           ;@delay_ms ADCR1bits                 Allocated to registers ;size:1
                                           ;@delay_ms ADCR2bits                 Allocated to registers ;size:1
                                           ;@delay_ms OSADJCRbits               Allocated to registers ;size:1
                                           ;@delay_ms ADRHbits                  Allocated to registers ;size:1
                                           ;@delay_ms ADRLbits                  Allocated to registers ;size:1
                                           ;@delay_ms ADIOS0bits                Allocated to registers ;size:1
                                           ;@delay_ms ADIOS1bits                Allocated to registers ;size:1
                                           ;@delay_ms PMODbits                  Allocated to registers ;size:1
                                           ;@delay_ms PWMCR3bits                Allocated to registers ;size:1
                                           ;@delay_ms PWMCR2bits                Allocated to registers ;size:1
                                           ;@delay_ms PFRCAUXbits               Allocated to registers ;size:1
                                           ;@delay_ms HIRCCALbits               Allocated to registers ;size:1
                                           ;@delay_ms key_event                 Allocated to registers ;size:1
                                           ;@delay_ms mode_flag                 Allocated to registers ;size:1
                                           ;@delay_ms key_press_flag            Allocated to registers ;size:1
                                           ;@delay_ms i                         Allocated to registers ;size:1
                                           ;@delay_ms adc_val                   Allocated to registers ;size:2
                                           ;@delay_ms turn_dir_ms_cnt           Allocated to registers ;size:4
                                           ;@delay_ms shut_down_ms_cnt          Allocated to registers ;size:4
                                           ;@delay_ms adc_bat_val               Allocated to registers ;size:4
                                           ;@delay_ms adc_charging_val          Allocated to registers ;size:2
                                           ;@delay_ms max_pwm_val               Allocated to registers ;size:4
                                           ;@delay_ms last_pwm_val              Allocated to registers ;size:2
                                           ;@delay_ms tmp_val                   Allocated to registers ;size:2
                                           ;@delay_ms tmp_val_l                 Allocated to registers ;size:16
                                           ;@delay_ms tmp_val_cnt               Allocated to registers ;size:1
                                           ;@delay_ms flag_bat_is_empty         Allocated to registers ;size:1
                                           ;@delay_ms tmp_bat_val               Allocated to registers ;size:2
                                           ;@delay_ms over_charging_cnt         Allocated to registers ;size:1
                                           ;@delay_ms full_charge_cnt           Allocated to registers ;size:1
                                           ;@delay_ms pwm_duty                  Allocated to registers ;size:1
                                           ;@delay_ms pwm_counter               Allocated to registers ;size:2
                                           ;@delay_ms breath_counter            Allocated to registers ;size:1
                                           ;@delay_ms breath_direction          Allocated to registers ;size:1
                                           ;@delay_ms led_state                 Allocated to registers ;size:1
                                           ;@delay_ms abuf                      Allocated to registers ;size:1
                                           ;@delay_ms statusbuf                 Allocated to registers ;size:1
                                           ;@delay_ms flag1                     Allocated to registers ;size:1
                                           ;@delay_ms flag2                     Allocated to registers ;size:1
                                           ;@delay_ms flag3                     Allocated to registers ;size:1
                                           ;@delay_ms xms                       Allocated to registers ;size:2
                                           ;@delay_ms i                         Allocated to registers r0x104C r0x104D ;size:2
                                           ;@delay_ms INDF0                     Allocated to registers ;size:1
                                           ;@delay_ms INDF1                     Allocated to registers ;size:1
                                           ;@delay_ms INDF2                     Allocated to registers ;size:1
                                           ;@delay_ms HIBYTE                    Allocated to registers ;size:1
                                           ;@delay_ms FSR0                      Allocated to registers ;size:1
                                           ;@delay_ms FSR1                      Allocated to registers ;size:1
                                           ;@delay_ms PCL                       Allocated to registers ;size:1
                                           ;@delay_ms PFLAG                     Allocated to registers ;size:1
                                           ;@delay_ms MCR                       Allocated to registers ;size:1
                                           ;@delay_ms INDF3                     Allocated to registers ;size:1
                                           ;@delay_ms INTE                      Allocated to registers ;size:1
                                           ;@delay_ms INTF                      Allocated to registers ;size:1
                                           ;@delay_ms DRVCR                     Allocated to registers ;size:1
                                           ;@delay_ms PFRCCR                    Allocated to registers ;size:1
                                           ;@delay_ms P1KBCR                    Allocated to registers ;size:1
                                           ;@delay_ms PFRCCAL                   Allocated to registers ;size:1
                                           ;@delay_ms IOP0                      Allocated to registers ;size:1
                                           ;@delay_ms OEP0                      Allocated to registers ;size:1
                                           ;@delay_ms PUP0                      Allocated to registers ;size:1
                                           ;@delay_ms PDP0                      Allocated to registers ;size:1
                                           ;@delay_ms IOP1                      Allocated to registers ;size:1
                                           ;@delay_ms OEP1                      Allocated to registers ;size:1
                                           ;@delay_ms PUP1                      Allocated to registers ;size:1
                                           ;@delay_ms PDP1                      Allocated to registers ;size:1
                                           ;@delay_ms T0CR                      Allocated to registers ;size:1
                                           ;@delay_ms T0CNT                     Allocated to registers ;size:1
                                           ;@delay_ms T0LOAD                    Allocated to registers ;size:1
                                           ;@delay_ms T0DATA                    Allocated to registers ;size:1
                                           ;@delay_ms T1CR                      Allocated to registers ;size:1
                                           ;@delay_ms T1CNT                     Allocated to registers ;size:1
                                           ;@delay_ms T1LOAD                    Allocated to registers ;size:1
                                           ;@delay_ms T1DATA                    Allocated to registers ;size:1
                                           ;@delay_ms T2CR                      Allocated to registers ;size:1
                                           ;@delay_ms T2CNT                     Allocated to registers ;size:1
                                           ;@delay_ms T2LOAD                    Allocated to registers ;size:1
                                           ;@delay_ms T2DATA                    Allocated to registers ;size:1
                                           ;@delay_ms T3CR                      Allocated to registers ;size:1
                                           ;@delay_ms T3CNT                     Allocated to registers ;size:1
                                           ;@delay_ms T3LOAD                    Allocated to registers ;size:1
                                           ;@delay_ms PWM0DR                    Allocated to registers ;size:1
                                           ;@delay_ms PWM1DR                    Allocated to registers ;size:1
                                           ;@delay_ms PWM2DR                    Allocated to registers ;size:1
                                           ;@delay_ms PWMCR0                    Allocated to registers ;size:1
                                           ;@delay_ms PWMCR1                    Allocated to registers ;size:1
                                           ;@delay_ms OSCMR                     Allocated to registers ;size:1
                                           ;@delay_ms LVDCR                     Allocated to registers ;size:1
                                           ;@delay_ms ADCR0                     Allocated to registers ;size:1
                                           ;@delay_ms ADCR1                     Allocated to registers ;size:1
                                           ;@delay_ms ADCR2                     Allocated to registers ;size:1
                                           ;@delay_ms OSADJCR                   Allocated to registers ;size:1
                                           ;@delay_ms ADRH                      Allocated to registers ;size:1
                                           ;@delay_ms ADRL                      Allocated to registers ;size:1
                                           ;@delay_ms ADIOS0                    Allocated to registers ;size:1
                                           ;@delay_ms ADIOS1                    Allocated to registers ;size:1
                                           ;@delay_ms PMOD                      Allocated to registers ;size:1
                                           ;@delay_ms PWMCR3                    Allocated to registers ;size:1
                                           ;@delay_ms PWMCR2                    Allocated to registers ;size:1
                                           ;@delay_ms PFRCAUX                   Allocated to registers ;size:1
                                           ;@delay_ms HIRCCAL                   Allocated to registers ;size:1
                                           ;@end Allocation info for local variables in function 'delay_ms';
                                           ;@Allocation info for local variables in function 'CLR_RAM'
                                           ;@end Allocation info for local variables in function 'CLR_RAM';
                                           ;@Allocation info for local variables in function 'IO_Init'
                                           ;@end Allocation info for local variables in function 'IO_Init';
                                           ;@Allocation info for local variables in function 'adc_config'
                                           ;@end Allocation info for local variables in function 'adc_config';
                                           ;@Allocation info for local variables in function 'timer0_pwm_config'
                                           ;@end Allocation info for local variables in function 'timer0_pwm_config';
                                           ;@Allocation info for local variables in function 'timer1_pwm_config'
                                           ;@end Allocation info for local variables in function 'timer1_pwm_config';
                                           ;@Allocation info for local variables in function 'timer2_pwm_config'
                                           ;@end Allocation info for local variables in function 'timer2_pwm_config';
                                           ;@Allocation info for local variables in function 'timer3_config'
                                           ;@end Allocation info for local variables in function 'timer3_config';
                                           ;@Allocation info for local variables in function 'key_config'
                                           ;@end Allocation info for local variables in function 'key_config';
                                           ;@Allocation info for local variables in function 'adc_sel_pin'
                                           ;@adc_sel_pin adc_pin                   Allocated to registers r0x1050 ;size:1
                                           ;@end Allocation info for local variables in function 'adc_sel_pin';
                                           ;@Allocation info for local variables in function 'adc_get_val'
                                           ;@adc_get_val i                         Allocated to registers r0x1052 ;size:1
                                           ;@adc_get_val g_temp_value              Allocated to registers r0x1053 r0x1054 ;size:2
                                           ;@adc_get_val g_tmpbuff                 Allocated to registers r0x104E r0x104F r0x1055 r0x1057 ;size:4
                                           ;@adc_get_val g_adcmax                  Allocated to registers r0x104E r0x104F ;size:2
                                           ;@adc_get_val g_adcmin                  Allocated to registers r0x1050 r0x1051 ;size:2
                                           ;@end Allocation info for local variables in function 'adc_get_val';
                                           ;@Allocation info for local variables in function 'adc_get_val_once'
                                           ;@adc_get_val_once g_temp_value              Allocated to registers r0x104D r0x104C ;size:2
                                           ;@end Allocation info for local variables in function 'adc_get_val_once';
                                           ;@Allocation info for local variables in function 'Sys_Init'
                                           ;@end Allocation info for local variables in function 'Sys_Init';
                                           ;@Allocation info for local variables in function 'key_scan'
                                           ;@key_scan last_key_id               Allocated to registers ;size:1
                                           ;@key_scan press_cnt                 Allocated to registers ;size:1
                                           ;@key_scan filter_cnt                Allocated to registers ;size:1
                                           ;@key_scan filter_key_id             Allocated to registers ;size:1
                                           ;@key_scan cur_key_id                Allocated to registers ;size:1
                                           ;@key_scan flag_is_key_mode_hold     Allocated to registers ;size:1
                                           ;@end Allocation info for local variables in function 'key_scan';
                                           ;@Allocation info for local variables in function 'key_scan'
                                           ;@key_scan last_key_id               Allocated to registers ;size:1
                                           ;@key_scan press_cnt                 Allocated to registers ;size:1
                                           ;@key_scan filter_cnt                Allocated to registers ;size:1
                                           ;@key_scan filter_key_id             Allocated to registers ;size:1
                                           ;@key_scan cur_key_id                Allocated to registers ;size:1
                                           ;@key_scan flag_is_key_mode_hold     Allocated to registers ;size:1
                                           ;@end Allocation info for local variables in function 'key_scan';
                                           ;@Allocation info for local variables in function 'key_event_handle'
                                           ;@end Allocation info for local variables in function 'key_event_handle';
                                           ;@Allocation info for local variables in function 'adc_scan_handle'
                                           ;@adc_scan_handle cnt                       Allocated to registers ;size:1
                                           ;@adc_scan_handle need_charge_cnt           Allocated to registers ;size:1
                                           ;@end Allocation info for local variables in function 'adc_scan_handle';
                                           ;@Allocation info for local variables in function 'turn_dir_scan_handle'
                                           ;@end Allocation info for local variables in function 'turn_dir_scan_handle';
                                           ;@Allocation info for local variables in function 'shutdown_scan_handle'
                                           ;@end Allocation info for local variables in function 'shutdown_scan_handle';
                                           ;@Allocation info for local variables in function 'low_power_scan_handle'
                                           ;@end Allocation info for local variables in function 'low_power_scan_handle';
                                           ;@Allocation info for local variables in function 'main'
                                           ;@end Allocation info for local variables in function 'main';
                                           ;@Allocation info for local variables in function 'int_isr'
                                           ;@int_isr __1ms_cnt                 Allocated to registers ;size:1
                                           ;@int_isr key_scan_cnt              Allocated to registers ;size:1
                                           ;@int_isr low_bat_cnt               Allocated to registers ;size:2
                                           ;@int_isr shut_down_bat_cnt         Allocated to registers ;size:2
                                           ;@int_isr update_current_time_cnt   Allocated to registers ;size:2
                                           ;@end Allocation info for local variables in function 'int_isr';
                                           ;@Allocation info for local variables in function 'int_isr'
                                           ;@int_isr __1ms_cnt                 Allocated to registers ;size:1
                                           ;@int_isr key_scan_cnt              Allocated to registers ;size:1
                                           ;@int_isr low_bat_cnt               Allocated to registers ;size:2
                                           ;@int_isr shut_down_bat_cnt         Allocated to registers ;size:2
                                           ;@int_isr update_current_time_cnt   Allocated to registers ;size:2
                                           ;@end Allocation info for local variables in function 'int_isr';
                                           
                                           ;--------------------------------------------------------
                                           ; overlayable items in internal ram 
                                           ;--------------------------------------------------------
                                           ;	udata_ovr
                                           ;--------------------------------------------------------
                                           ; reset vector 
                                           ;--------------------------------------------------------
                                           STARTUP	code 0x0000
                                           	goto	_main
                                           ;--------------------------------------------------------
                                           ; interrupt and initialization code
                                           ;--------------------------------------------------------
                                           c_interrupt	code	0x8
                                           __sdcc_interrupt
                                           ;***
                                           ;  pBlock Stats: dbName = I
                                           ;***
                                           ;entry:  _int_isr	;Function start
                                           ; 0 exit points
                                           ;functions called:
                                           ;   _key_scan
                                           ;   _key_scan
                                           ;2 compiler assigned registers:
                                           ;   r0x1063
                                           ;   r0x1064
                                           ;; Starting pCode block
                                           _int_isr	;Function start
                                           ; 0 exit points
                                           ;	.line	1303; "MC32P7351.c"	__endasm;
                                           	;
                                           	movra	_abuf;
                                           	swapar	_PFLAG;
                                           	movra	_statusbuf;
                                           	
                                           ;	.line	1310; "MC32P7351.c"	if (T3IF & T3IE)
                                           	CLRR	r0x1063
                                           	JBCLR	_INTFbits,7
                                           	INCR	r0x1063
                                           	CLRR	r0x1064
                                           	JBCLR	_INTEbits,7
                                           	INCR	r0x1064
                                           	MOVAR	r0x1064
                                           	ANDRA	r0x1063
                                           	MOVAI	0x00
                                           	ORAR	r0x1063
                                           	JBCLR	PFLAG,2
                                           	GOTO	_01030_DS_
                                           ;	.line	1314; "MC32P7351.c"	__1ms_cnt++;
                                           	INCR	_int_isr___1ms_cnt_196608_238
                                           ;;unsigned compare: left < lit(0xA=10), size=1
                                           ;	.line	1315; "MC32P7351.c"	if (__1ms_cnt >= 10)
                                           	MOVAI	0x0a
                                           	RSUBAR	_int_isr___1ms_cnt_196608_238
                                           	JBSET	PFLAG,0
                                           	GOTO	_01007_DS_
                                           ;;genSkipc:3291: created from rifx:013B5EFC
                                           ;	.line	1317; "MC32P7351.c"	__1ms_cnt = 0;
                                           	CLRR	_int_isr___1ms_cnt_196608_238
                                           ;	.line	1321; "MC32P7351.c"	key_scan_cnt++;
                                           	INCR	_int_isr_key_scan_cnt_327680_240
                                           ;;unsigned compare: left < lit(0xA=10), size=1
                                           ;	.line	1322; "MC32P7351.c"	if (key_scan_cnt >= 10)
                                           	MOVAI	0x0a
                                           	RSUBAR	_int_isr_key_scan_cnt_327680_240
                                           	JBSET	PFLAG,0
                                           	GOTO	_00988_DS_
                                           ;;genSkipc:3291: created from rifx:013B5EFC
                                           ;	.line	1324; "MC32P7351.c"	key_scan_cnt = 0;
                                           	CLRR	_int_isr_key_scan_cnt_327680_240
                                           ;	.line	1325; "MC32P7351.c"	key_scan();
                                           	CALL	_key_scan
                                           _00988_DS_
                                           ;	.line	1329; "MC32P7351.c"	if (FLAG_IS_DEVICE_OPEN)
                                           	JBSET	_flag1,0
                                           	GOTO	_00990_DS_
                                           ;	.line	1331; "MC32P7351.c"	turn_dir_ms_cnt++;  //  turn_dir_scan_handle() 
                                           	INCR	_turn_dir_ms_cnt
                                           	JBCLR	PFLAG,2
                                           	INCR	(_turn_dir_ms_cnt + 1)
                                           	JBCLR	PFLAG,2
                                           	INCR	(_turn_dir_ms_cnt + 2)
                                           	JBCLR	PFLAG,2
                                           	INCR	(_turn_dir_ms_cnt + 3)
                                           ;	.line	1332; "MC32P7351.c"	shut_down_ms_cnt++; //  shutdown_scan_handle() 
                                           	INCR	_shut_down_ms_cnt
                                           	JBCLR	PFLAG,2
                                           	INCR	(_shut_down_ms_cnt + 1)
                                           	JBCLR	PFLAG,2
                                           	INCR	(_shut_down_ms_cnt + 2)
                                           	JBCLR	PFLAG,2
                                           	INCR	(_shut_down_ms_cnt + 3)
                                           _00990_DS_
                                           ;	.line	1339; "MC32P7351.c"	if (flag_maybe_low_battery)
                                           	JBSET	_flag3,2
                                           	GOTO	_00994_DS_
                                           ;	.line	1341; "MC32P7351.c"	low_bat_cnt++;
                                           	INCR	_int_isr_low_bat_cnt_327680_243
                                           	JBCLR	PFLAG,2
                                           	INCR	(_int_isr_low_bat_cnt_327680_243 + 1)
                                           ;;unsigned compare: left < lit(0x1388=5000), size=2
                                           ;	.line	1343; "MC32P7351.c"	if (low_bat_cnt >= 5000) // xx ms
                                           	MOVAI	0x13
                                           	RSUBAR	(_int_isr_low_bat_cnt_327680_243 + 1)
                                           	JBSET	PFLAG,2
                                           	GOTO	_01111_DS_
                                           	MOVAI	0x88
                                           	RSUBAR	_int_isr_low_bat_cnt_327680_243
                                           _01111_DS_
                                           	JBSET	PFLAG,0
                                           	GOTO	_00995_DS_
                                           ;;genSkipc:3291: created from rifx:013B5EFC
                                           ;	.line	1345; "MC32P7351.c"	low_bat_cnt = 0;
                                           	CLRR	_int_isr_low_bat_cnt_327680_243
                                           	CLRR	(_int_isr_low_bat_cnt_327680_243 + 1)
                                           ;	.line	1346; "MC32P7351.c"	flag_is_low_battery = 1;
                                           	BSET	_flag2,2
                                           	GOTO	_00995_DS_
                                           _00994_DS_
                                           ;	.line	1351; "MC32P7351.c"	low_bat_cnt = 0;
                                           	CLRR	_int_isr_low_bat_cnt_327680_243
                                           	CLRR	(_int_isr_low_bat_cnt_327680_243 + 1)
                                           _00995_DS_
                                           ;	.line	1370; "MC32P7351.c"	if (flag_tim_scan_maybe_shut_down)
                                           	JBSET	_flag3,3
                                           	GOTO	_00999_DS_
                                           ;	.line	1372; "MC32P7351.c"	shut_down_bat_cnt++;
                                           	INCR	_int_isr_shut_down_bat_cnt_327680_247
                                           	JBCLR	PFLAG,2
                                           	INCR	(_int_isr_shut_down_bat_cnt_327680_247 + 1)
                                           ;;unsigned compare: left < lit(0x3E8=1000), size=2
                                           ;	.line	1373; "MC32P7351.c"	if (shut_down_bat_cnt >= 1000) // xx ms
                                           	MOVAI	0x03
                                           	RSUBAR	(_int_isr_shut_down_bat_cnt_327680_247 + 1)
                                           	JBSET	PFLAG,2
                                           	GOTO	_01112_DS_
                                           	MOVAI	0xe8
                                           	RSUBAR	_int_isr_shut_down_bat_cnt_327680_247
                                           _01112_DS_
                                           	JBSET	PFLAG,0
                                           	GOTO	_01000_DS_
                                           ;;genSkipc:3291: created from rifx:013B5EFC
                                           ;	.line	1375; "MC32P7351.c"	shut_down_bat_cnt = 0;
                                           	CLRR	_int_isr_shut_down_bat_cnt_327680_247
                                           	CLRR	(_int_isr_shut_down_bat_cnt_327680_247 + 1)
                                           ;	.line	1376; "MC32P7351.c"	flag_is_needed_shut_down = 1;
                                           	BSET	_flag3,4
                                           	GOTO	_01000_DS_
                                           _00999_DS_
                                           ;	.line	1381; "MC32P7351.c"	shut_down_bat_cnt = 0;
                                           	CLRR	_int_isr_shut_down_bat_cnt_327680_247
                                           	CLRR	(_int_isr_shut_down_bat_cnt_327680_247 + 1)
                                           ;	.line	1382; "MC32P7351.c"	flag_is_needed_shut_down = 0;
                                           	BCLR	_flag3,4
                                           _01000_DS_
                                           ;	.line	1388; "MC32P7351.c"	if (FLAG_IS_IN_CHARGING)
                                           	JBSET	_flag1,2
                                           	GOTO	_01004_DS_
                                           ;	.line	1390; "MC32P7351.c"	update_current_time_cnt++;
                                           	INCR	_int_isr_update_current_time_cnt_327680_251
                                           	JBCLR	PFLAG,2
                                           	INCR	(_int_isr_update_current_time_cnt_327680_251 + 1)
                                           ;;unsigned compare: left < lit(0x1F4=500), size=2
                                           ;	.line	1391; "MC32P7351.c"	if (update_current_time_cnt >= 500)
                                           	MOVAI	0x01
                                           	RSUBAR	(_int_isr_update_current_time_cnt_327680_251 + 1)
                                           	JBSET	PFLAG,2
                                           	GOTO	_01113_DS_
                                           	MOVAI	0xf4
                                           	RSUBAR	_int_isr_update_current_time_cnt_327680_251
                                           _01113_DS_
                                           	JBSET	PFLAG,0
                                           	GOTO	_01007_DS_
                                           ;;genSkipc:3291: created from rifx:013B5EFC
                                           ;	.line	1393; "MC32P7351.c"	update_current_time_cnt = 0;
                                           	CLRR	_int_isr_update_current_time_cnt_327680_251
                                           	CLRR	(_int_isr_update_current_time_cnt_327680_251 + 1)
                                           ;	.line	1394; "MC32P7351.c"	flag_is_update_current = 1;
                                           	BSET	_flag3,5
                                           	GOTO	_01007_DS_
                                           _01004_DS_
                                           ;	.line	1399; "MC32P7351.c"	FLAG_IS_IN_CHARGING = 0;
                                           	BCLR	_flag1,2
                                           _01007_DS_
                                           ;	.line	1407; "MC32P7351.c"	if (FLAG_IS_IN_CHARGING && 0 == FLAG_BAT_IS_FULL)
                                           	JBSET	_flag1,2
                                           	GOTO	_01027_DS_
                                           	JBCLR	_flag1,5
                                           	GOTO	_01027_DS_
                                           ;	.line	1410; "MC32P7351.c"	if (pwm_counter < pwm_duty)
                                           	MOVAR	_pwm_duty
                                           	MOVRA	r0x1063
                                           	CLRR	r0x1064
                                           	MOVAI	0x00
                                           	RSUBAR	(_pwm_counter + 1)
                                           	JBSET	PFLAG,2
                                           	GOTO	_01114_DS_
                                           	MOVAR	r0x1063
                                           	RSUBAR	_pwm_counter
                                           _01114_DS_
                                           	JBCLR	PFLAG,0
                                           	GOTO	_01009_DS_
                                           ;;genSkipc:3291: created from rifx:013B5EFC
                                           ;	.line	1412; "MC32P7351.c"	led_state = 1; // LED
                                           	MOVAI	0x01
                                           	MOVRA	_led_state
                                           	GOTO	_01010_DS_
                                           _01009_DS_
                                           ;	.line	1416; "MC32P7351.c"	led_state = 0; // LED
                                           	CLRR	_led_state
                                           _01010_DS_
                                           ;	.line	1420; "MC32P7351.c"	pwm_counter++;
                                           	INCR	_pwm_counter
                                           	JBCLR	PFLAG,2
                                           	INCR	(_pwm_counter + 1)
                                           ;;unsigned compare: left < lit(0x64=100), size=2
                                           ;	.line	1421; "MC32P7351.c"	if (pwm_counter >= PWM_MAX_LEVEL)
                                           	MOVAI	0x00
                                           	RSUBAR	(_pwm_counter + 1)
                                           	JBSET	PFLAG,2
                                           	GOTO	_01115_DS_
                                           	MOVAI	0x64
                                           	RSUBAR	_pwm_counter
                                           _01115_DS_
                                           	JBSET	PFLAG,0
                                           	GOTO	_01012_DS_
                                           ;;genSkipc:3291: created from rifx:013B5EFC
                                           ;	.line	1423; "MC32P7351.c"	pwm_counter = 0;
                                           	CLRR	_pwm_counter
                                           	CLRR	(_pwm_counter + 1)
                                           _01012_DS_
                                           ;	.line	1427; "MC32P7351.c"	breath_counter++;
                                           	INCR	_breath_counter
                                           ;;unsigned compare: left < lit(0xC8=200), size=1
                                           ;	.line	1428; "MC32P7351.c"	if (breath_counter >= BREATH_PERIOD)
                                           	MOVAI	0xc8
                                           	RSUBAR	_breath_counter
                                           	JBSET	PFLAG,0
                                           	GOTO	_01022_DS_
                                           ;;genSkipc:3291: created from rifx:013B5EFC
                                           ;	.line	1430; "MC32P7351.c"	breath_counter = 0;
                                           	CLRR	_breath_counter
                                           ;	.line	1433; "MC32P7351.c"	if (breath_direction == 0)
                                           	MOVAI	0x00
                                           	ORAR	_breath_direction
                                           	JBSET	PFLAG,2
                                           	GOTO	_01019_DS_
                                           ;	.line	1436; "MC32P7351.c"	pwm_duty++;
                                           	INCR	_pwm_duty
                                           ;;unsigned compare: left < lit(0x64=100), size=1
                                           ;	.line	1437; "MC32P7351.c"	if (pwm_duty >= PWM_MAX_LEVEL)
                                           	MOVAI	0x64
                                           	RSUBAR	_pwm_duty
                                           	JBSET	PFLAG,0
                                           	GOTO	_01022_DS_
                                           ;;genSkipc:3291: created from rifx:013B5EFC
                                           ;	.line	1439; "MC32P7351.c"	pwm_duty = PWM_MAX_LEVEL;
                                           	MOVAI	0x64
                                           	MOVRA	_pwm_duty
                                           ;	.line	1440; "MC32P7351.c"	breath_direction = 1; // 
                                           	MOVAI	0x01
                                           	MOVRA	_breath_direction
                                           	GOTO	_01022_DS_
                                           _01019_DS_
                                           ;	.line	1446; "MC32P7351.c"	if (pwm_duty > 0)
                                           	MOVAI	0x00
                                           	ORAR	_pwm_duty
                                           	JBCLR	PFLAG,2
                                           	GOTO	_01016_DS_
                                           ;	.line	1448; "MC32P7351.c"	pwm_duty--;
                                           	DECR	_pwm_duty
                                           	GOTO	_01022_DS_
                                           _01016_DS_
                                           ;	.line	1452; "MC32P7351.c"	pwm_duty = 0;
                                           	CLRR	_pwm_duty
                                           ;	.line	1453; "MC32P7351.c"	breath_direction = 0; // 
                                           	CLRR	_breath_direction
                                           _01022_DS_
                                           ;	.line	1460; "MC32P7351.c"	if (led_state)
                                           	MOVAI	0x00
                                           	ORAR	_led_state
                                           	JBCLR	PFLAG,2
                                           	GOTO	_01024_DS_
                                           ;	.line	1462; "MC32P7351.c"	LED_CHARGING_PIN = LED_ON;
                                           	BCLR	_IOP0bits,4
                                           	GOTO	_01027_DS_
                                           _01024_DS_
                                           ;	.line	1466; "MC32P7351.c"	LED_CHARGING_PIN = LED_OFF;
                                           	BSET	_IOP0bits,4
                                           _01027_DS_
                                           ;	.line	1470; "MC32P7351.c"	T3IF = 0;
                                           	BCLR	_INTFbits,7
                                           _01030_DS_
                                           ;	.line	1478; "MC32P7351.c"	__endasm;
                                           	;
                                           	swapar	_statusbuf;
                                           	movra	_PFLAG;
                                           	swapr	_abuf;
                                           	swapar	_abuf;
                                           	
                                           END_OF_INTERRUPT
                                           ;	.line	1479; "MC32P7351.c"	}
                                           	RETIE	
                                           
                                           ;--------------------------------------------------------
                                           ; code
                                           ;--------------------------------------------------------
                                           code_MC32P7351	code
                                           ;***
                                           ;  pBlock Stats: dbName = M
                                           ;***
                                           ;entry:  _main	;Function start
                                           ; 2 exit points
                                           ;has an exit
                                           ;functions called:
                                           ;   _Sys_Init
                                           ;   _delay_ms
                                           ;   _adc_sel_pin
                                           ;   _adc_get_val
                                           ;   _key_event_handle
                                           ;   _adc_scan_handle
                                           ;   _turn_dir_scan_handle
                                           ;   _shutdown_scan_handle
                                           ;   __mullong
                                           ;   __divulong
                                           ;   __mullong
                                           ;   __mullong
                                           ;   __divulong
                                           ;   __divulong
                                           ;   _delay_ms
                                           ;   _delay_ms
                                           ;   _key_event_handle
                                           ;   _delay_ms
                                           ;   _key_event_handle
                                           ;   _delay_ms
                                           ;   _low_power_scan_handle
                                           ;   _Sys_Init
                                           ;   _delay_ms
                                           ;   _adc_sel_pin
                                           ;   _adc_get_val
                                           ;   _key_event_handle
                                           ;   _adc_scan_handle
                                           ;   _turn_dir_scan_handle
                                           ;   _shutdown_scan_handle
                                           ;   __mullong
                                           ;   __divulong
                                           ;   __mullong
                                           ;   __mullong
                                           ;   __divulong
                                           ;   __divulong
                                           ;   _delay_ms
                                           ;   _delay_ms
                                           ;   _key_event_handle
                                           ;   _delay_ms
                                           ;   _key_event_handle
                                           ;   _delay_ms
                                           ;   _low_power_scan_handle
                                           ;17 compiler assigned registers:
                                           ;   STK00
                                           ;   r0x1059
                                           ;   r0x105A
                                           ;   STK06
                                           ;   STK05
                                           ;   STK04
                                           ;   STK03
                                           ;   STK02
                                           ;   STK01
                                           ;   r0x105B
                                           ;   r0x105C
                                           ;   r0x105D
                                           ;   r0x105E
                                           ;   r0x105F
                                           ;   r0x1060
                                           ;   r0x1061
                                           ;   r0x1062
                                           ;; Starting pCode block
                                           _main	;Function start
                                           ; 2 exit points
                                           ;	.line	983; "MC32P7351.c"	Sys_Init();
                                           	CALL	_Sys_Init
                                           ;	.line	985; "MC32P7351.c"	delay_ms(1); // 
                                           	MOVAI	0x01
                                           	MOVRA	STK00
                                           	MOVAI	0x00
                                           	CALL	_delay_ms
                                           ;	.line	990; "MC32P7351.c"	PWM2EC = 1; // pwm
                                           	BSET	_T2CRbits,6
                                           ;	.line	991; "MC32P7351.c"	T2DATA = 100;
                                           	MOVAI	0x64
                                           	MOVRA	_T2DATA
                                           ;	.line	992; "MC32P7351.c"	adc_sel_pin(ADC_PIN_P02_AN1); // 
                                           	MOVAI	0x02
                                           	CALL	_adc_sel_pin
                                           ;	.line	993; "MC32P7351.c"	for (i = 0; i < 10; i++)      // 55ms4.8ms
                                           	CLRR	_i
                                           ;;unsigned compare: left < lit(0xA=10), size=1
                                           _00880_DS_
                                           	MOVAI	0x0a
                                           	RSUBAR	_i
                                           	JBCLR	PFLAG,0
                                           	GOTO	_00831_DS_
                                           ;;genSkipc:3291: created from rifx:013B5EFC
                                           ;	.line	995; "MC32P7351.c"	adc_val = adc_get_val();
                                           	CALL	_adc_get_val
                                           	MOVRA	(_adc_val + 1)
                                           	MOVAR	STK00
                                           	MOVRA	_adc_val
                                           ;;unsigned compare: left < lit(0xF52=3922), size=2
                                           ;	.line	996; "MC32P7351.c"	if (adc_val >= ADCDETECT_BAT_FULL + ADCDETECT_BAT_NULL_EX)
                                           	MOVAI	0x0f
                                           	RSUBAR	(_adc_val + 1)
                                           	JBSET	PFLAG,2
                                           	GOTO	_00974_DS_
                                           	MOVAI	0x52
                                           	RSUBAR	_adc_val
                                           _00974_DS_
                                           	JBSET	PFLAG,0
                                           	GOTO	_00881_DS_
                                           ;;genSkipc:3291: created from rifx:013B5EFC
                                           ;	.line	998; "MC32P7351.c"	flag_bat_is_empty = 1;
                                           	MOVAI	0x01
                                           	MOVRA	_flag_bat_is_empty
                                           ;	.line	999; "MC32P7351.c"	FLAG_DURING_CHARGING_BAT_IS_NULL = 1; // 
                                           	BSET	_flag1,7
                                           _00881_DS_
                                           ;	.line	993; "MC32P7351.c"	for (i = 0; i < 10; i++)      // 55ms4.8ms
                                           	INCR	_i
                                           	GOTO	_00880_DS_
                                           _00831_DS_
                                           ;	.line	1002; "MC32P7351.c"	PWM2EC = 0; // pwm
                                           	BCLR	_T2CRbits,6
                                           ;	.line	1003; "MC32P7351.c"	T2DATA = 0;
                                           	CLRR	_T2DATA
                                           _00877_DS_
                                           ;	.line	1012; "MC32P7351.c"	key_event_handle(); // 
                                           	CALL	_key_event_handle
                                           ;	.line	1013; "MC32P7351.c"	adc_scan_handle();  // (89ms)
                                           	CALL	_adc_scan_handle
                                           ;	.line	1015; "MC32P7351.c"	turn_dir_scan_handle();
                                           	CALL	_turn_dir_scan_handle
                                           ;	.line	1016; "MC32P7351.c"	shutdown_scan_handle(); // 
                                           	CALL	_shutdown_scan_handle
                                           ;	.line	1020; "MC32P7351.c"	if (FLAG_IS_IN_CHARGING)
                                           	JBSET	_flag1,2
                                           	GOTO	_00861_DS_
                                           ;	.line	1022; "MC32P7351.c"	last_pwm_val = T2DATA;      // PWM
                                           	MOVAR	_T2DATA
                                           	MOVRA	_last_pwm_val
                                           	CLRR	(_last_pwm_val + 1)
                                           ;	.line	1023; "MC32P7351.c"	max_pwm_val = (T2LOAD + 1); // PWM
                                           	MOVAR	_T2LOAD
                                           	MOVRA	r0x1059
                                           	CLRR	r0x105A
                                           	MOVAI	0x01
                                           	ADDAR	r0x1059
                                           	MOVRA	_max_pwm_val
                                           	CLRR	(_max_pwm_val + 1)
                                           	RLR	(_max_pwm_val + 1)
                                           	MOVAI	0x00
                                           	ADDRA	(_max_pwm_val + 1)
                                           	CLRR	(_max_pwm_val + 2)
                                           	CLRR	(_max_pwm_val + 3)
                                           ;;swapping arguments (AOP_TYPEs 1/3)
                                           ;;unsigned compare: left >= lit(0xB16=2838), size=4
                                           ;	.line	1048; "MC32P7351.c"	if (adc_bat_val <= 2837) //  6.5V
                                           	MOVAI	0x00
                                           	RSUBAR	(_adc_bat_val + 3)
                                           	JBSET	PFLAG,2
                                           	GOTO	_00975_DS_
                                           	MOVAI	0x00
                                           	RSUBAR	(_adc_bat_val + 2)
                                           	JBSET	PFLAG,2
                                           	GOTO	_00975_DS_
                                           	MOVAI	0x0b
                                           	RSUBAR	(_adc_bat_val + 1)
                                           	JBSET	PFLAG,2
                                           	GOTO	_00975_DS_
                                           	MOVAI	0x16
                                           	RSUBAR	_adc_bat_val
                                           _00975_DS_
                                           	JBCLR	PFLAG,0
                                           	GOTO	_00842_DS_
                                           ;;genSkipc:3291: created from rifx:013B5EFC
                                           ;	.line	1050; "MC32P7351.c"	tmp_bat_val = (adc_bat_val + 37);
                                           	MOVAR	_adc_bat_val
                                           	MOVRA	r0x1059
                                           	MOVAR	(_adc_bat_val + 1)
                                           	MOVRA	r0x105A
                                           	MOVAI	0x25
                                           	ADDAR	r0x1059
                                           	MOVRA	_tmp_bat_val
                                           	CLRR	(_tmp_bat_val + 1)
                                           	RLR	(_tmp_bat_val + 1)
                                           	MOVAR	r0x105A
                                           	ADDRA	(_tmp_bat_val + 1)
                                           	GOTO	_00843_DS_
                                           ;;swapping arguments (AOP_TYPEs 1/3)
                                           ;;unsigned compare: left >= lit(0xBF1=3057), size=4
                                           _00842_DS_
                                           ;	.line	1052; "MC32P7351.c"	else if (adc_bat_val <= 3056) //  7.0V
                                           	MOVAI	0x00
                                           	RSUBAR	(_adc_bat_val + 3)
                                           	JBSET	PFLAG,2
                                           	GOTO	_00976_DS_
                                           	MOVAI	0x00
                                           	RSUBAR	(_adc_bat_val + 2)
                                           	JBSET	PFLAG,2
                                           	GOTO	_00976_DS_
                                           	MOVAI	0x0b
                                           	RSUBAR	(_adc_bat_val + 1)
                                           	JBSET	PFLAG,2
                                           	GOTO	_00976_DS_
                                           	MOVAI	0xf1
                                           	RSUBAR	_adc_bat_val
                                           _00976_DS_
                                           	JBCLR	PFLAG,0
                                           	GOTO	_00839_DS_
                                           ;;genSkipc:3291: created from rifx:013B5EFC
                                           ;	.line	1055; "MC32P7351.c"	tmp_bat_val = (adc_bat_val + 27);
                                           	MOVAR	_adc_bat_val
                                           	MOVRA	r0x1059
                                           	MOVAR	(_adc_bat_val + 1)
                                           	MOVRA	r0x105A
                                           	MOVAI	0x1b
                                           	ADDAR	r0x1059
                                           	MOVRA	_tmp_bat_val
                                           	CLRR	(_tmp_bat_val + 1)
                                           	RLR	(_tmp_bat_val + 1)
                                           	MOVAR	r0x105A
                                           	ADDRA	(_tmp_bat_val + 1)
                                           	GOTO	_00843_DS_
                                           ;;swapping arguments (AOP_TYPEs 1/3)
                                           ;;unsigned compare: left >= lit(0xC75=3189), size=4
                                           _00839_DS_
                                           ;	.line	1057; "MC32P7351.c"	else if (adc_bat_val <= 3188) //  7.3V
                                           	MOVAI	0x00
                                           	RSUBAR	(_adc_bat_val + 3)
                                           	JBSET	PFLAG,2
                                           	GOTO	_00977_DS_
                                           	MOVAI	0x00
                                           	RSUBAR	(_adc_bat_val + 2)
                                           	JBSET	PFLAG,2
                                           	GOTO	_00977_DS_
                                           	MOVAI	0x0c
                                           	RSUBAR	(_adc_bat_val + 1)
                                           	JBSET	PFLAG,2
                                           	GOTO	_00977_DS_
                                           	MOVAI	0x75
                                           	RSUBAR	_adc_bat_val
                                           _00977_DS_
                                           	JBCLR	PFLAG,0
                                           	GOTO	_00836_DS_
                                           ;;genSkipc:3291: created from rifx:013B5EFC
                                           ;	.line	1060; "MC32P7351.c"	tmp_bat_val = (adc_bat_val + 16);
                                           	MOVAR	_adc_bat_val
                                           	MOVRA	r0x1059
                                           	MOVAR	(_adc_bat_val + 1)
                                           	MOVRA	r0x105A
                                           	MOVAI	0x10
                                           	ADDAR	r0x1059
                                           	MOVRA	_tmp_bat_val
                                           	CLRR	(_tmp_bat_val + 1)
                                           	RLR	(_tmp_bat_val + 1)
                                           	MOVAR	r0x105A
                                           	ADDRA	(_tmp_bat_val + 1)
                                           	GOTO	_00843_DS_
                                           ;;swapping arguments (AOP_TYPEs 1/3)
                                           ;;unsigned compare: left >= lit(0xCFF=3327), size=4
                                           _00836_DS_
                                           ;	.line	1062; "MC32P7351.c"	else if (adc_bat_val <= 3326) //  7.62V
                                           	MOVAI	0x00
                                           	RSUBAR	(_adc_bat_val + 3)
                                           	JBSET	PFLAG,2
                                           	GOTO	_00978_DS_
                                           	MOVAI	0x00
                                           	RSUBAR	(_adc_bat_val + 2)
                                           	JBSET	PFLAG,2
                                           	GOTO	_00978_DS_
                                           	MOVAI	0x0c
                                           	RSUBAR	(_adc_bat_val + 1)
                                           	JBSET	PFLAG,2
                                           	GOTO	_00978_DS_
                                           	MOVAI	0xff
                                           	RSUBAR	_adc_bat_val
                                           _00978_DS_
                                           	JBCLR	PFLAG,0
                                           	GOTO	_00833_DS_
                                           ;;genSkipc:3291: created from rifx:013B5EFC
                                           ;	.line	1065; "MC32P7351.c"	tmp_bat_val = (adc_bat_val + 0);
                                           	MOVAR	_adc_bat_val
                                           	MOVRA	_tmp_bat_val
                                           	MOVAR	(_adc_bat_val + 1)
                                           	MOVRA	(_tmp_bat_val + 1)
                                           	GOTO	_00843_DS_
                                           _00833_DS_
                                           ;	.line	1078; "MC32P7351.c"	tmp_bat_val = (u32)adc_bat_val - ((u32)adc_bat_val * 157 / 1000 - 522);
                                           	MOVAR	_adc_bat_val
                                           	MOVRA	STK06
                                           	MOVAR	(_adc_bat_val + 1)
                                           	MOVRA	STK05
                                           	MOVAR	(_adc_bat_val + 2)
                                           	MOVRA	STK04
                                           	MOVAR	(_adc_bat_val + 3)
                                           	MOVRA	STK03
                                           	MOVAI	0x9d
                                           	MOVRA	STK02
                                           	MOVAI	0x00
                                           	MOVRA	STK01
                                           	MOVAI	0x00
                                           	MOVRA	STK00
                                           	MOVAI	0x00
                                           	CALL	__mullong
                                           	MOVRA	r0x105B
                                           	MOVAR	STK00
                                           	MOVRA	r0x105C
                                           	MOVAR	STK01
                                           	MOVRA	r0x105A
                                           	MOVAR	STK02
                                           	MOVRA	r0x1059
                                           	MOVAI	0xe8
                                           	MOVRA	STK06
                                           	MOVAI	0x03
                                           	MOVRA	STK05
                                           	MOVAI	0x00
                                           	MOVRA	STK04
                                           	MOVAI	0x00
                                           	MOVRA	STK03
                                           	MOVAR	r0x1059
                                           	MOVRA	STK02
                                           	MOVAR	r0x105A
                                           	MOVRA	STK01
                                           	MOVAR	r0x105C
                                           	MOVRA	STK00
                                           	MOVAR	r0x105B
                                           	CALL	__divulong
                                           	MOVRA	r0x105B
                                           	MOVAR	STK00
                                           	MOVRA	r0x105C
                                           	MOVAR	STK01
                                           	MOVRA	r0x105E
                                           	MOVRA	r0x105A
                                           	MOVAR	STK02
                                           	MOVRA	r0x105D
                                           	MOVRA	r0x1059
                                           ;;124	MOVAR	r0x1059
                                           ;;125	MOVAR	r0x105A
                                           	MOVAI	0xf6
                                           	ADDAR	r0x105D
                                           	MOVRA	r0x1059
                                           	MOVAI	0xfd
                                           	MOVRA	r0x105A
                                           	MOVAR	r0x105E
                                           	JBCLR	PFLAG,0
                                           	JZAR	r0x105E
                                           	ADDRA	r0x105A
                                           	MOVAR	_adc_bat_val
                                           	MOVRA	r0x105D
                                           	MOVAR	(_adc_bat_val + 1)
                                           	MOVRA	r0x105E
                                           	MOVAR	r0x1059
                                           	RSUBAR	r0x105D
                                           	MOVRA	_tmp_bat_val
                                           	MOVAR	r0x105A
                                           	JBSET	PFLAG,0
                                           	INCAR	r0x105A
                                           	RSUBAR	r0x105E
                                           	MOVRA	(_tmp_bat_val + 1)
                                           _00843_DS_
                                           ;	.line	1102; "MC32P7351.c"	tmp_bat_val += 60; // 1.1
                                           	MOVAI	0x3c
                                           	ADDRA	_tmp_bat_val
                                           	JBCLR	PFLAG,0
                                           	INCR	(_tmp_bat_val + 1)
                                           ;	.line	1158; "MC32P7351.c"	tmp_val = max_pwm_val - (adc_charging_val * max_pwm_val * 94 / 147) / tmp_bat_val;
                                           	MOVAR	_adc_charging_val
                                           	MOVRA	r0x1059
                                           	MOVAR	(_adc_charging_val + 1)
                                           	MOVRA	r0x105A
                                           	CLRR	r0x105D
                                           	CLRR	r0x105E
                                           	MOVAR	_max_pwm_val
                                           	MOVRA	STK06
                                           	MOVAR	(_max_pwm_val + 1)
                                           	MOVRA	STK05
                                           	MOVAR	(_max_pwm_val + 2)
                                           	MOVRA	STK04
                                           	MOVAR	(_max_pwm_val + 3)
                                           	MOVRA	STK03
                                           	MOVAR	r0x1059
                                           	MOVRA	STK02
                                           	MOVAR	r0x105A
                                           	MOVRA	STK01
                                           	MOVAI	0x00
                                           	MOVRA	STK00
                                           	MOVAI	0x00
                                           	CALL	__mullong
                                           	MOVRA	r0x105E
                                           	MOVAR	STK00
                                           	MOVRA	r0x105D
                                           	MOVAR	STK01
                                           	MOVRA	r0x105A
                                           	MOVAR	STK02
                                           	MOVRA	r0x1059
                                           	MOVAR	r0x1059
                                           	MOVRA	STK06
                                           	MOVAR	r0x105A
                                           	MOVRA	STK05
                                           	MOVAR	r0x105D
                                           	MOVRA	STK04
                                           	MOVAR	r0x105E
                                           	MOVRA	STK03
                                           	MOVAI	0x5e
                                           	MOVRA	STK02
                                           	MOVAI	0x00
                                           	MOVRA	STK01
                                           	MOVAI	0x00
                                           	MOVRA	STK00
                                           	MOVAI	0x00
                                           	CALL	__mullong
                                           	MOVRA	r0x105E
                                           	MOVAR	STK00
                                           	MOVRA	r0x105D
                                           	MOVAR	STK01
                                           	MOVRA	r0x105A
                                           	MOVAR	STK02
                                           	MOVRA	r0x1059
                                           	MOVAI	0x93
                                           	MOVRA	STK06
                                           	MOVAI	0x00
                                           	MOVRA	STK05
                                           	MOVAI	0x00
                                           	MOVRA	STK04
                                           	MOVAI	0x00
                                           	MOVRA	STK03
                                           	MOVAR	r0x1059
                                           	MOVRA	STK02
                                           	MOVAR	r0x105A
                                           	MOVRA	STK01
                                           	MOVAR	r0x105D
                                           	MOVRA	STK00
                                           	MOVAR	r0x105E
                                           	CALL	__divulong
                                           	MOVRA	r0x105E
                                           	MOVAR	STK00
                                           	MOVRA	r0x105D
                                           	MOVAR	STK01
                                           	MOVRA	r0x105A
                                           	MOVAR	STK02
                                           	MOVRA	r0x1059
                                           	MOVAR	_tmp_bat_val
                                           	MOVRA	r0x105F
                                           	MOVAR	(_tmp_bat_val + 1)
                                           	MOVRA	r0x1060
                                           	CLRR	r0x1061
                                           	CLRR	r0x1062
                                           	MOVAR	r0x105F
                                           	MOVRA	STK06
                                           	MOVAR	r0x1060
                                           	MOVRA	STK05
                                           	MOVAI	0x00
                                           	MOVRA	STK04
                                           	MOVAI	0x00
                                           	MOVRA	STK03
                                           	MOVAR	r0x1059
                                           	MOVRA	STK02
                                           	MOVAR	r0x105A
                                           	MOVRA	STK01
                                           	MOVAR	r0x105D
                                           	MOVRA	STK00
                                           	MOVAR	r0x105E
                                           	CALL	__divulong
                                           	MOVRA	r0x105E
                                           	MOVAR	STK00
                                           	MOVRA	r0x105D
                                           	MOVAR	STK01
                                           	MOVRA	r0x1062
                                           	MOVRA	r0x105A
                                           	MOVAR	STK02
                                           	MOVRA	r0x1061
                                           	MOVRA	r0x1059
                                           	MOVAR	_max_pwm_val
                                           	MOVRA	r0x105F
                                           	MOVAR	(_max_pwm_val + 1)
                                           	MOVRA	r0x1060
                                           ;;121	MOVAR	r0x1059
                                           ;;122	MOVAR	r0x105A
                                           	MOVAR	r0x1061
                                           	RSUBAR	r0x105F
                                           	MOVRA	_tmp_val
                                           	MOVAR	r0x1062
                                           	JBSET	PFLAG,0
                                           	INCAR	r0x1062
                                           	RSUBAR	r0x1060
                                           	MOVRA	(_tmp_val + 1)
                                           ;	.line	1160; "MC32P7351.c"	if (tmp_val >= max_pwm_val)
                                           	MOVAR	_tmp_val
                                           	MOVRA	r0x1059
                                           	MOVAR	(_tmp_val + 1)
                                           	MOVRA	r0x105A
                                           	CLRR	r0x105D
                                           	CLRR	r0x105E
                                           	MOVAR	(_max_pwm_val + 3)
                                           	RSUBAR	r0x105E
                                           	JBSET	PFLAG,2
                                           	GOTO	_00979_DS_
                                           	MOVAR	(_max_pwm_val + 2)
                                           	RSUBAR	r0x105D
                                           	JBSET	PFLAG,2
                                           	GOTO	_00979_DS_
                                           	MOVAR	(_max_pwm_val + 1)
                                           	RSUBAR	r0x105A
                                           	JBSET	PFLAG,2
                                           	GOTO	_00979_DS_
                                           	MOVAR	_max_pwm_val
                                           	RSUBAR	r0x1059
                                           _00979_DS_
                                           	JBSET	PFLAG,0
                                           	GOTO	_00845_DS_
                                           ;;genSkipc:3291: created from rifx:013B5EFC
                                           ;	.line	1163; "MC32P7351.c"	tmp_val = 0;
                                           	CLRR	_tmp_val
                                           	CLRR	(_tmp_val + 1)
                                           _00845_DS_
                                           ;	.line	1167; "MC32P7351.c"	tmp_val_cnt++;
                                           	INCR	_tmp_val_cnt
                                           ;	.line	1168; "MC32P7351.c"	tmp_val_cnt &= 0x07;
                                           	MOVAI	0x07
                                           	ANDRA	_tmp_val_cnt
                                           ;	.line	1169; "MC32P7351.c"	tmp_val_l[tmp_val_cnt] = (tmp_val_l[tmp_val_cnt] + tmp_val) >> 1;
                                           	BCLR	PFLAG,0
                                           	RLAR	_tmp_val_cnt
                                           	MOVRA	r0x1059
                                           	MOVAR	r0x1059
                                           	ADDAI	(_tmp_val_l + 0)
                                           	MOVRA	r0x1059
                                           	MOVAI	high (_tmp_val_l + 0)
                                           	JBCLR	PFLAG,0
                                           	ADDAI	0x01
                                           	MOVRA	r0x105A
                                           	BCLR	PFLAG,0
                                           	RLAR	_tmp_val_cnt
                                           	MOVRA	r0x105D
                                           	MOVAR	r0x105D
                                           	ADDAI	(_tmp_val_l + 0)
                                           	MOVRA	r0x105D
                                           	MOVAI	high (_tmp_val_l + 0)
                                           	JBCLR	PFLAG,0
                                           	ADDAI	0x01
                                           	MOVRA	r0x105E
                                           	MOVAR	r0x105D
                                           	MOVRA	FSR0
                                           	MOVAR	r0x105E
                                           	MOVRA	FSR1
                                           	MOVAR	INDF2
                                           	MOVRA	r0x105F
                                           	INCR	FSR0
                                           	JBCLR	PFLAG,2
                                           	INCR	FSR1
                                           	MOVAR	INDF2
                                           	MOVRA	r0x105E
                                           	MOVRA	r0x1060
                                           	MOVAR	_tmp_val
                                           	ADDAR	r0x105F
                                           	MOVRA	r0x105D
                                           ;;123	MOVAR	r0x1060
                                           	MOVAR	(_tmp_val + 1)
                                           	JBCLR	PFLAG,0
                                           	JZAR	(_tmp_val + 1)
                                           	ADDRA	r0x105E
                                           ;;shiftRight_Left2ResultLit:5339: shCount=1, size=2, sign=0, same=0, offr=0
                                           	BCLR	PFLAG,0
                                           	RRAR	r0x105E
                                           	MOVRA	r0x1060
                                           	RRAR	r0x105D
                                           	MOVRA	r0x105F
                                           	MOVAR	r0x1059
                                           	MOVRA	FSR0
                                           	MOVAR	r0x105A
                                           	MOVRA	FSR1
                                           	MOVAR	r0x105F
                                           	MOVRA	INDF2
                                           	INCR	FSR0
                                           	JBCLR	PFLAG,2
                                           	INCR	FSR1
                                           	MOVAR	r0x1060
                                           	MOVRA	INDF2
                                           ;	.line	1170; "MC32P7351.c"	tmp_val = 0;
                                           	CLRR	_tmp_val
                                           	CLRR	(_tmp_val + 1)
                                           ;	.line	1171; "MC32P7351.c"	for (i = 0; i < 8; i++)
                                           	CLRR	_i
                                           ;;unsigned compare: left < lit(0x8=8), size=1
                                           _00883_DS_
                                           	MOVAI	0x08
                                           	RSUBAR	_i
                                           	JBCLR	PFLAG,0
                                           	GOTO	_00846_DS_
                                           ;;genSkipc:3291: created from rifx:013B5EFC
                                           ;	.line	1173; "MC32P7351.c"	tmp_val += tmp_val_l[i];
                                           	BCLR	PFLAG,0
                                           	RLAR	_i
                                           	MOVRA	r0x1059
                                           	MOVAR	r0x1059
                                           	ADDAI	(_tmp_val_l + 0)
                                           	MOVRA	r0x1059
                                           	MOVAI	high (_tmp_val_l + 0)
                                           	JBCLR	PFLAG,0
                                           	ADDAI	0x01
                                           	MOVRA	r0x105A
                                           	MOVAR	r0x1059
                                           	MOVRA	FSR0
                                           	MOVAR	r0x105A
                                           	MOVRA	FSR1
                                           	MOVAR	INDF2
                                           	MOVRA	r0x105D
                                           	INCR	FSR0
                                           	JBCLR	PFLAG,2
                                           	INCR	FSR1
                                           	MOVAR	INDF2
                                           	MOVRA	r0x105E
                                           	MOVAR	r0x105D
                                           	ADDRA	_tmp_val
                                           	MOVAR	r0x105E
                                           	JBCLR	PFLAG,0
                                           	JZAR	r0x105E
                                           	ADDRA	(_tmp_val + 1)
                                           ;	.line	1171; "MC32P7351.c"	for (i = 0; i < 8; i++)
                                           	INCR	_i
                                           	GOTO	_00883_DS_
                                           ;;shiftRight_Left2ResultLit:5339: shCount=1, size=2, sign=0, same=1, offr=0
                                           _00846_DS_
                                           ;	.line	1175; "MC32P7351.c"	tmp_val >>= 3;
                                           	BCLR	PFLAG,0
                                           	RRR	(_tmp_val + 1)
                                           	RRR	_tmp_val
                                           ;;shiftRight_Left2ResultLit:5339: shCount=1, size=2, sign=0, same=1, offr=0
                                           	BCLR	PFLAG,0
                                           	RRR	(_tmp_val + 1)
                                           	RRR	_tmp_val
                                           ;;shiftRight_Left2ResultLit:5339: shCount=1, size=2, sign=0, same=1, offr=0
                                           	BCLR	PFLAG,0
                                           	RRR	(_tmp_val + 1)
                                           	RRR	_tmp_val
                                           ;	.line	1177; "MC32P7351.c"	if (tmp_val > last_pwm_val)
                                           	MOVAR	(_tmp_val + 1)
                                           	RSUBAR	(_last_pwm_val + 1)
                                           	JBSET	PFLAG,2
                                           	GOTO	_00981_DS_
                                           	MOVAR	_tmp_val
                                           	RSUBAR	_last_pwm_val
                                           _00981_DS_
                                           	JBCLR	PFLAG,0
                                           	GOTO	_00850_DS_
                                           ;;genSkipc:3291: created from rifx:013B5EFC
                                           ;	.line	1179; "MC32P7351.c"	last_pwm_val = last_pwm_val + 1;
                                           	INCR	_last_pwm_val
                                           	JBCLR	PFLAG,2
                                           	INCR	(_last_pwm_val + 1)
                                           	GOTO	_00851_DS_
                                           _00850_DS_
                                           ;	.line	1181; "MC32P7351.c"	else if (tmp_val < last_pwm_val)
                                           	MOVAR	(_last_pwm_val + 1)
                                           	RSUBAR	(_tmp_val + 1)
                                           	JBSET	PFLAG,2
                                           	GOTO	_00982_DS_
                                           	MOVAR	_last_pwm_val
                                           	RSUBAR	_tmp_val
                                           _00982_DS_
                                           	JBCLR	PFLAG,0
                                           	GOTO	_00851_DS_
                                           ;;genSkipc:3291: created from rifx:013B5EFC
                                           ;	.line	1183; "MC32P7351.c"	last_pwm_val = last_pwm_val - 1;
                                           	MOVAI	0xff
                                           	ADDRA	_last_pwm_val
                                           	JBSET	PFLAG,0
                                           	DECR	(_last_pwm_val + 1)
                                           _00851_DS_
                                           ;	.line	1241; "MC32P7351.c"	T2DATA = last_pwm_val;
                                           	MOVAR	_last_pwm_val
                                           	MOVRA	_T2DATA
                                           	GOTO	_00862_DS_
                                           _00861_DS_
                                           ;	.line	1245; "MC32P7351.c"	if (FLAG_DURING_CHARGING_BAT_IS_NULL)
                                           	JBSET	_flag1,7
                                           	GOTO	_00862_DS_
                                           ;	.line	1248; "MC32P7351.c"	LED_FULL_CHARGE_ON();
                                           	BCLR	_IOP0bits,3
                                           ;	.line	1249; "MC32P7351.c"	delay_ms(200);
                                           	MOVAI	0xc8
                                           	MOVRA	STK00
                                           	MOVAI	0x00
                                           	CALL	_delay_ms
                                           ;	.line	1250; "MC32P7351.c"	LED_FULL_CHARGE_OFF();
                                           	BSET	_IOP0bits,3
                                           ;	.line	1251; "MC32P7351.c"	delay_ms(200);
                                           	MOVAI	0xc8
                                           	MOVRA	STK00
                                           	MOVAI	0x00
                                           	CALL	_delay_ms
                                           _00862_DS_
                                           ;	.line	1255; "MC32P7351.c"	if (flag_is_low_battery)
                                           	JBSET	_flag2,2
                                           	GOTO	_00875_DS_
                                           ;	.line	1257; "MC32P7351.c"	LED_WORKING_OFF();
                                           	BSET	_IOP1bits,4
                                           ;	.line	1260; "MC32P7351.c"	LED_CHARGING_ON();
                                           	BCLR	_IOP0bits,4
                                           ;	.line	1262; "MC32P7351.c"	for (i = 0; i < 20; i++)
                                           	CLRR	_i
                                           ;;unsigned compare: left < lit(0x14=20), size=1
                                           _00886_DS_
                                           	MOVAI	0x14
                                           	RSUBAR	_i
                                           	JBCLR	PFLAG,0
                                           	GOTO	_00870_DS_
                                           ;;genSkipc:3291: created from rifx:013B5EFC
                                           ;	.line	1265; "MC32P7351.c"	key_event_handle();
                                           	CALL	_key_event_handle
                                           ;	.line	1266; "MC32P7351.c"	delay_ms(10);
                                           	MOVAI	0x0a
                                           	MOVRA	STK00
                                           	MOVAI	0x00
                                           	CALL	_delay_ms
                                           ;	.line	1262; "MC32P7351.c"	for (i = 0; i < 20; i++)
                                           	INCR	_i
                                           	GOTO	_00886_DS_
                                           _00870_DS_
                                           ;	.line	1269; "MC32P7351.c"	LED_CHARGING_OFF();
                                           	BSET	_IOP0bits,4
                                           ;	.line	1271; "MC32P7351.c"	for (i = 0; i < 20; i++)
                                           	CLRR	_i
                                           ;;unsigned compare: left < lit(0x14=20), size=1
                                           _00889_DS_
                                           	MOVAI	0x14
                                           	RSUBAR	_i
                                           	JBCLR	PFLAG,0
                                           	GOTO	_00875_DS_
                                           ;;genSkipc:3291: created from rifx:013B5EFC
                                           ;	.line	1274; "MC32P7351.c"	key_event_handle();
                                           	CALL	_key_event_handle
                                           ;	.line	1275; "MC32P7351.c"	delay_ms(10);
                                           	MOVAI	0x0a
                                           	MOVRA	STK00
                                           	MOVAI	0x00
                                           	CALL	_delay_ms
                                           ;	.line	1271; "MC32P7351.c"	for (i = 0; i < 20; i++)
                                           	INCR	_i
                                           	GOTO	_00889_DS_
                                           _00875_DS_
                                           ;	.line	1279; "MC32P7351.c"	low_power_scan_handle();
                                           	CALL	_low_power_scan_handle
                                           ;	.line	1286; "MC32P7351.c"	__endasm;
                                           	;
                                           	CLRWDT;
                                           	
                                           	GOTO	_00877_DS_
                                           ;	.line	1289; "MC32P7351.c"	}
                                           	RETURN	
                                           ; exit point of _main
                                           
                                           ;***
                                           ;  pBlock Stats: dbName = C
                                           ;***
                                           ;entry:  _low_power_scan_handle	;Function start
                                           ; 2 exit points
                                           ;has an exit
                                           ;functions called:
                                           ;   _CLR_RAM
                                           ;   _adc_config
                                           ;   _adc_sel_pin
                                           ;   _adc_get_val_once
                                           ;   _Sys_Init
                                           ;   _delay_ms
                                           ;   _CLR_RAM
                                           ;   _adc_config
                                           ;   _adc_sel_pin
                                           ;   _adc_get_val_once
                                           ;   _Sys_Init
                                           ;   _delay_ms
                                           ;1 compiler assigned register :
                                           ;   STK00
                                           ;; Starting pCode block
                                           _low_power_scan_handle	;Function start
                                           ; 2 exit points
                                           ;	.line	879; "MC32P7351.c"	if (FLAG_DURING_CHARGING_BAT_IS_NULL || // 
                                           	JBCLR	_flag1,7
                                           	GOTO	_00784_DS_
                                           ;	.line	880; "MC32P7351.c"	FLAG_IS_DEVICE_OPEN ||              // 
                                           	JBCLR	_flag1,0
                                           	GOTO	_00784_DS_
                                           ;	.line	881; "MC32P7351.c"	FLAG_IS_IN_CHARGING ||              // PWM
                                           	JBCLR	_flag1,2
                                           	GOTO	_00784_DS_
                                           ;	.line	882; "MC32P7351.c"	(0 == P01D))                        //  / ()
                                           	JBCLR	_IOP0bits,1
                                           	GOTO	_00789_DS_
                                           _00784_DS_
                                           ;	.line	884; "MC32P7351.c"	return;
                                           	GOTO	_00802_DS_
                                           _00789_DS_
                                           ;	.line	902; "MC32P7351.c"	GIE = 0;  // 
                                           	BCLR	_MCRbits,7
                                           ;	.line	903; "MC32P7351.c"	T0EN = 0; // PWM
                                           	BCLR	_T0CRbits,7
                                           ;	.line	904; "MC32P7351.c"	T1EN = 0;
                                           	BCLR	_T1CRbits,7
                                           ;	.line	905; "MC32P7351.c"	T2EN = 0;
                                           	BCLR	_T2CRbits,7
                                           ;	.line	906; "MC32P7351.c"	T3EN = 0;
                                           	BCLR	_T3CRbits,7
                                           ;	.line	908; "MC32P7351.c"	PWM0EC = 0;
                                           	BCLR	_T0CRbits,6
                                           ;	.line	909; "MC32P7351.c"	PWM1EC = 0;
                                           	BCLR	_T1CRbits,6
                                           ;	.line	910; "MC32P7351.c"	PWM2EC = 0;
                                           	BCLR	_T2CRbits,6
                                           ;	.line	911; "MC32P7351.c"	T2DATA = 0;
                                           	CLRR	_T2DATA
                                           ;	.line	912; "MC32P7351.c"	ADEN = 0; // ad
                                           	BCLR	_ADCR0bits,0
                                           ;	.line	919; "MC32P7351.c"	LED_WORKING_OFF();
                                           	BSET	_IOP1bits,4
                                           ;	.line	920; "MC32P7351.c"	LED_CHARGING_OFF();
                                           	BSET	_IOP0bits,4
                                           ;	.line	921; "MC32P7351.c"	LED_FULL_CHARGE_OFF();
                                           	BSET	_IOP0bits,3
                                           ;	.line	924; "MC32P7351.c"	P01PU = 1;
                                           	BSET	_PUP0bits,1
                                           ;	.line	925; "MC32P7351.c"	P01OE = 0;
                                           	BCLR	_OEP0bits,1
                                           ;	.line	928; "MC32P7351.c"	P00PD = 1;
                                           	BSET	_PDP0bits,0
                                           ;	.line	929; "MC32P7351.c"	P00OE = 0;
                                           	BCLR	_OEP0bits,0
                                           ;	.line	931; "MC32P7351.c"	HFEN = 0; // 
                                           	BCLR	_OSCMRbits,0
                                           ;	.line	932; "MC32P7351.c"	LFEN = 1;
                                           	BSET	_OSCMRbits,1
                                           ;	.line	935; "MC32P7351.c"	Nop();
                                           	nop	
                                           ;	.line	936; "MC32P7351.c"	Nop();
                                           	nop	
                                           ;	.line	937; "MC32P7351.c"	Stop();
                                           	stop	
                                           ;	.line	938; "MC32P7351.c"	Nop();
                                           	nop	
                                           ;	.line	939; "MC32P7351.c"	Nop();
                                           	nop	
                                           ;	.line	941; "MC32P7351.c"	HFEN = 1; // 
                                           	BSET	_OSCMRbits,0
                                           ;	.line	943; "MC32P7351.c"	CLR_RAM();
                                           	CALL	_CLR_RAM
                                           ;	.line	945; "MC32P7351.c"	adc_config();
                                           	CALL	_adc_config
                                           ;	.line	946; "MC32P7351.c"	adc_sel_pin(ADC_PIN_P00_AN0);
                                           	MOVAI	0x01
                                           	CALL	_adc_sel_pin
                                           ;	.line	947; "MC32P7351.c"	adc_val = adc_get_val_once();
                                           	CALL	_adc_get_val_once
                                           	MOVRA	(_adc_val + 1)
                                           	MOVAR	STK00
                                           	MOVRA	_adc_val
                                           ;;unsigned compare: left < lit(0x800=2048), size=2
                                           ;	.line	949; "MC32P7351.c"	if (adc_val < ADCDETECT_CHARING_THRESHOLD && P01D)
                                           	MOVAI	0x08
                                           	RSUBAR	(_adc_val + 1)
                                           	JBSET	PFLAG,2
                                           	GOTO	_00824_DS_
                                           	MOVAI	0x00
                                           	RSUBAR	_adc_val
                                           _00824_DS_
                                           	JBCLR	PFLAG,0
                                           	GOTO	_00800_DS_
                                           ;;genSkipc:3291: created from rifx:013B5EFC
                                           	JBCLR	_IOP0bits,1
                                           	GOTO	_00789_DS_
                                           _00800_DS_
                                           ;	.line	975; "MC32P7351.c"	Sys_Init();
                                           	CALL	_Sys_Init
                                           ;	.line	976; "MC32P7351.c"	GIE = 1;
                                           	BSET	_MCRbits,7
                                           ;	.line	978; "MC32P7351.c"	delay_ms(1); // 
                                           	MOVAI	0x01
                                           	MOVRA	STK00
                                           	MOVAI	0x00
                                           	CALL	_delay_ms
                                           _00802_DS_
                                           ;	.line	979; "MC32P7351.c"	}
                                           	RETURN	
                                           ; exit point of _low_power_scan_handle
                                           
                                           ;***
                                           ;  pBlock Stats: dbName = C
                                           ;***
                                           ;entry:  _shutdown_scan_handle	;Function start
                                           ; 2 exit points
                                           ;has an exit
                                           ;; Starting pCode block
                                           _shutdown_scan_handle	;Function start
                                           ; 2 exit points
                                           ;	.line	850; "MC32P7351.c"	if (FLAG_IS_DEVICE_OPEN)
                                           	JBSET	_flag1,0
                                           	GOTO	_00767_DS_
                                           ;;unsigned compare: left < lit(0xDBBA0=900000), size=4
                                           ;	.line	854; "MC32P7351.c"	if (shut_down_ms_cnt >= 900000)
                                           	MOVAI	0x00
                                           	RSUBAR	(_shut_down_ms_cnt + 3)
                                           	JBSET	PFLAG,2
                                           	GOTO	_00779_DS_
                                           	MOVAI	0x0d
                                           	RSUBAR	(_shut_down_ms_cnt + 2)
                                           	JBSET	PFLAG,2
                                           	GOTO	_00779_DS_
                                           	MOVAI	0xbb
                                           	RSUBAR	(_shut_down_ms_cnt + 1)
                                           	JBSET	PFLAG,2
                                           	GOTO	_00779_DS_
                                           	MOVAI	0xa0
                                           	RSUBAR	_shut_down_ms_cnt
                                           _00779_DS_
                                           	JBSET	PFLAG,0
                                           	GOTO	_00769_DS_
                                           ;;genSkipc:3291: created from rifx:013B5EFC
                                           ;	.line	857; "MC32P7351.c"	LED_WORKING_OFF(); // 
                                           	BSET	_IOP1bits,4
                                           ;	.line	858; "MC32P7351.c"	LED_CHARGING_OFF();
                                           	BSET	_IOP0bits,4
                                           ;	.line	859; "MC32P7351.c"	HEATING_OFF(); // 
                                           	BCLR	_IOP1bits,2
                                           ;	.line	860; "MC32P7351.c"	FLAG_IS_HEATING = 0;
                                           	BCLR	_flag1,1
                                           ;	.line	861; "MC32P7351.c"	mode_flag = MODE_4; //  MODE_1
                                           	MOVAI	0x03
                                           	MOVRA	_mode_flag
                                           ;	.line	863; "MC32P7351.c"	PWM0EC = 0;
                                           	BCLR	_T0CRbits,6
                                           ;	.line	864; "MC32P7351.c"	PWM1EC = 0;
                                           	BCLR	_T1CRbits,6
                                           ;	.line	866; "MC32P7351.c"	FLAG_IS_DEVICE_OPEN = 0;
                                           	BCLR	_flag1,0
                                           	GOTO	_00769_DS_
                                           _00767_DS_
                                           ;	.line	872; "MC32P7351.c"	shut_down_ms_cnt = 0;
                                           	CLRR	_shut_down_ms_cnt
                                           	CLRR	(_shut_down_ms_cnt + 1)
                                           	CLRR	(_shut_down_ms_cnt + 2)
                                           	CLRR	(_shut_down_ms_cnt + 3)
                                           _00769_DS_
                                           ;	.line	874; "MC32P7351.c"	}
                                           	RETURN	
                                           ; exit point of _shutdown_scan_handle
                                           
                                           ;***
                                           ;  pBlock Stats: dbName = C
                                           ;***
                                           ;entry:  _turn_dir_scan_handle	;Function start
                                           ; 2 exit points
                                           ;has an exit
                                           ;functions called:
                                           ;   _delay_ms
                                           ;   _delay_ms
                                           ;   _delay_ms
                                           ;   _delay_ms
                                           ;1 compiler assigned register :
                                           ;   STK00
                                           ;; Starting pCode block
                                           _turn_dir_scan_handle	;Function start
                                           ; 2 exit points
                                           ;	.line	815; "MC32P7351.c"	if (FLAG_IS_DEVICE_OPEN)
                                           	JBSET	_flag1,0
                                           	GOTO	_00734_DS_
                                           ;;unsigned compare: left < lit(0x1D4C0=120000), size=4
                                           ;	.line	819; "MC32P7351.c"	if (turn_dir_ms_cnt >= (120000) ||
                                           	MOVAI	0x00
                                           	RSUBAR	(_turn_dir_ms_cnt + 3)
                                           	JBSET	PFLAG,2
                                           	GOTO	_00750_DS_
                                           	MOVAI	0x01
                                           	RSUBAR	(_turn_dir_ms_cnt + 2)
                                           	JBSET	PFLAG,2
                                           	GOTO	_00750_DS_
                                           	MOVAI	0xd4
                                           	RSUBAR	(_turn_dir_ms_cnt + 1)
                                           	JBSET	PFLAG,2
                                           	GOTO	_00750_DS_
                                           	MOVAI	0xc0
                                           	RSUBAR	_turn_dir_ms_cnt
                                           _00750_DS_
                                           	JBCLR	PFLAG,0
                                           	GOTO	_00730_DS_
                                           ;;genSkipc:3291: created from rifx:013B5EFC
                                           ;	.line	820; "MC32P7351.c"	flag_ctl_dir)
                                           	JBSET	_flag3,0
                                           	GOTO	_00736_DS_
                                           _00730_DS_
                                           ;	.line	822; "MC32P7351.c"	if (0 == FLAG_DIR)
                                           	JBCLR	_flag1,3
                                           	GOTO	_00728_DS_
                                           ;	.line	824; "MC32P7351.c"	PWM1EC = 0;
                                           	BCLR	_T1CRbits,6
                                           ;	.line	825; "MC32P7351.c"	delay_ms(1000);
                                           	MOVAI	0xe8
                                           	MOVRA	STK00
                                           	MOVAI	0x03
                                           	CALL	_delay_ms
                                           ;	.line	826; "MC32P7351.c"	PWM0EC = 1;
                                           	BSET	_T0CRbits,6
                                           ;	.line	827; "MC32P7351.c"	FLAG_DIR = 1; //
                                           	BSET	_flag1,3
                                           	GOTO	_00729_DS_
                                           _00728_DS_
                                           ;	.line	831; "MC32P7351.c"	PWM0EC = 0; //
                                           	BCLR	_T0CRbits,6
                                           ;	.line	832; "MC32P7351.c"	delay_ms(1000);
                                           	MOVAI	0xe8
                                           	MOVRA	STK00
                                           	MOVAI	0x03
                                           	CALL	_delay_ms
                                           ;	.line	833; "MC32P7351.c"	PWM1EC = 1;   //
                                           	BSET	_T1CRbits,6
                                           ;	.line	834; "MC32P7351.c"	FLAG_DIR = 0; //
                                           	BCLR	_flag1,3
                                           _00729_DS_
                                           ;	.line	837; "MC32P7351.c"	flag_ctl_dir = 0;
                                           	BCLR	_flag3,0
                                           ;	.line	838; "MC32P7351.c"	turn_dir_ms_cnt = 0;
                                           	CLRR	_turn_dir_ms_cnt
                                           	CLRR	(_turn_dir_ms_cnt + 1)
                                           	CLRR	(_turn_dir_ms_cnt + 2)
                                           	CLRR	(_turn_dir_ms_cnt + 3)
                                           	GOTO	_00736_DS_
                                           _00734_DS_
                                           ;	.line	843; "MC32P7351.c"	turn_dir_ms_cnt = 0; // 
                                           	CLRR	_turn_dir_ms_cnt
                                           	CLRR	(_turn_dir_ms_cnt + 1)
                                           	CLRR	(_turn_dir_ms_cnt + 2)
                                           	CLRR	(_turn_dir_ms_cnt + 3)
                                           _00736_DS_
                                           ;	.line	845; "MC32P7351.c"	}
                                           	RETURN	
                                           ; exit point of _turn_dir_scan_handle
                                           
                                           ;***
                                           ;  pBlock Stats: dbName = C
                                           ;***
                                           ;entry:  _adc_scan_handle	;Function start
                                           ; 2 exit points
                                           ;has an exit
                                           ;functions called:
                                           ;   _adc_sel_pin
                                           ;   _adc_get_val
                                           ;   _key_event_handle
                                           ;   _adc_sel_pin
                                           ;   _adc_get_val
                                           ;   _key_event_handle
                                           ;   _adc_sel_pin
                                           ;   _adc_get_val
                                           ;   _key_event_handle
                                           ;   _adc_sel_pin
                                           ;   _adc_get_val
                                           ;   _key_event_handle
                                           ;1 compiler assigned register :
                                           ;   STK00
                                           ;; Starting pCode block
                                           _adc_scan_handle	;Function start
                                           ; 2 exit points
                                           ;	.line	550; "MC32P7351.c"	volatile u8 cnt = 0;             // /
                                           	CLRR	_adc_scan_handle_cnt_65536_106
                                           ;	.line	551; "MC32P7351.c"	volatile u8 need_charge_cnt = 0; // 
                                           	CLRR	_adc_scan_handle_need_charge_cnt_65536_106
                                           ;	.line	553; "MC32P7351.c"	adc_bat_val = 0;
                                           	CLRR	_adc_bat_val
                                           	CLRR	(_adc_bat_val + 1)
                                           	CLRR	(_adc_bat_val + 2)
                                           	CLRR	(_adc_bat_val + 3)
                                           ;	.line	554; "MC32P7351.c"	adc_charging_val = 0;
                                           	CLRR	_adc_charging_val
                                           	CLRR	(_adc_charging_val + 1)
                                           ;	.line	556; "MC32P7351.c"	adc_sel_pin(ADC_PIN_P02_AN1); // 
                                           	MOVAI	0x02
                                           	CALL	_adc_sel_pin
                                           ;	.line	557; "MC32P7351.c"	for (i = 0; i < 10; i++)      //  // 55ms4.8ms
                                           	CLRR	_i
                                           ;;unsigned compare: left < lit(0xA=10), size=1
                                           _00559_DS_
                                           	MOVAI	0x0a
                                           	RSUBAR	_i
                                           	JBCLR	PFLAG,0
                                           	GOTO	_00509_DS_
                                           ;;genSkipc:3291: created from rifx:013B5EFC
                                           ;	.line	559; "MC32P7351.c"	adc_val = adc_get_val();
                                           	CALL	_adc_get_val
                                           	MOVRA	(_adc_val + 1)
                                           	MOVAR	STK00
                                           	MOVRA	_adc_val
                                           ;	.line	561; "MC32P7351.c"	if (i == 0)
                                           	MOVAI	0x00
                                           	ORAR	_i
                                           	JBSET	PFLAG,2
                                           	GOTO	_00442_DS_
                                           ;	.line	563; "MC32P7351.c"	adc_bat_val = adc_val;
                                           	MOVAR	_adc_val
                                           	MOVRA	_adc_bat_val
                                           	MOVAR	(_adc_val + 1)
                                           	MOVRA	(_adc_bat_val + 1)
                                           	CLRR	(_adc_bat_val + 2)
                                           	CLRR	(_adc_bat_val + 3)
                                           _00442_DS_
                                           ;	.line	566; "MC32P7351.c"	if (FLAG_IS_IN_CHARGING)
                                           	JBSET	_flag1,2
                                           	GOTO	_00507_DS_
                                           ;;unsigned compare: left < lit(0xF52=3922), size=2
                                           ;	.line	569; "MC32P7351.c"	if (adc_val >= ADCDETECT_BAT_FULL + ADCDETECT_BAT_NULL_EX)
                                           	MOVAI	0x0f
                                           	RSUBAR	(_adc_val + 1)
                                           	JBSET	PFLAG,2
                                           	GOTO	_00707_DS_
                                           	MOVAI	0x52
                                           	RSUBAR	_adc_val
                                           _00707_DS_
                                           	JBSET	PFLAG,0
                                           	GOTO	_00444_DS_
                                           ;;genSkipc:3291: created from rifx:013B5EFC
                                           ;	.line	572; "MC32P7351.c"	T2DATA = 0;
                                           	CLRR	_T2DATA
                                           ;	.line	573; "MC32P7351.c"	over_charging_cnt++;
                                           	INCR	_over_charging_cnt
                                           ;;unsigned compare: left < lit(0xE3A=3642), size=2
                                           _00444_DS_
                                           ;	.line	576; "MC32P7351.c"	if (adc_val >= ADCDETECT_BAT_FULL) // 
                                           	MOVAI	0x0e
                                           	RSUBAR	(_adc_val + 1)
                                           	JBSET	PFLAG,2
                                           	GOTO	_00708_DS_
                                           	MOVAI	0x3a
                                           	RSUBAR	_adc_val
                                           _00708_DS_
                                           	JBSET	PFLAG,0
                                           	GOTO	_00448_DS_
                                           ;;genSkipc:3291: created from rifx:013B5EFC
                                           ;	.line	578; "MC32P7351.c"	cnt++;
                                           	INCR	_adc_scan_handle_cnt_65536_106
                                           	GOTO	_00449_DS_
                                           ;;unsigned compare: left < lit(0xD90=3472), size=2
                                           _00448_DS_
                                           ;	.line	580; "MC32P7351.c"	else if (adc_val < ADCDETECT_BAT_WILL_FULL) // 
                                           	MOVAI	0x0d
                                           	RSUBAR	(_adc_val + 1)
                                           	JBSET	PFLAG,2
                                           	GOTO	_00709_DS_
                                           	MOVAI	0x90
                                           	RSUBAR	_adc_val
                                           _00709_DS_
                                           	JBCLR	PFLAG,0
                                           	GOTO	_00449_DS_
                                           ;;genSkipc:3291: created from rifx:013B5EFC
                                           ;	.line	582; "MC32P7351.c"	need_charge_cnt++;
                                           	INCR	_adc_scan_handle_need_charge_cnt_65536_106
                                           _00449_DS_
                                           ;	.line	585; "MC32P7351.c"	if (flag_bat_is_empty)
                                           	MOVAI	0x00
                                           	ORAR	_flag_bat_is_empty
                                           	JBCLR	PFLAG,2
                                           	GOTO	_00472_DS_
                                           ;	.line	589; "MC32P7351.c"	LED_CHARGING_OFF(); // 
                                           	BSET	_IOP0bits,4
                                           ;	.line	590; "MC32P7351.c"	PWM2EC = 0;         // pwmPWM
                                           	BCLR	_T2CRbits,6
                                           ;	.line	591; "MC32P7351.c"	T2DATA = 0;
                                           	CLRR	_T2DATA
                                           ;	.line	592; "MC32P7351.c"	FLAG_BAT_IS_NEED_CHARGE = 0;
                                           	BCLR	_flag1,4
                                           ;	.line	593; "MC32P7351.c"	FLAG_DURING_CHARGING_BAT_IS_NULL = 1; // 
                                           	BSET	_flag1,7
                                           ;	.line	595; "MC32P7351.c"	break;
                                           	GOTO	_00509_DS_
                                           ;;unsigned compare: left < lit(0x8=8), size=1
                                           _00472_DS_
                                           ;	.line	597; "MC32P7351.c"	else if (cnt >= 8 || over_charging_cnt >= 8)
                                           	MOVAI	0x08
                                           	RSUBAR	_adc_scan_handle_cnt_65536_106
                                           	JBCLR	PFLAG,0
                                           	GOTO	_00467_DS_
                                           ;;genSkipc:3291: created from rifx:013B5EFC
                                           ;;unsigned compare: left < lit(0x8=8), size=1
                                           	MOVAI	0x08
                                           	RSUBAR	_over_charging_cnt
                                           	JBSET	PFLAG,0
                                           	GOTO	_00468_DS_
                                           ;;genSkipc:3291: created from rifx:013B5EFC
                                           _00467_DS_
                                           ;	.line	600; "MC32P7351.c"	full_charge_cnt++;
                                           	INCR	_full_charge_cnt
                                           ;;unsigned compare: left < lit(0x64=100), size=1
                                           ;	.line	601; "MC32P7351.c"	if (full_charge_cnt >= 100 || over_charging_cnt >= 8) // 5.5s
                                           	MOVAI	0x64
                                           	RSUBAR	_full_charge_cnt
                                           	JBCLR	PFLAG,0
                                           	GOTO	_00459_DS_
                                           ;;genSkipc:3291: created from rifx:013B5EFC
                                           ;;unsigned compare: left < lit(0x8=8), size=1
                                           	MOVAI	0x08
                                           	RSUBAR	_over_charging_cnt
                                           	JBSET	PFLAG,0
                                           	GOTO	_00508_DS_
                                           ;;genSkipc:3291: created from rifx:013B5EFC
                                           _00459_DS_
                                           ;	.line	603; "MC32P7351.c"	full_charge_cnt = 0; //
                                           	CLRR	_full_charge_cnt
                                           ;	.line	605; "MC32P7351.c"	PWM2EC = 0; // pwm
                                           	BCLR	_T2CRbits,6
                                           ;	.line	606; "MC32P7351.c"	T2DATA = 0;
                                           	CLRR	_T2DATA
                                           ;	.line	608; "MC32P7351.c"	FLAG_BAT_IS_NEED_CHARGE = 0;
                                           	BCLR	_flag1,4
                                           ;	.line	609; "MC32P7351.c"	FLAG_BAT_IS_FULL = 1;
                                           	BSET	_flag1,5
                                           ;	.line	611; "MC32P7351.c"	LED_CHARGING_OFF(); // 
                                           	BSET	_IOP0bits,4
                                           ;	.line	614; "MC32P7351.c"	LED_WORKING_ON(); // 
                                           	BCLR	_IOP1bits,4
                                           ;	.line	615; "MC32P7351.c"	break;
                                           	GOTO	_00509_DS_
                                           ;;unsigned compare: left < lit(0x8=8), size=1
                                           _00468_DS_
                                           ;	.line	618; "MC32P7351.c"	else if (need_charge_cnt >= 8)
                                           	MOVAI	0x08
                                           	RSUBAR	_adc_scan_handle_need_charge_cnt_65536_106
                                           	JBSET	PFLAG,0
                                           	GOTO	_00508_DS_
                                           ;;genSkipc:3291: created from rifx:013B5EFC
                                           ;	.line	622; "MC32P7351.c"	LED_FULL_CHARGE_OFF(); // 
                                           	BSET	_IOP0bits,3
                                           ;	.line	623; "MC32P7351.c"	FLAG_BAT_IS_NEED_CHARGE = 1;
                                           	BSET	_flag1,4
                                           ;	.line	624; "MC32P7351.c"	FLAG_BAT_IS_FULL = 0;
                                           	BCLR	_flag1,5
                                           ;	.line	625; "MC32P7351.c"	break;
                                           	GOTO	_00509_DS_
                                           _00507_DS_
                                           ;	.line	631; "MC32P7351.c"	if (flag_bat_is_empty == 0 && adc_val <= ADCDETECT_BAT_FULL - ((ADCDETECT_BAT_FULL - ADCDETECT_BAT_WILL_FULL) / 2))
                                           	MOVAI	0x00
                                           	ORAR	_flag_bat_is_empty
                                           	JBSET	PFLAG,2
                                           	GOTO	_00475_DS_
                                           ;;swapping arguments (AOP_TYPEs 1/3)
                                           ;;unsigned compare: left >= lit(0xDE6=3558), size=2
                                           	MOVAI	0x0d
                                           	RSUBAR	(_adc_val + 1)
                                           	JBSET	PFLAG,2
                                           	GOTO	_00715_DS_
                                           	MOVAI	0xe6
                                           	RSUBAR	_adc_val
                                           _00715_DS_
                                           	JBCLR	PFLAG,0
                                           	GOTO	_00475_DS_
                                           ;;genSkipc:3291: created from rifx:013B5EFC
                                           ;	.line	633; "MC32P7351.c"	cnt++;
                                           	INCR	_adc_scan_handle_cnt_65536_106
                                           ;;unsigned compare: left < lit(0x8=8), size=1
                                           _00475_DS_
                                           ;	.line	636; "MC32P7351.c"	if (cnt >= 8)
                                           	MOVAI	0x08
                                           	RSUBAR	_adc_scan_handle_cnt_65536_106
                                           	JBSET	PFLAG,0
                                           	GOTO	_00478_DS_
                                           ;;genSkipc:3291: created from rifx:013B5EFC
                                           ;	.line	639; "MC32P7351.c"	FLAG_BAT_IS_NEED_CHARGE = 1;
                                           	BSET	_flag1,4
                                           ;	.line	640; "MC32P7351.c"	FLAG_BAT_IS_FULL = 0;
                                           	BCLR	_flag1,5
                                           ;	.line	641; "MC32P7351.c"	break;
                                           	GOTO	_00509_DS_
                                           _00478_DS_
                                           ;	.line	645; "MC32P7351.c"	flag_bat_is_empty == 0 &&  /*  */
                                           	MOVAI	0x00
                                           	ORAR	_flag_bat_is_empty
                                           	JBSET	PFLAG,2
                                           	GOTO	_00485_DS_
                                           ;	.line	646; "MC32P7351.c"	FLAG_IS_DEVICE_OPEN &&     /*  */
                                           	JBSET	_flag1,0
                                           	GOTO	_00485_DS_
                                           ;;unsigned compare: left < lit(0xA93=2707), size=2
                                           ;	.line	648; "MC32P7351.c"	)
                                           	MOVAI	0x0a
                                           	RSUBAR	(_adc_val + 1)
                                           	JBSET	PFLAG,2
                                           	GOTO	_00717_DS_
                                           	MOVAI	0x93
                                           	RSUBAR	_adc_val
                                           _00717_DS_
                                           	JBCLR	PFLAG,0
                                           	GOTO	_00485_DS_
                                           ;;genSkipc:3291: created from rifx:013B5EFC
                                           ;	.line	650; "MC32P7351.c"	flag_tim_scan_maybe_shut_down = 1;
                                           	BSET	_flag3,3
                                           	GOTO	_00486_DS_
                                           _00485_DS_
                                           ;	.line	652; "MC32P7351.c"	else if (flag_bat_is_empty == 0 &&
                                           	MOVAI	0x00
                                           	ORAR	_flag_bat_is_empty
                                           	JBSET	PFLAG,2
                                           	GOTO	_00480_DS_
                                           ;	.line	653; "MC32P7351.c"	FLAG_IS_DEVICE_OPEN &&
                                           	JBSET	_flag1,0
                                           	GOTO	_00480_DS_
                                           ;;unsigned compare: left < lit(0xB15=2837), size=2
                                           ;	.line	654; "MC32P7351.c"	adc_val < LOW_BATTERY_AD_VAL)
                                           	MOVAI	0x0b
                                           	RSUBAR	(_adc_val + 1)
                                           	JBSET	PFLAG,2
                                           	GOTO	_00718_DS_
                                           	MOVAI	0x15
                                           	RSUBAR	_adc_val
                                           _00718_DS_
                                           	JBCLR	PFLAG,0
                                           	GOTO	_00480_DS_
                                           ;;genSkipc:3291: created from rifx:013B5EFC
                                           ;	.line	657; "MC32P7351.c"	flag_maybe_low_battery = 1;
                                           	BSET	_flag3,2
                                           ;	.line	658; "MC32P7351.c"	flag_tim_scan_maybe_shut_down = 0;
                                           	BCLR	_flag3,3
                                           	GOTO	_00486_DS_
                                           _00480_DS_
                                           ;	.line	662; "MC32P7351.c"	flag_maybe_low_battery = 0;
                                           	BCLR	_flag3,2
                                           ;	.line	663; "MC32P7351.c"	flag_tim_scan_maybe_shut_down = 0;
                                           	BCLR	_flag3,3
                                           _00486_DS_
                                           ;	.line	667; "MC32P7351.c"	if (flag_is_needed_shut_down && FLAG_IS_DEVICE_OPEN)
                                           	JBSET	_flag3,4
                                           	GOTO	_00508_DS_
                                           	JBSET	_flag1,0
                                           	GOTO	_00508_DS_
                                           ;	.line	669; "MC32P7351.c"	flag_is_needed_shut_down = 0;
                                           	BCLR	_flag3,4
                                           ;	.line	671; "MC32P7351.c"	LED_WORKING_OFF(); // 
                                           	BSET	_IOP1bits,4
                                           ;	.line	672; "MC32P7351.c"	LED_CHARGING_OFF();
                                           	BSET	_IOP0bits,4
                                           ;	.line	673; "MC32P7351.c"	HEATING_OFF(); // 
                                           	BCLR	_IOP1bits,2
                                           ;	.line	674; "MC32P7351.c"	FLAG_IS_DEVICE_OPEN = 0;
                                           	BCLR	_flag1,0
                                           ;	.line	675; "MC32P7351.c"	FLAG_IS_HEATING = 0;
                                           	BCLR	_flag1,1
                                           ;	.line	677; "MC32P7351.c"	if (flag_is_low_battery)
                                           	JBSET	_flag2,2
                                           	GOTO	_00502_DS_
                                           ;	.line	680; "MC32P7351.c"	flag_is_low_battery = 0;
                                           	BCLR	_flag2,2
                                           ;	.line	681; "MC32P7351.c"	LED_CHARGING_OFF(); // LED
                                           	BSET	_IOP0bits,4
                                           _00502_DS_
                                           ;	.line	684; "MC32P7351.c"	mode_flag = MODE_1; //  MODE_2
                                           	CLRR	_mode_flag
                                           ;	.line	687; "MC32P7351.c"	PWM0EC = 0;
                                           	BCLR	_T0CRbits,6
                                           ;	.line	688; "MC32P7351.c"	PWM1EC = 0;
                                           	BCLR	_T1CRbits,6
                                           _00508_DS_
                                           ;	.line	693; "MC32P7351.c"	key_event_handle();
                                           	CALL	_key_event_handle
                                           ;	.line	557; "MC32P7351.c"	for (i = 0; i < 10; i++)      //  // 55ms4.8ms
                                           	INCR	_i
                                           	GOTO	_00559_DS_
                                           _00509_DS_
                                           ;	.line	696; "MC32P7351.c"	cnt = 0;
                                           	CLRR	_adc_scan_handle_cnt_65536_106
                                           ;	.line	697; "MC32P7351.c"	adc_sel_pin(ADC_PIN_P00_AN0); // ( == USB-C / 2)
                                           	MOVAI	0x01
                                           	CALL	_adc_sel_pin
                                           ;	.line	698; "MC32P7351.c"	for (i = 0; i < 10; i++)
                                           	CLRR	_i
                                           ;;unsigned compare: left < lit(0xA=10), size=1
                                           _00562_DS_
                                           	MOVAI	0x0a
                                           	RSUBAR	_i
                                           	JBCLR	PFLAG,0
                                           	GOTO	_00564_DS_
                                           ;;genSkipc:3291: created from rifx:013B5EFC
                                           ;	.line	700; "MC32P7351.c"	adc_val = adc_get_val();
                                           	CALL	_adc_get_val
                                           	MOVRA	(_adc_val + 1)
                                           	MOVAR	STK00
                                           	MOVRA	_adc_val
                                           ;	.line	701; "MC32P7351.c"	if (flag_bat_is_empty) // 
                                           	MOVAI	0x00
                                           	ORAR	_flag_bat_is_empty
                                           	JBCLR	PFLAG,2
                                           	GOTO	_00511_DS_
                                           ;	.line	703; "MC32P7351.c"	adc_val = 4095; // if (adc_val < ADCDETECT_CHARING_THRESHOLD)
                                           	MOVAI	0xff
                                           	MOVRA	_adc_val
                                           	MOVAI	0x0f
                                           	MOVRA	(_adc_val + 1)
                                           _00511_DS_
                                           ;	.line	706; "MC32P7351.c"	if (adc_charging_val != 0)
                                           	MOVAR	_adc_charging_val
                                           	ORAR	(_adc_charging_val + 1)
                                           	JBCLR	PFLAG,2
                                           	GOTO	_00513_DS_
                                           ;	.line	708; "MC32P7351.c"	adc_charging_val += adc_val;
                                           	MOVAR	_adc_val
                                           	ADDRA	_adc_charging_val
                                           	MOVAR	(_adc_val + 1)
                                           	JBCLR	PFLAG,0
                                           	JZAR	(_adc_val + 1)
                                           	ADDRA	(_adc_charging_val + 1)
                                           ;;shiftRight_Left2ResultLit:5339: shCount=1, size=2, sign=0, same=1, offr=0
                                           ;	.line	709; "MC32P7351.c"	adc_charging_val /= 2;
                                           	BCLR	PFLAG,0
                                           	RRR	(_adc_charging_val + 1)
                                           	RRR	_adc_charging_val
                                           	GOTO	_00514_DS_
                                           _00513_DS_
                                           ;	.line	713; "MC32P7351.c"	adc_charging_val += adc_val;
                                           	MOVAR	_adc_val
                                           	ADDRA	_adc_charging_val
                                           	MOVAR	(_adc_val + 1)
                                           	JBCLR	PFLAG,0
                                           	JZAR	(_adc_val + 1)
                                           	ADDRA	(_adc_charging_val + 1)
                                           _00514_DS_
                                           ;	.line	716; "MC32P7351.c"	if (FLAG_IS_IN_CHARGING)
                                           	JBSET	_flag1,2
                                           	GOTO	_00555_DS_
                                           ;;unsigned compare: left < lit(0x800=2048), size=2
                                           ;	.line	719; "MC32P7351.c"	if (adc_val < ADCDETECT_CHARING_THRESHOLD)
                                           	MOVAI	0x08
                                           	RSUBAR	(_adc_val + 1)
                                           	JBSET	PFLAG,2
                                           	GOTO	_00720_DS_
                                           	MOVAI	0x00
                                           	RSUBAR	_adc_val
                                           _00720_DS_
                                           	JBCLR	PFLAG,0
                                           	GOTO	_00516_DS_
                                           ;;genSkipc:3291: created from rifx:013B5EFC
                                           ;	.line	721; "MC32P7351.c"	cnt++;
                                           	INCR	_adc_scan_handle_cnt_65536_106
                                           ;;unsigned compare: left < lit(0x8=8), size=1
                                           _00516_DS_
                                           ;	.line	724; "MC32P7351.c"	if (cnt >= 8)
                                           	MOVAI	0x08
                                           	RSUBAR	_adc_scan_handle_cnt_65536_106
                                           	JBSET	PFLAG,0
                                           	GOTO	_00527_DS_
                                           ;;genSkipc:3291: created from rifx:013B5EFC
                                           ;	.line	727; "MC32P7351.c"	FLAG_IS_IN_CHARGING = 0;
                                           	BCLR	_flag1,2
                                           ;	.line	728; "MC32P7351.c"	LED_CHARGING_OFF(); // 
                                           	BSET	_IOP0bits,4
                                           ;	.line	729; "MC32P7351.c"	PWM2EC = 0;         // pwm
                                           	BCLR	_T2CRbits,6
                                           ;	.line	730; "MC32P7351.c"	T2DATA = 0;
                                           	CLRR	_T2DATA
                                           ;	.line	731; "MC32P7351.c"	LED_FULL_CHARGE_OFF(); // 
                                           	BSET	_IOP0bits,3
                                           ;	.line	732; "MC32P7351.c"	LED_WORKING_OFF();     // 
                                           	BSET	_IOP1bits,4
                                           ;	.line	734; "MC32P7351.c"	FLAG_DURING_CHARGING_BAT_IS_NULL = 0; // 
                                           	BCLR	_flag1,7
                                           ;	.line	735; "MC32P7351.c"	break;
                                           	GOTO	_00564_DS_
                                           _00527_DS_
                                           ;	.line	738; "MC32P7351.c"	if (FLAG_IS_DEVICE_OPEN)
                                           	JBCLR	_flag1,0
                                           	GOTO	_00556_DS_
                                           ;	.line	743; "MC32P7351.c"	if (FLAG_BAT_IS_FULL)
                                           	JBCLR	_flag1,5
                                           	GOTO	_00556_DS_
                                           ;	.line	749; "MC32P7351.c"	LED_FULL_CHARGE_OFF();
                                           	BSET	_IOP0bits,3
                                           ;	.line	750; "MC32P7351.c"	LED_WORKING_OFF();
                                           	BSET	_IOP1bits,4
                                           	GOTO	_00556_DS_
                                           _00555_DS_
                                           ;	.line	758; "MC32P7351.c"	if (flag_bat_is_empty == 0 && adc_val >= ADCDETECT_CHARING_THRESHOLD)
                                           	MOVAI	0x00
                                           	ORAR	_flag_bat_is_empty
                                           	JBSET	PFLAG,2
                                           	GOTO	_00541_DS_
                                           ;;unsigned compare: left < lit(0x800=2048), size=2
                                           	MOVAI	0x08
                                           	RSUBAR	(_adc_val + 1)
                                           	JBSET	PFLAG,2
                                           	GOTO	_00722_DS_
                                           	MOVAI	0x00
                                           	RSUBAR	_adc_val
                                           _00722_DS_
                                           	JBSET	PFLAG,0
                                           	GOTO	_00541_DS_
                                           ;;genSkipc:3291: created from rifx:013B5EFC
                                           ;	.line	760; "MC32P7351.c"	cnt++;
                                           	INCR	_adc_scan_handle_cnt_65536_106
                                           ;;unsigned compare: left < lit(0x8=8), size=1
                                           _00541_DS_
                                           ;	.line	763; "MC32P7351.c"	if (cnt >= 8)
                                           	MOVAI	0x08
                                           	RSUBAR	_adc_scan_handle_cnt_65536_106
                                           	JBSET	PFLAG,0
                                           	GOTO	_00556_DS_
                                           ;;genSkipc:3291: created from rifx:013B5EFC
                                           ;	.line	766; "MC32P7351.c"	full_charge_cnt = 0;
                                           	CLRR	_full_charge_cnt
                                           ;	.line	767; "MC32P7351.c"	over_charging_cnt = 0;
                                           	CLRR	_over_charging_cnt
                                           ;	.line	769; "MC32P7351.c"	FLAG_IS_IN_CHARGING = 1;
                                           	BSET	_flag1,2
                                           ;	.line	772; "MC32P7351.c"	PWM2EC = 1; // pwm
                                           	BSET	_T2CRbits,6
                                           ;	.line	773; "MC32P7351.c"	LED_FULL_CHARGE_OFF();
                                           	BSET	_IOP0bits,3
                                           ;	.line	774; "MC32P7351.c"	LED_WORKING_OFF(); // 
                                           	BSET	_IOP1bits,4
                                           ;	.line	775; "MC32P7351.c"	HEATING_OFF();     // 
                                           	BCLR	_IOP1bits,2
                                           ;	.line	776; "MC32P7351.c"	FLAG_IS_DEVICE_OPEN = 0;
                                           	BCLR	_flag1,0
                                           ;	.line	777; "MC32P7351.c"	FLAG_IS_HEATING = 0;
                                           	BCLR	_flag1,1
                                           ;	.line	778; "MC32P7351.c"	mode_flag = MODE_1; //  MODE_2
                                           	CLRR	_mode_flag
                                           ;	.line	780; "MC32P7351.c"	PWM0EC = 0;
                                           	BCLR	_T0CRbits,6
                                           ;	.line	781; "MC32P7351.c"	PWM1EC = 0;
                                           	BCLR	_T1CRbits,6
                                           ;	.line	783; "MC32P7351.c"	flag_is_low_battery = 0; // 
                                           	BCLR	_flag2,2
                                           ;	.line	784; "MC32P7351.c"	break;
                                           	GOTO	_00564_DS_
                                           _00556_DS_
                                           ;	.line	809; "MC32P7351.c"	key_event_handle();
                                           	CALL	_key_event_handle
                                           ;	.line	698; "MC32P7351.c"	for (i = 0; i < 10; i++)
                                           	INCR	_i
                                           	GOTO	_00562_DS_
                                           _00564_DS_
                                           ;	.line	811; "MC32P7351.c"	}
                                           	RETURN	
                                           ; exit point of _adc_scan_handle
                                           
                                           ;***
                                           ;  pBlock Stats: dbName = C
                                           ;***
                                           ;entry:  _key_event_handle	;Function start
                                           ; 2 exit points
                                           ;has an exit
                                           ;; Starting pCode block
                                           _key_event_handle	;Function start
                                           ; 2 exit points
                                           ;	.line	438; "MC32P7351.c"	if (FLAG_IS_DEVICE_OPEN)
                                           	JBSET	_flag1,0
                                           	GOTO	_00435_DS_
                                           ;	.line	441; "MC32P7351.c"	if (KEY_EVENT_MODE_HOLD == key_event)
                                           	MOVAR	_key_event
                                           	XORAI	0x03
                                           	JBSET	PFLAG,2
                                           	GOTO	_00420_DS_
                                           ;	.line	444; "MC32P7351.c"	LED_WORKING_OFF(); // 
                                           	BSET	_IOP1bits,4
                                           ;	.line	445; "MC32P7351.c"	LED_CHARGING_OFF();
                                           	BSET	_IOP0bits,4
                                           ;	.line	446; "MC32P7351.c"	HEATING_OFF(); // 
                                           	BCLR	_IOP1bits,2
                                           ;	.line	447; "MC32P7351.c"	FLAG_IS_DEVICE_OPEN = 0;
                                           	BCLR	_flag1,0
                                           ;	.line	448; "MC32P7351.c"	FLAG_IS_HEATING = 0;
                                           	BCLR	_flag1,1
                                           ;	.line	450; "MC32P7351.c"	if (flag_is_low_battery)
                                           	JBSET	_flag2,2
                                           	GOTO	_00381_DS_
                                           ;	.line	453; "MC32P7351.c"	flag_is_low_battery = 0;
                                           	BCLR	_flag2,2
                                           ;	.line	454; "MC32P7351.c"	LED_CHARGING_OFF(); // LED
                                           	BSET	_IOP0bits,4
                                           _00381_DS_
                                           ;	.line	457; "MC32P7351.c"	mode_flag = MODE_1; //  MODE_2
                                           	CLRR	_mode_flag
                                           ;	.line	460; "MC32P7351.c"	PWM0EC = 0;
                                           	BCLR	_T0CRbits,6
                                           ;	.line	461; "MC32P7351.c"	PWM1EC = 0;
                                           	BCLR	_T1CRbits,6
                                           	GOTO	_00436_DS_
                                           _00420_DS_
                                           ;	.line	463; "MC32P7351.c"	else if (KEY_EVENT_MODE_PRESS == key_event)
                                           	MOVAR	_key_event
                                           	XORAI	0x02
                                           	JBSET	PFLAG,2
                                           	GOTO	_00417_DS_
                                           ;	.line	465; "MC32P7351.c"	if (MODE_1 == mode_flag)
                                           	MOVAI	0x00
                                           	ORAR	_mode_flag
                                           	JBSET	PFLAG,2
                                           	GOTO	_00391_DS_
                                           ;	.line	468; "MC32P7351.c"	T0DATA = 160;
                                           	MOVAI	0xa0
                                           	MOVRA	_T0DATA
                                           ;	.line	469; "MC32P7351.c"	T1DATA = 160;
                                           	MOVAI	0xa0
                                           	MOVRA	_T1DATA
                                           ;	.line	471; "MC32P7351.c"	mode_flag = MODE_2;
                                           	MOVAI	0x01
                                           	MOVRA	_mode_flag
                                           ;	.line	472; "MC32P7351.c"	flag_ctl_dir = 1;
                                           	BSET	_flag3,0
                                           	GOTO	_00392_DS_
                                           _00391_DS_
                                           ;	.line	474; "MC32P7351.c"	else if (MODE_2 == mode_flag)
                                           	MOVAR	_mode_flag
                                           	XORAI	0x01
                                           	JBSET	PFLAG,2
                                           	GOTO	_00388_DS_
                                           ;	.line	477; "MC32P7351.c"	T0DATA = 255;
                                           	MOVAI	0xff
                                           	MOVRA	_T0DATA
                                           ;	.line	478; "MC32P7351.c"	T1DATA = 255; // 100%TxLOAD
                                           	MOVAI	0xff
                                           	MOVRA	_T1DATA
                                           ;	.line	480; "MC32P7351.c"	mode_flag = MODE_3;
                                           	MOVAI	0x02
                                           	MOVRA	_mode_flag
                                           ;	.line	481; "MC32P7351.c"	flag_ctl_dir = 1;
                                           	BSET	_flag3,0
                                           	GOTO	_00392_DS_
                                           _00388_DS_
                                           ;	.line	483; "MC32P7351.c"	else if (MODE_3 == mode_flag)
                                           	MOVAR	_mode_flag
                                           	XORAI	0x02
                                           	JBSET	PFLAG,2
                                           	GOTO	_00385_DS_
                                           ;	.line	486; "MC32P7351.c"	T0DATA = 0;
                                           	CLRR	_T0DATA
                                           ;	.line	487; "MC32P7351.c"	T1DATA = 0;
                                           	CLRR	_T1DATA
                                           ;	.line	488; "MC32P7351.c"	PWM0EC = 0;
                                           	BCLR	_T0CRbits,6
                                           ;	.line	489; "MC32P7351.c"	PWM1EC = 0;
                                           	BCLR	_T1CRbits,6
                                           ;	.line	490; "MC32P7351.c"	mode_flag = MODE_4;
                                           	MOVAI	0x03
                                           	MOVRA	_mode_flag
                                           	GOTO	_00392_DS_
                                           _00385_DS_
                                           ;	.line	492; "MC32P7351.c"	else if (MODE_4 == mode_flag)
                                           	MOVAR	_mode_flag
                                           	XORAI	0x03
                                           	JBSET	PFLAG,2
                                           	GOTO	_00392_DS_
                                           ;	.line	496; "MC32P7351.c"	T0DATA = 150;
                                           	MOVAI	0x96
                                           	MOVRA	_T0DATA
                                           ;	.line	497; "MC32P7351.c"	T1DATA = 150;
                                           	MOVAI	0x96
                                           	MOVRA	_T1DATA
                                           ;	.line	498; "MC32P7351.c"	mode_flag = MODE_1;
                                           	CLRR	_mode_flag
                                           ;	.line	499; "MC32P7351.c"	flag_ctl_dir = 1;
                                           	BSET	_flag3,0
                                           _00392_DS_
                                           ;	.line	502; "MC32P7351.c"	turn_dir_ms_cnt = 0; // 
                                           	CLRR	_turn_dir_ms_cnt
                                           	CLRR	(_turn_dir_ms_cnt + 1)
                                           	CLRR	(_turn_dir_ms_cnt + 2)
                                           	CLRR	(_turn_dir_ms_cnt + 3)
                                           	GOTO	_00436_DS_
                                           _00417_DS_
                                           ;	.line	504; "MC32P7351.c"	else if (KEY_EVENT_HEAT_PRESS == key_event)
                                           	MOVAR	_key_event
                                           	XORAI	0x01
                                           	JBSET	PFLAG,2
                                           	GOTO	_00436_DS_
                                           ;	.line	506; "MC32P7351.c"	if (0 == FLAG_IS_HEATING)
                                           	JBCLR	_flag1,1
                                           	GOTO	_00402_DS_
                                           ;	.line	508; "MC32P7351.c"	HEATING_ON(); // 
                                           	BSET	_IOP1bits,2
                                           ;	.line	509; "MC32P7351.c"	LED_WORKING_OFF();
                                           	BSET	_IOP1bits,4
                                           ;	.line	510; "MC32P7351.c"	LED_CHARGING_ON();
                                           	BCLR	_IOP0bits,4
                                           ;	.line	511; "MC32P7351.c"	FLAG_IS_HEATING = 1;
                                           	BSET	_flag1,1
                                           	GOTO	_00436_DS_
                                           _00402_DS_
                                           ;	.line	515; "MC32P7351.c"	HEATING_OFF(); // 
                                           	BCLR	_IOP1bits,2
                                           ;	.line	516; "MC32P7351.c"	LED_CHARGING_OFF();
                                           	BSET	_IOP0bits,4
                                           ;	.line	517; "MC32P7351.c"	LED_WORKING_ON();
                                           	BCLR	_IOP1bits,4
                                           ;	.line	518; "MC32P7351.c"	FLAG_IS_HEATING = 0;
                                           	BCLR	_flag1,1
                                           	GOTO	_00436_DS_
                                           _00435_DS_
                                           ;	.line	525; "MC32P7351.c"	if (KEY_EVENT_MODE_HOLD == key_event && 0 == FLAG_IS_IN_CHARGING)
                                           	MOVAR	_key_event
                                           	XORAI	0x03
                                           	JBSET	PFLAG,2
                                           	GOTO	_00436_DS_
                                           	JBCLR	_flag1,2
                                           	GOTO	_00436_DS_
                                           ;	.line	527; "MC32P7351.c"	LED_FULL_CHARGE_OFF(); // 
                                           	BSET	_IOP0bits,3
                                           ;	.line	528; "MC32P7351.c"	LED_CHARGING_OFF();    // 
                                           	BSET	_IOP0bits,4
                                           ;	.line	529; "MC32P7351.c"	LED_WORKING_ON();      // 
                                           	BCLR	_IOP1bits,4
                                           ;	.line	530; "MC32P7351.c"	FLAG_IS_DEVICE_OPEN = 1;
                                           	BSET	_flag1,0
                                           ;	.line	533; "MC32P7351.c"	T0DATA = 150;
                                           	MOVAI	0x96
                                           	MOVRA	_T0DATA
                                           ;	.line	534; "MC32P7351.c"	T1DATA = 150;
                                           	MOVAI	0x96
                                           	MOVRA	_T1DATA
                                           ;	.line	535; "MC32P7351.c"	mode_flag = MODE_1; //  MODE_2
                                           	CLRR	_mode_flag
                                           ;	.line	540; "MC32P7351.c"	PWM1EC = 1;
                                           	BSET	_T1CRbits,6
                                           _00436_DS_
                                           ;	.line	545; "MC32P7351.c"	key_event = KEY_EVENT_NONE;
                                           	CLRR	_key_event
                                           ;	.line	546; "MC32P7351.c"	}
                                           	RETURN	
                                           ; exit point of _key_event_handle
                                           
                                           ;***
                                           ;  pBlock Stats: dbName = C
                                           ;***
                                           ;entry:  _key_scan	;Function start
                                           ; 2 exit points
                                           ;has an exit
                                           ;; Starting pCode block
                                           _key_scan	;Function start
                                           ; 2 exit points
                                           ;	.line	321; "MC32P7351.c"	volatile u8 cur_key_id = KEY_ID_NONE;
                                           	CLRR	_key_scan_cur_key_id_65536_41
                                           ;	.line	325; "MC32P7351.c"	if (0 == KEY_MODE_PIN)
                                           	JBCLR	_IOP0bits,1
                                           	GOTO	_00240_DS_
                                           ;	.line	327; "MC32P7351.c"	cur_key_id = KEY_ID_MODE;
                                           	MOVAI	0x01
                                           	MOVRA	_key_scan_cur_key_id_65536_41
                                           	GOTO	_00241_DS_
                                           _00240_DS_
                                           ;	.line	329; "MC32P7351.c"	else if (0 == KEY_HEAT_PIN)
                                           	JBCLR	_IOP1bits,1
                                           	GOTO	_00241_DS_
                                           ;	.line	331; "MC32P7351.c"	cur_key_id = KEY_ID_HEAT;
                                           	MOVAI	0x02
                                           	MOVRA	_key_scan_cur_key_id_65536_41
                                           _00241_DS_
                                           ;	.line	334; "MC32P7351.c"	if (cur_key_id != filter_key_id)
                                           	MOVAR	_key_scan_filter_key_id_65536_41
                                           	XORAR	_key_scan_cur_key_id_65536_41
                                           	JBSET	PFLAG,2
                                           	GOTO	_00361_DS_
                                           	GOTO	_00243_DS_
                                           _00361_DS_
                                           ;	.line	337; "MC32P7351.c"	filter_cnt = 0;
                                           	CLRR	_key_scan_filter_cnt_65536_41
                                           ;	.line	338; "MC32P7351.c"	filter_key_id = cur_key_id;
                                           	MOVAR	_key_scan_cur_key_id_65536_41
                                           	MOVRA	_key_scan_filter_key_id_65536_41
                                           ;	.line	339; "MC32P7351.c"	return;
                                           	GOTO	_00283_DS_
                                           ;;unsigned compare: left < lit(0x3=3), size=1
                                           _00243_DS_
                                           ;	.line	342; "MC32P7351.c"	if (filter_cnt < KEY_FILTER_TIMES)
                                           	MOVAI	0x03
                                           	RSUBAR	_key_scan_filter_cnt_65536_41
                                           	JBCLR	PFLAG,0
                                           	GOTO	_00245_DS_
                                           ;;genSkipc:3291: created from rifx:013B5EFC
                                           ;	.line	346; "MC32P7351.c"	filter_cnt++;
                                           	INCR	_key_scan_filter_cnt_65536_41
                                           ;	.line	347; "MC32P7351.c"	return;
                                           	GOTO	_00283_DS_
                                           _00245_DS_
                                           ;	.line	352; "MC32P7351.c"	if (last_key_id != cur_key_id)
                                           	MOVAR	_key_scan_cur_key_id_65536_41
                                           	XORAR	_key_scan_last_key_id_65536_41
                                           	JBSET	PFLAG,2
                                           	GOTO	_00363_DS_
                                           	GOTO	_00281_DS_
                                           _00363_DS_
                                           ;	.line	354; "MC32P7351.c"	if (last_key_id == KEY_ID_NONE)
                                           	MOVAI	0x00
                                           	ORAR	_key_scan_last_key_id_65536_41
                                           	JBSET	PFLAG,2
                                           	GOTO	_00259_DS_
                                           ;	.line	357; "MC32P7351.c"	press_cnt = 0;
                                           	CLRR	_key_scan_press_cnt_65536_41
                                           	GOTO	_00282_DS_
                                           _00259_DS_
                                           ;	.line	359; "MC32P7351.c"	else if (cur_key_id == KEY_ID_NONE)
                                           	MOVAI	0x00
                                           	ORAR	_key_scan_cur_key_id_65536_41
                                           	JBSET	PFLAG,2
                                           	GOTO	_00282_DS_
                                           ;;unsigned compare: left < lit(0x4B=75), size=1
                                           ;	.line	362; "MC32P7351.c"	if (press_cnt < 75)
                                           	MOVAI	0x4b
                                           	RSUBAR	_key_scan_press_cnt_65536_41
                                           	JBCLR	PFLAG,0
                                           	GOTO	_00254_DS_
                                           ;;genSkipc:3291: created from rifx:013B5EFC
                                           ;	.line	365; "MC32P7351.c"	if (KEY_ID_MODE == last_key_id)
                                           	MOVAR	_key_scan_last_key_id_65536_41
                                           	XORAI	0x01
                                           	JBSET	PFLAG,2
                                           	GOTO	_00249_DS_
                                           ;	.line	368; "MC32P7351.c"	key_event = KEY_EVENT_MODE_PRESS;
                                           	MOVAI	0x02
                                           	MOVRA	_key_event
                                           	GOTO	_00282_DS_
                                           _00249_DS_
                                           ;	.line	374; "MC32P7351.c"	else if (KEY_ID_HEAT == last_key_id)
                                           	MOVAR	_key_scan_last_key_id_65536_41
                                           	XORAI	0x02
                                           	JBSET	PFLAG,2
                                           	GOTO	_00282_DS_
                                           ;	.line	377; "MC32P7351.c"	key_event = KEY_EVENT_HEAT_PRESS;
                                           	MOVAI	0x01
                                           	MOVRA	_key_event
                                           	GOTO	_00282_DS_
                                           _00254_DS_
                                           ;	.line	385; "MC32P7351.c"	if (KEY_ID_MODE == last_key_id)
                                           	MOVAR	_key_scan_last_key_id_65536_41
                                           	XORAI	0x01
                                           	JBSET	PFLAG,2
                                           	GOTO	_00282_DS_
                                           ;	.line	387; "MC32P7351.c"	flag_is_key_mode_hold = 0;
                                           	CLRR	_key_scan_flag_is_key_mode_hold_65536_41
                                           	GOTO	_00282_DS_
                                           _00281_DS_
                                           ;	.line	392; "MC32P7351.c"	else if (cur_key_id != KEY_ID_NONE)
                                           	MOVAI	0x00
                                           	ORAR	_key_scan_cur_key_id_65536_41
                                           	JBCLR	PFLAG,2
                                           	GOTO	_00282_DS_
                                           ;;unsigned compare: left < lit(0xFF=255), size=1
                                           ;	.line	395; "MC32P7351.c"	if (press_cnt < 255)
                                           	MOVAI	0xff
                                           	RSUBAR	_key_scan_press_cnt_65536_41
                                           	JBCLR	PFLAG,0
                                           	GOTO	_00262_DS_
                                           ;;genSkipc:3291: created from rifx:013B5EFC
                                           ;	.line	396; "MC32P7351.c"	press_cnt++;
                                           	INCR	_key_scan_press_cnt_65536_41
                                           _00262_DS_
                                           ;	.line	398; "MC32P7351.c"	if (KEY_ID_MODE == cur_key_id)
                                           	MOVAR	_key_scan_cur_key_id_65536_41
                                           	XORAI	0x01
                                           	JBSET	PFLAG,2
                                           	GOTO	_00282_DS_
                                           ;	.line	400; "MC32P7351.c"	if (FLAG_IS_DEVICE_OPEN)
                                           	JBSET	_flag1,0
                                           	GOTO	_00274_DS_
                                           ;;unsigned compare: left < lit(0xC8=200), size=1
                                           ;	.line	402; "MC32P7351.c"	if (press_cnt >= 200) // 2000ms
                                           	MOVAI	0xc8
                                           	RSUBAR	_key_scan_press_cnt_65536_41
                                           	JBSET	PFLAG,0
                                           	GOTO	_00282_DS_
                                           ;;genSkipc:3291: created from rifx:013B5EFC
                                           ;	.line	404; "MC32P7351.c"	if (flag_is_key_mode_hold)
                                           	MOVAI	0x00
                                           	ORAR	_key_scan_flag_is_key_mode_hold_65536_41
                                           	JBSET	PFLAG,2
                                           	GOTO	_00282_DS_
                                           ;	.line	409; "MC32P7351.c"	key_event = KEY_EVENT_MODE_HOLD;
                                           	MOVAI	0x03
                                           	MOVRA	_key_event
                                           ;	.line	410; "MC32P7351.c"	flag_is_key_mode_hold = 1;
                                           	MOVAI	0x01
                                           	MOVRA	_key_scan_flag_is_key_mode_hold_65536_41
                                           	GOTO	_00282_DS_
                                           ;;unsigned compare: left < lit(0x64=100), size=1
                                           _00274_DS_
                                           ;	.line	417; "MC32P7351.c"	if (press_cnt >= 100) // 1000ms1024ms
                                           	MOVAI	0x64
                                           	RSUBAR	_key_scan_press_cnt_65536_41
                                           	JBSET	PFLAG,0
                                           	GOTO	_00282_DS_
                                           ;;genSkipc:3291: created from rifx:013B5EFC
                                           ;	.line	419; "MC32P7351.c"	if (flag_is_key_mode_hold)
                                           	MOVAI	0x00
                                           	ORAR	_key_scan_flag_is_key_mode_hold_65536_41
                                           	JBSET	PFLAG,2
                                           	GOTO	_00282_DS_
                                           ;	.line	424; "MC32P7351.c"	key_event = KEY_EVENT_MODE_HOLD;
                                           	MOVAI	0x03
                                           	MOVRA	_key_event
                                           ;	.line	425; "MC32P7351.c"	flag_is_key_mode_hold = 1;
                                           	MOVAI	0x01
                                           	MOVRA	_key_scan_flag_is_key_mode_hold_65536_41
                                           _00282_DS_
                                           ;	.line	432; "MC32P7351.c"	last_key_id = cur_key_id;
                                           	MOVAR	_key_scan_cur_key_id_65536_41
                                           	MOVRA	_key_scan_last_key_id_65536_41
                                           _00283_DS_
                                           ;	.line	433; "MC32P7351.c"	}
                                           	RETURN	
                                           ; exit point of _key_scan
                                           
                                           ;***
                                           ;  pBlock Stats: dbName = C
                                           ;***
                                           ;entry:  _Sys_Init	;Function start
                                           ; 2 exit points
                                           ;has an exit
                                           ;functions called:
                                           ;   _CLR_RAM
                                           ;   _IO_Init
                                           ;   _timer0_pwm_config
                                           ;   _timer1_pwm_config
                                           ;   _timer2_pwm_config
                                           ;   _timer3_config
                                           ;   _key_config
                                           ;   _adc_config
                                           ;   _CLR_RAM
                                           ;   _IO_Init
                                           ;   _timer0_pwm_config
                                           ;   _timer1_pwm_config
                                           ;   _timer2_pwm_config
                                           ;   _timer3_config
                                           ;   _key_config
                                           ;   _adc_config
                                           ;; Starting pCode block
                                           _Sys_Init	;Function start
                                           ; 2 exit points
                                           ;	.line	276; "MC32P7351.c"	GIE = 0;
                                           	BCLR	_MCRbits,7
                                           ;	.line	277; "MC32P7351.c"	CLR_RAM();
                                           	CALL	_CLR_RAM
                                           ;	.line	278; "MC32P7351.c"	IO_Init();
                                           	CALL	_IO_Init
                                           ;	.line	280; "MC32P7351.c"	LED_WORKING_OFF();
                                           	BSET	_IOP1bits,4
                                           ;	.line	281; "MC32P7351.c"	LED_FULL_CHARGE_OFF();
                                           	BSET	_IOP0bits,3
                                           ;	.line	282; "MC32P7351.c"	LED_CHARGING_OFF();
                                           	BSET	_IOP0bits,4
                                           ;	.line	284; "MC32P7351.c"	timer0_pwm_config();
                                           	CALL	_timer0_pwm_config
                                           ;	.line	285; "MC32P7351.c"	timer1_pwm_config();
                                           	CALL	_timer1_pwm_config
                                           ;	.line	286; "MC32P7351.c"	timer2_pwm_config();
                                           	CALL	_timer2_pwm_config
                                           ;	.line	288; "MC32P7351.c"	timer3_config();
                                           	CALL	_timer3_config
                                           ;	.line	290; "MC32P7351.c"	key_config();
                                           	CALL	_key_config
                                           ;	.line	291; "MC32P7351.c"	adc_config();
                                           	CALL	_adc_config
                                           ;	.line	293; "MC32P7351.c"	GIE = 1;
                                           	BSET	_MCRbits,7
                                           ;	.line	294; "MC32P7351.c"	}
                                           	RETURN	
                                           ; exit point of _Sys_Init
                                           
                                           ;***
                                           ;  pBlock Stats: dbName = C
                                           ;***
                                           ;entry:  _adc_get_val_once	;Function start
                                           ; 2 exit points
                                           ;has an exit
                                           ;7 compiler assigned registers:
                                           ;   r0x104A
                                           ;   r0x104B
                                           ;   r0x104C
                                           ;   r0x104D
                                           ;   r0x104E
                                           ;   r0x104F
                                           ;   STK00
                                           ;; Starting pCode block
                                           _adc_get_val_once	;Function start
                                           ; 2 exit points
                                           ;	.line	237; "MC32P7351.c"	ADEOC = 0; // ADCAD
                                           	BCLR	_ADCR0bits,1
                                           _00228_DS_
                                           ;	.line	238; "MC32P7351.c"	while (!ADEOC)
                                           	JBSET	_ADCR0bits,1
                                           	GOTO	_00228_DS_
                                           ;	.line	240; "MC32P7351.c"	g_temp_value = ADRH; // 
                                           	MOVAR	_ADRH
                                           	MOVRA	r0x104A
                                           	CLRR	r0x104B
                                           ;	.line	241; "MC32P7351.c"	g_temp_value = g_temp_value << 4 | (ADRL & 0x0F);
                                           	SWAPAR	r0x104B
                                           	ANDAI	0xf0
                                           	MOVRA	r0x104C
                                           	SWAPAR	r0x104A
                                           	MOVRA	r0x104D
                                           	ANDAI	0x0f
                                           	ORRA	r0x104C
                                           	XORRA	r0x104D
                                           	MOVAR	_ADRL
                                           	MOVRA	r0x104A
                                           	CLRR	r0x104B
                                           	MOVAI	0x0f
                                           	ANDRA	r0x104A
                                           	CLRR	r0x104B
                                           ;;101	MOVAR	r0x104A
                                           ;;99	MOVRA	r0x104E
                                           ;;104	MOVAR	r0x104B
                                           ;;102	MOVRA	r0x104F
                                           ;;100	MOVAR	r0x104E
                                           	MOVAR	r0x104A
                                           	ORRA	r0x104D
                                           ;;103	MOVAR	r0x104F
                                           	MOVAI	0x00
                                           	ORRA	r0x104C
                                           ;	.line	265; "MC32P7351.c"	return g_temp_value;
                                           	MOVAR	r0x104D
                                           	MOVRA	STK00
                                           	MOVAR	r0x104C
                                           ;	.line	266; "MC32P7351.c"	}
                                           	RETURN	
                                           ; exit point of _adc_get_val_once
                                           
                                           ;***
                                           ;  pBlock Stats: dbName = C
                                           ;***
                                           ;entry:  _adc_get_val	;Function start
                                           ; 2 exit points
                                           ;has an exit
                                           ;16 compiler assigned registers:
                                           ;   r0x104A
                                           ;   r0x104B
                                           ;   r0x104C
                                           ;   r0x104D
                                           ;   r0x104E
                                           ;   r0x104F
                                           ;   r0x1050
                                           ;   r0x1051
                                           ;   r0x1052
                                           ;   r0x1053
                                           ;   r0x1054
                                           ;   r0x1055
                                           ;   r0x1056
                                           ;   r0x1057
                                           ;   r0x1058
                                           ;   STK00
                                           ;; Starting pCode block
                                           _adc_get_val	;Function start
                                           ; 2 exit points
                                           ;	.line	184; "MC32P7351.c"	u32 g_tmpbuff = 0;
                                           	CLRR	r0x104A
                                           	CLRR	r0x104B
                                           	CLRR	r0x104C
                                           	CLRR	r0x104D
                                           ;	.line	185; "MC32P7351.c"	u16 g_adcmax = 0;
                                           	CLRR	r0x104E
                                           	CLRR	r0x104F
                                           ;	.line	186; "MC32P7351.c"	u16 g_adcmin = 0xFFFF;
                                           	MOVAI	0xff
                                           	MOVRA	r0x1050
                                           	MOVRA	r0x1051
                                           ;	.line	189; "MC32P7351.c"	for (i = 0; i < 20; i++)
                                           	CLRR	r0x1052
                                           _00182_DS_
                                           ;	.line	191; "MC32P7351.c"	ADEOC = 0; // ADCAD
                                           	BCLR	_ADCR0bits,1
                                           _00171_DS_
                                           ;	.line	192; "MC32P7351.c"	while (!ADEOC)
                                           	JBSET	_ADCR0bits,1
                                           	GOTO	_00171_DS_
                                           ;	.line	194; "MC32P7351.c"	g_temp_value = ADRH; // 
                                           	MOVAR	_ADRH
                                           	MOVRA	r0x1053
                                           	CLRR	r0x1054
                                           ;	.line	195; "MC32P7351.c"	g_temp_value = g_temp_value << 4 | (ADRL & 0x0F);
                                           	SWAPAR	r0x1054
                                           	ANDAI	0xf0
                                           	MOVRA	r0x1055
                                           	SWAPAR	r0x1053
                                           	MOVRA	r0x1056
                                           	ANDAI	0x0f
                                           	ORRA	r0x1055
                                           	XORRA	r0x1056
                                           	MOVAR	_ADRL
                                           	MOVRA	r0x1053
                                           	CLRR	r0x1054
                                           	MOVAI	0x0f
                                           	ANDRA	r0x1053
                                           	CLRR	r0x1054
                                           ;;120	MOVAR	r0x1053
                                           	MOVAI	0x00
                                           	MOVRA	r0x1058
                                           ;;119	MOVAR	r0x1057
                                           	MOVAR	r0x1053
                                           	MOVRA	r0x1057
                                           	ORAR	r0x1056
                                           	MOVRA	r0x1053
                                           	MOVAR	r0x1058
                                           	ORAR	r0x1055
                                           	MOVRA	r0x1054
                                           ;;unsigned compare: left < lit(0x2=2), size=1
                                           ;	.line	196; "MC32P7351.c"	if (i < 2)
                                           	MOVAI	0x02
                                           	RSUBAR	r0x1052
                                           	JBSET	PFLAG,0
                                           	GOTO	_00180_DS_
                                           ;;genSkipc:3291: created from rifx:013B5EFC
                                           ;	.line	198; "MC32P7351.c"	if (g_temp_value > g_adcmax)
                                           	MOVAR	r0x1054
                                           	RSUBAR	r0x104F
                                           	JBSET	PFLAG,2
                                           	GOTO	_00222_DS_
                                           	MOVAR	r0x1053
                                           	RSUBAR	r0x104E
                                           _00222_DS_
                                           	JBCLR	PFLAG,0
                                           	GOTO	_00177_DS_
                                           ;;genSkipc:3291: created from rifx:013B5EFC
                                           ;	.line	199; "MC32P7351.c"	g_adcmax = g_temp_value; // 
                                           	MOVAR	r0x1053
                                           	MOVRA	r0x104E
                                           	MOVAR	r0x1054
                                           	MOVRA	r0x104F
                                           _00177_DS_
                                           ;	.line	200; "MC32P7351.c"	if (g_temp_value < g_adcmin)
                                           	MOVAR	r0x1051
                                           	RSUBAR	r0x1054
                                           	JBSET	PFLAG,2
                                           	GOTO	_00223_DS_
                                           	MOVAR	r0x1050
                                           	RSUBAR	r0x1053
                                           _00223_DS_
                                           	JBCLR	PFLAG,0
                                           	GOTO	_00179_DS_
                                           ;;genSkipc:3291: created from rifx:013B5EFC
                                           ;	.line	201; "MC32P7351.c"	g_adcmin = g_temp_value; // 
                                           	MOVAR	r0x1053
                                           	MOVRA	r0x1050
                                           	MOVAR	r0x1054
                                           	MOVRA	r0x1051
                                           ;;116	MOVAR	r0x1053
                                           ;;118	MOVAR	r0x1054
                                           _00179_DS_
                                           ;	.line	202; "MC32P7351.c"	g_tmpbuff += g_temp_value;
                                           	CLRR	r0x1057
                                           	CLRR	r0x1058
                                           ;;115	MOVAR	r0x1056
                                           	MOVAR	r0x1053
                                           	MOVRA	r0x1056
                                           	ADDRA	r0x104A
                                           ;;117	MOVAR	r0x1055
                                           	MOVAR	r0x1054
                                           	MOVRA	r0x1055
                                           	JBCLR	PFLAG,0
                                           	JZAR	r0x1055
                                           	ADDRA	r0x104B
                                           	MOVAR	r0x1057
                                           	JBCLR	PFLAG,0
                                           	JZAR	r0x1057
                                           	ADDRA	r0x104C
                                           	MOVAR	r0x1058
                                           	JBCLR	PFLAG,0
                                           	JZAR	r0x1058
                                           	ADDRA	r0x104D
                                           _00180_DS_
                                           ;	.line	189; "MC32P7351.c"	for (i = 0; i < 20; i++)
                                           	INCR	r0x1052
                                           ;;unsigned compare: left < lit(0x14=20), size=1
                                           	MOVAI	0x14
                                           	RSUBAR	r0x1052
                                           	JBSET	PFLAG,0
                                           	GOTO	_00182_DS_
                                           ;;genSkipc:3291: created from rifx:013B5EFC
                                           ;;114	MOVAR	r0x104E
                                           ;	.line	204; "MC32P7351.c"	g_tmpbuff -= g_adcmax;           // 
                                           	MOVAR	r0x104F
                                           	MOVRA	r0x1053
                                           	CLRR	r0x1054
                                           	CLRR	r0x1056
                                           ;;113	MOVAR	r0x1052
                                           	MOVAR	r0x104E
                                           	MOVRA	r0x1052
                                           	RSUBAR	r0x104A
                                           	MOVRA	r0x104E
                                           	MOVAR	r0x104B
                                           	MOVRA	r0x104F
                                           	MOVAR	r0x1053
                                           	JBSET	PFLAG,0
                                           	JZAR	r0x1053
                                           	RSUBRA	r0x104F
                                           	MOVAR	r0x104C
                                           	MOVRA	r0x1055
                                           	MOVAR	r0x1054
                                           	JBSET	PFLAG,0
                                           	JZAR	r0x1054
                                           	RSUBRA	r0x1055
                                           	MOVAR	r0x1056
                                           	JBSET	PFLAG,0
                                           	INCAR	r0x1056
                                           	RSUBAR	r0x104D
                                           	MOVRA	r0x1057
                                           ;;106	MOVAR	r0x1050
                                           ;;108	MOVAR	r0x1051
                                           ;	.line	205; "MC32P7351.c"	g_tmpbuff -= g_adcmin;           // 
                                           	CLRR	r0x104C
                                           	CLRR	r0x104D
                                           ;;105	MOVAR	r0x104A
                                           	MOVAR	r0x1050
                                           	MOVRA	r0x104A
                                           	RSUBRA	r0x104E
                                           ;;107	MOVAR	r0x104B
                                           	MOVAR	r0x1051
                                           	MOVRA	r0x104B
                                           	JBSET	PFLAG,0
                                           	JZAR	r0x104B
                                           	RSUBRA	r0x104F
                                           	MOVAR	r0x104C
                                           	JBSET	PFLAG,0
                                           	JZAR	r0x104C
                                           	RSUBRA	r0x1055
                                           	MOVAR	r0x104D
                                           	JBSET	PFLAG,0
                                           	JZAR	r0x104D
                                           	RSUBRA	r0x1057
                                           ;	.line	206; "MC32P7351.c"	g_temp_value = (g_tmpbuff >> 4); // 16
                                           	SWAPAR	r0x104E
                                           	ANDAI	0x0f
                                           	MOVRA	r0x104A
                                           	SWAPAR	r0x104F
                                           	MOVRA	r0x104B
                                           	ANDAI	0xf0
                                           	ORRA	r0x104A
                                           	XORRA	r0x104B
                                           	SWAPAR	r0x1055
                                           	MOVRA	r0x104C
                                           	ANDAI	0xf0
                                           	ORRA	r0x104B
                                           	XORRA	r0x104C
                                           	SWAPAR	r0x1057
                                           	MOVRA	r0x104D
                                           	ANDAI	0xf0
                                           	ORRA	r0x104C
                                           	XORRA	r0x104D
                                           ;;110	MOVAR	r0x104A
                                           ;;112	MOVAR	r0x104B
                                           ;;109	MOVAR	r0x104E
                                           ;	.line	230; "MC32P7351.c"	return g_temp_value;
                                           	MOVAR	r0x104A
                                           	MOVRA	r0x104E
                                           	MOVRA	STK00
                                           ;;111	MOVAR	r0x104F
                                           	MOVAR	r0x104B
                                           	MOVRA	r0x104F
                                           ;	.line	231; "MC32P7351.c"	}
                                           	RETURN	
                                           ; exit point of _adc_get_val
                                           
                                           ;***
                                           ;  pBlock Stats: dbName = C
                                           ;***
                                           ;entry:  _adc_sel_pin	;Function start
                                           ; 2 exit points
                                           ;has an exit
                                           ;functions called:
                                           ;   _delay_ms
                                           ;   _delay_ms
                                           ;2 compiler assigned registers:
                                           ;   r0x1050
                                           ;   STK00
                                           ;; Starting pCode block
                                           _adc_sel_pin	;Function start
                                           ; 2 exit points
                                           ;	.line	145; "MC32P7351.c"	void adc_sel_pin(u8 adc_pin)
                                           	MOVRA	r0x1050
                                           ;	.line	148; "MC32P7351.c"	switch (adc_pin)
                                           	MOVAR	r0x1050
                                           	XORAI	0x01
                                           	JBSET	PFLAG,2
                                           	GOTO	_00165_DS_
                                           	GOTO	_00151_DS_
                                           _00165_DS_
                                           	MOVAR	r0x1050
                                           	XORAI	0x02
                                           	JBSET	PFLAG,2
                                           	GOTO	_00166_DS_
                                           	GOTO	_00152_DS_
                                           _00166_DS_
                                           	GOTO	_00154_DS_
                                           _00151_DS_
                                           ;	.line	151; "MC32P7351.c"	ADCR0 &= ~(0x0F << 4); // 
                                           	MOVAI	0x0f
                                           	ANDRA	_ADCR0
                                           ;	.line	159; "MC32P7351.c"	break;
                                           	GOTO	_00154_DS_
                                           _00152_DS_
                                           ;	.line	162; "MC32P7351.c"	ADCR0 &= ~(0x0F << 4); // 
                                           	MOVAI	0x0f
                                           	ANDRA	_ADCR0
                                           ;	.line	163; "MC32P7351.c"	ADCR0 |= 0x01 << 4;    // AIN1--P02;
                                           	BSET	_ADCR0,4
                                           _00154_DS_
                                           ;	.line	176; "MC32P7351.c"	delay_ms(1); // adcadc
                                           	MOVAI	0x01
                                           	MOVRA	STK00
                                           	MOVAI	0x00
                                           	CALL	_delay_ms
                                           ;	.line	177; "MC32P7351.c"	}
                                           	RETURN	
                                           ; exit point of _adc_sel_pin
                                           
                                           ;***
                                           ;  pBlock Stats: dbName = C
                                           ;***
                                           ;entry:  _key_config	;Function start
                                           ; 2 exit points
                                           ;has an exit
                                           ;; Starting pCode block
                                           _key_config	;Function start
                                           ; 2 exit points
                                           ;	.line	136; "MC32P7351.c"	P11PU = 1; // 
                                           	BSET	_PUP1bits,1
                                           ;	.line	137; "MC32P7351.c"	P11OE = 0; // 
                                           	BCLR	_OEP1bits,1
                                           ;	.line	140; "MC32P7351.c"	P01PU = 1; // 
                                           	BSET	_PUP0bits,1
                                           ;	.line	141; "MC32P7351.c"	P01OE = 0; // 
                                           	BCLR	_OEP0bits,1
                                           ;	.line	142; "MC32P7351.c"	}
                                           	RETURN	
                                           ; exit point of _key_config
                                           
                                           ;***
                                           ;  pBlock Stats: dbName = C
                                           ;***
                                           ;entry:  _timer3_config	;Function start
                                           ; 2 exit points
                                           ;has an exit
                                           ;; Starting pCode block
                                           _timer3_config	;Function start
                                           ; 2 exit points
                                           ;	.line	127; "MC32P7351.c"	T3LOAD = 25 - 1; //
                                           	MOVAI	0x18
                                           	MOVRA	_T3LOAD
                                           ;	.line	128; "MC32P7351.c"	T3CR = 0x85;     // FCPU32
                                           	MOVAI	0x85
                                           	MOVRA	_T3CR
                                           ;	.line	129; "MC32P7351.c"	T3IE = 1;
                                           	BSET	_INTEbits,7
                                           ;	.line	130; "MC32P7351.c"	}
                                           	RETURN	
                                           ; exit point of _timer3_config
                                           
                                           ;***
                                           ;  pBlock Stats: dbName = C
                                           ;***
                                           ;entry:  _timer2_pwm_config	;Function start
                                           ; 2 exit points
                                           ;has an exit
                                           ;; Starting pCode block
                                           _timer2_pwm_config	;Function start
                                           ; 2 exit points
                                           ;	.line	107; "MC32P7351.c"	T2CKS0 = 1;
                                           	BSET	_T2CRbits,3
                                           ;	.line	108; "MC32P7351.c"	T2CKS1 = 0;
                                           	BCLR	_T2CRbits,4
                                           ;	.line	110; "MC32P7351.c"	TMRCKS0 = 0;
                                           	BCLR	_PWMCR1bits,3
                                           ;	.line	111; "MC32P7351.c"	TMRCKS1 = 1;
                                           	BSET	_PWMCR1bits,4
                                           ;	.line	113; "MC32P7351.c"	T2LOAD = 209; //
                                           	MOVAI	0xd1
                                           	MOVRA	_T2LOAD
                                           ;	.line	114; "MC32P7351.c"	T2DATA = 0;
                                           	CLRR	_T2DATA
                                           ;	.line	115; "MC32P7351.c"	PWM2EC = 0; // PWM
                                           	BCLR	_T2CRbits,6
                                           ;	.line	117; "MC32P7351.c"	T2EN = 1;
                                           	BSET	_T2CRbits,7
                                           ;	.line	118; "MC32P7351.c"	}
                                           	RETURN	
                                           ; exit point of _timer2_pwm_config
                                           
                                           ;***
                                           ;  pBlock Stats: dbName = C
                                           ;***
                                           ;entry:  _timer1_pwm_config	;Function start
                                           ; 2 exit points
                                           ;has an exit
                                           ;; Starting pCode block
                                           _timer1_pwm_config	;Function start
                                           ; 2 exit points
                                           ;	.line	96; "MC32P7351.c"	T1LOAD = 172 - 1;
                                           	MOVAI	0xab
                                           	MOVRA	_T1LOAD
                                           ;	.line	98; "MC32P7351.c"	PWM1EC = 0;  // PWM1
                                           	BCLR	_T1CRbits,6
                                           ;	.line	99; "MC32P7351.c"	T1CR = 0x81; // FCPU2
                                           	MOVAI	0x81
                                           	MOVRA	_T1CR
                                           ;	.line	100; "MC32P7351.c"	}
                                           	RETURN	
                                           ; exit point of _timer1_pwm_config
                                           
                                           ;***
                                           ;  pBlock Stats: dbName = C
                                           ;***
                                           ;entry:  _timer0_pwm_config	;Function start
                                           ; 2 exit points
                                           ;has an exit
                                           ;; Starting pCode block
                                           _timer0_pwm_config	;Function start
                                           ; 2 exit points
                                           ;	.line	83; "MC32P7351.c"	T0LOAD = 172 - 1;
                                           	MOVAI	0xab
                                           	MOVRA	_T0LOAD
                                           ;	.line	85; "MC32P7351.c"	PWM0EC = 0;  // PWM
                                           	BCLR	_T0CRbits,6
                                           ;	.line	86; "MC32P7351.c"	T0CR = 0x81; // FCPU2
                                           	MOVAI	0x81
                                           	MOVRA	_T0CR
                                           ;	.line	87; "MC32P7351.c"	}
                                           	RETURN	
                                           ; exit point of _timer0_pwm_config
                                           
                                           ;***
                                           ;  pBlock Stats: dbName = C
                                           ;***
                                           ;entry:  _adc_config	;Function start
                                           ; 2 exit points
                                           ;has an exit
                                           ;; Starting pCode block
                                           _adc_config	;Function start
                                           ; 2 exit points
                                           ;	.line	62; "MC32P7351.c"	P00OE = 0; // 
                                           	BCLR	_OEP0bits,0
                                           ;	.line	63; "MC32P7351.c"	P00DC = 1; // 
                                           	BSET	_ADIOS0bits,0
                                           ;	.line	66; "MC32P7351.c"	P02OE = 0; // 
                                           	BCLR	_OEP0bits,2
                                           ;	.line	67; "MC32P7351.c"	P02DC = 1; // 
                                           	BSET	_ADIOS0bits,1
                                           ;	.line	69; "MC32P7351.c"	ADCR0 = 0x0A; // 12ADCADC
                                           	MOVAI	0x0a
                                           	MOVRA	_ADCR0
                                           ;	.line	70; "MC32P7351.c"	ADCR1 = 0xE1; // 125K  3V
                                           	MOVAI	0xe1
                                           	MOVRA	_ADCR1
                                           ;	.line	71; "MC32P7351.c"	ADCR2 = 0xFF; // ADC15ADC
                                           	MOVAI	0xff
                                           	MOVRA	_ADCR2
                                           ;	.line	72; "MC32P7351.c"	ADEN = 1;     // ADC
                                           	BSET	_ADCR0bits,0
                                           ;	.line	73; "MC32P7351.c"	}
                                           	RETURN	
                                           ; exit point of _adc_config
                                           
                                           ;***
                                           ;  pBlock Stats: dbName = C
                                           ;***
                                           ;entry:  _IO_Init	;Function start
                                           ; 2 exit points
                                           ;has an exit
                                           ;; Starting pCode block
                                           _IO_Init	;Function start
                                           ; 2 exit points
                                           ;	.line	37; "MC32P7351.c"	IOP0 = 0x00;   // io
                                           	CLRR	_IOP0
                                           ;	.line	38; "MC32P7351.c"	OEP0 = 0x3F;   // io 1:out  0:in
                                           	MOVAI	0x3f
                                           	MOVRA	_OEP0
                                           ;	.line	39; "MC32P7351.c"	PUP0 = 0x00;   // io   1:enable  0:disable
                                           	CLRR	_PUP0
                                           ;	.line	40; "MC32P7351.c"	PDP0 = 0x00;   // io   1:enable  0:disable
                                           	CLRR	_PDP0
                                           ;	.line	41; "MC32P7351.c"	ADIOS0 = 0x00; // io  1:  0:io
                                           	CLRR	_ADIOS0
                                           ;	.line	43; "MC32P7351.c"	IOP1 = 0x00;   // io
                                           	CLRR	_IOP1
                                           ;	.line	44; "MC32P7351.c"	OEP1 = 0xFF;   // io 1:out  0:in
                                           	MOVAI	0xff
                                           	MOVRA	_OEP1
                                           ;	.line	45; "MC32P7351.c"	PUP1 = 0x00;   // io   1:enable  0:disable
                                           	CLRR	_PUP1
                                           ;	.line	46; "MC32P7351.c"	PDP1 = 0x00;   // io   1:enable  0:disable
                                           	CLRR	_PDP1
                                           ;	.line	47; "MC32P7351.c"	ADIOS1 = 0x00; // io  1:  0:io
                                           	CLRR	_ADIOS1
                                           ;	.line	54; "MC32P7351.c"	PMOD = 0x00;  // P00P01P13 io
                                           	CLRR	_PMOD
                                           ;	.line	55; "MC32P7351.c"	DRVCR = 0x80; // 
                                           	MOVAI	0x80
                                           	MOVRA	_DRVCR
                                           ;	.line	56; "MC32P7351.c"	}
                                           	RETURN	
                                           ; exit point of _IO_Init
                                           
                                           ;***
                                           ;  pBlock Stats: dbName = C
                                           ;***
                                           ;entry:  _CLR_RAM	;Function start
                                           ; 2 exit points
                                           ;has an exit
                                           ;; Starting pCode block
                                           _CLR_RAM	;Function start
                                           ; 2 exit points
                                           ;	.line	22; "MC32P7351.c"	for (FSR0 = 0; FSR0 < 0xff; FSR0++)
                                           	CLRR	_FSR0
                                           ;;unsigned compare: left < lit(0xFF=255), size=1
                                           _00118_DS_
                                           	MOVAI	0xff
                                           	RSUBAR	_FSR0
                                           	JBCLR	PFLAG,0
                                           	GOTO	_00116_DS_
                                           ;;genSkipc:3291: created from rifx:013B5EFC
                                           ;	.line	24; "MC32P7351.c"	INDF0 = 0x00;
                                           	CLRR	_INDF0
                                           ;	.line	22; "MC32P7351.c"	for (FSR0 = 0; FSR0 < 0xff; FSR0++)
                                           	INCR	_FSR0
                                           	GOTO	_00118_DS_
                                           _00116_DS_
                                           ;	.line	26; "MC32P7351.c"	FSR0 = 0xFF;
                                           	MOVAI	0xff
                                           	MOVRA	_FSR0
                                           ;	.line	27; "MC32P7351.c"	INDF0 = 0x00;
                                           	CLRR	_INDF0
                                           ;	.line	28; "MC32P7351.c"	}
                                           	RETURN	
                                           ; exit point of _CLR_RAM
                                           
                                           ;***
                                           ;  pBlock Stats: dbName = C
                                           ;***
                                           ;entry:  _delay_ms	;Function start
                                           ; 2 exit points
                                           ;has an exit
                                           ;7 compiler assigned registers:
                                           ;   r0x104A
                                           ;   STK00
                                           ;   r0x104B
                                           ;   r0x104C
                                           ;   r0x104D
                                           ;   r0x104E
                                           ;   r0x104F
                                           ;; Starting pCode block
                                           _delay_ms	;Function start
                                           ; 2 exit points
                                           ;	.line	363; "user.h"	void delay_ms(u16 xms)
                                           	MOVRA	r0x104A
                                           	MOVAR	STK00
                                           	MOVRA	r0x104B
                                           _00108_DS_
                                           ;	.line	365; "user.h"	while (xms)
                                           	MOVAR	r0x104B
                                           	ORAR	r0x104A
                                           	JBCLR	PFLAG,2
                                           	GOTO	_00111_DS_
                                           ;	.line	368; "user.h"	while (i--)
                                           	MOVAI	0x3c
                                           	MOVRA	r0x104C
                                           	MOVAI	0x02
                                           	MOVRA	r0x104D
                                           _00105_DS_
                                           	MOVAR	r0x104C
                                           	MOVRA	r0x104E
                                           	MOVAR	r0x104D
                                           	MOVRA	r0x104F
                                           	MOVAI	0xff
                                           	ADDRA	r0x104C
                                           	JBSET	PFLAG,0
                                           	DECR	r0x104D
                                           	MOVAR	r0x104E
                                           	ORAR	r0x104F
                                           	JBCLR	PFLAG,2
                                           	GOTO	_00107_DS_
                                           ;	.line	370; "user.h"	Nop();
                                           	nop	
                                           	GOTO	_00105_DS_
                                           _00107_DS_
                                           ;	.line	372; "user.h"	xms--; //  --while()
                                           	MOVAI	0xff
                                           	ADDRA	r0x104B
                                           	JBSET	PFLAG,0
                                           	DECR	r0x104A
                                           ;	.line	376; "user.h"	__endasm;
                                           	;
                                           	clrwdt;
                                           	
                                           	GOTO	_00108_DS_
                                           _00111_DS_
                                           ;	.line	378; "user.h"	}
                                           	RETURN	
                                           ; exit point of _delay_ms
                                           
                                           
                                           ;	code size estimation:
                                           ;	 1673+    0 =  1673 instructions ( 3346 byte)
                                           
                                           	end


MEMORY USAGE MAP ('X' = Used,  '-' = Unused)

0000 : XX-------------- XXXXXXXXXXXXXXXX XXXXXXXXXXXXXXXX XXXXXXXXXXXXXXXX
0040 : XXXXXXXXXXXXXXXX XXXXXXXXXXXXXXXX XXXXXXXXXXXXXXXX XXXXXXXXXXXXXXXX
0080 : XXXXXXXXXXXXXXXX XXXXXXXXXXXXXXXX XXXXXXXXXXXXXXXX XXXXXXXXXXXXXXXX
00C0 : XXXXXXXXXXXXXXXX XXXXXXXXXXXXXXXX XXXXXXXXXXXXXXXX XXXXXXXXXXXXXXXX
0100 : XXXXXXXXXXXXXXXX XXXXXXXXXXXXXXXX XXXXXXXXXXXXXXXX XXXXXXXXXXXXXXXX
0140 : XXXXXXXXXXXXXXXX XXXXXXXXXXXXXXXX XXXXXXXXXXXXXXXX XXXXXXXXXXXXXXXX
0180 : XXXXXXXXXXXXXXXX XXXXXXXXXXXXXXXX XXXXXXXXXXXXXXXX XXXXXXXXXXXXXXXX
01C0 : XXXXXXXXXXXXXXXX XXXXXXXXXXXXXXXX XXXXXXXXXXXXXXXX XXXXXXXXXXXXXXXX
0200 : XXXXXXXXXXXXXXXX XXXXXXXXXXXXXXXX XXXXXXXXXXXXXXXX XXXXXXXXXXXXXXXX
0240 : XXXXXXXXXXXXXXXX XXXXXXXXXXXXXXXX XXXXXXXXXXXXXXXX XXXXXXXXXXXXXXXX
0280 : XXXXXXXXXXXXXXXX XXXXXXXXXXXXXXXX XXXXXXXXXXXXXXXX XXXXXXXXXXXXXXXX
02C0 : XXXXXXXXXXXXXXXX XXXXXXXXXXXXXXXX XXXXXXXXXXXXXXXX XXXXXXXXXXXXXXXX
0300 : XXXXXXXXXXXXXXXX XXXXXXXXXXXXXXXX XXXXXXXXXXXXXXXX XXXXXXXXXXXXXXXX
0340 : XXXXXXXXXXXXXXXX XXXXXXXXXXXXXXXX XXXXXXXXXXXXXXXX XXXXXXXXXXXXXXXX
0380 : XXXXXXXXXXXXXXXX XXXXXXXXXXXXXXXX XXXXXXXXXXXXXXXX XXXXXXXXXXXXXXXX
03C0 : XXXXXXXXXXXXXXXX XXXXXXXXXXXXXXXX XXXXXXXXXXXXXXXX XXXXXXXXXXXXXXXX
0400 : XXXXXXXXXXXXXXXX XXXXXXXXXXXXXXXX XXXXXXXXXXXXXXXX XXXXXXXXXXXXXXXX
0440 : XXXXXXXXXXXXXXXX XXXXXXXXXXXXXXXX XXXXXXXXXXXXXXXX XXXXXXXXXXXXXXXX
0480 : XXXXXXXXXXXXXXXX XXXXXXXXXXXXXXXX XXXXXXXXXXXXXXXX XXXXXXXXXXXXXXXX
04C0 : XXXXXXXXXXXXXXXX XXXXXXXXXXXXXXXX XXXXXXXXXXXXXXXX XXXXXXXXXXXXXXXX
0500 : XXXXXXXXXXXXXXXX XXXXXXXXXXXXXXXX XXXXXXXXXXXXXXXX XXXXXXXXXXXXXXXX
0540 : XXXXXXXXXXXXXXXX XXXXXXXXXXXXXXXX XXXXXXXXXXXXXXXX XXXXXXXXXXXXXXXX
0580 : XXXXXXXXXXXXXXXX XXXXXXXXXXXXXXXX XXXXXXXXXXXXXXXX XXXXXXXXXXXXXXXX
05C0 : XXXXXXXXXXXXXXXX XXXXXXXXXXXXXXXX XXXXXXXXXXXXXXXX XXXXXXXXXXXXXXXX
0600 : XXXXXXXXXXXXXXXX XXXXXXXXXXXXXXXX XXXXXXXXXXXXXXXX XXXXXXXXXXXXXXXX
0640 : XXXXXXXXXXXXXXXX XXXXXXXXXXXXXXXX XXXXXXXXXXXXXXXX XXXXXXXXXXXXXXXX
0680 : XXXXXXXXXXXXXXXX XXXXXXXXXXXXXXXX XXXXXXXXXXXXXXXX XXXXXXXXXXXXXXXX
06C0 : XXXXXXXXXXXXXXXX XXXXXXXXXXXXXXXX XXXXXXXXXXXXXXXX XXXXXXXXXXXXXXXX
0700 : XXXXXXXXXXXXXXXX XXXXXXXXXXXXXXXX XXXXXXXXXXXXXXXX XXXXXXXXXXXXXXXX
0740 : XXXXXXXXXXXXXXXX XXXXXXXXXXXXXXXX XXXXXXXXXXXXXXXX XXXXXXXXXXXXXXXX
0780 : XXXXXXXXXXXXXXXX XXXXXXXXXXXXXXXX XXXXXXXXXXXXXXXX XXXXXXXXXXXXXXXX
07C0 : XXXXXXXXXXXXXXXX XXXXXXXXXXXXXXXX XXXXXXXXXXXXXXXX XXXXXXXXXXXXXXXX
0800 : XXXXXXXXXXXXXXXX XXXXXXXXXXXXXXXX XXXXXXXXXXXXXXXX XXXXXXXXXXXXXXXX
0840 : XXXXXXXXXXXXXXXX XXXXXXXXXXXXXXXX XXXXXXXXXXXXXXXX XXXXXXXXXXXXXXXX
0880 : XXXXXXXXXXXXXXXX XXXXXXXXXXXXXXXX XXXXXXXXXXXXXXXX XXXXXXXXXXXXXXXX
08C0 : XXXXXXXXXXXXXXXX XXXXXXXXXXXXXXXX XXXXXXXXXXXXXXXX XXXXXXXXXXXXXXXX
0900 : XXXXXXXXXXXXXXXX XXXXXXXXXXXXXXXX XXXXXXXXXXXXXXXX XXXXXXXXXXXXXXXX
0940 : XXXXXXXXXXXXXXXX XXXXXXXXXXXXXXXX XXXXXXXXXXXXXXXX XXXXXXXXXXXXXXXX
0980 : XXXXXXXXXXXXXXXX XXXXXXXXXXXXXXXX XXXXXXXXXXXXXXXX XXXXXXXXXXXXXXXX
09C0 : XXXXXXXXXXXXXXXX XXXXXXXXXXXXXXXX XXXXXXXXXXXXXXXX XXXXXXXXXXXXXXXX
0A00 : XXXXXXXXXXXXXXXX XXXXXXXXXXXXXXXX XXXXXXXXXXXXXXXX XXXXXXXXXXXXXXXX
0A40 : XXXXXXXXXXXXXXXX XXXXXXXXXXXXXXXX XXXXXXXXXXXXXXXX XXXXXXXXXXXXXXXX
0A80 : XXXXXXXXXXXXXXXX XXXXXXXXXXXXXXXX XXXXXXXXXXXXXXXX XXXXXXXXXXXXXXXX
0AC0 : XXXXXXXXXXXXXXXX XXXXXXXXXXXXXXXX XXXXXXXXXXXXXXXX XXXXXXXXXXXXXXXX
0B00 : XXXXXXXXXXXXXXXX XXXXXXXXXXXXXXXX XXXXXXXXXXXXXXXX XXXXXXXXXXXXXXXX
0B40 : XXXXXXXXXXXXXXXX XXXXXXXXXXXXXXXX XXXXXXXXXXXXXXXX XXXXXXXXXXXXXXXX
0B80 : XXXXXXXXXXXXXXXX XXXXXXXXXXXXXXXX XXXXXXXXXXXXXXXX XXXXXXXXXXXXXXXX
0BC0 : XXXXXXXXXXXXXXXX XXXXXXXXXXXXXXXX XXXXXXXXXXXXXXXX XXXXXXXXXXXXXXXX
0C00 : XXXXXXXXXXXXXXXX XXXXXXXXXXXXXXXX XXXXXXXXXXXXXXXX XXXXXXXXXXXXXXXX
0C40 : XXXXXXXXXXXXXXXX XXXXXXXXXXXXXXXX XXXXXXXXXXXXXXXX XXXXXXXXXXXXXXXX
0C80 : XXXXXXXXXXXXXXXX XXXXXXXXXXXXXXXX XXXXXXXXXXXXXXXX XXXXXXXXXXXXXXXX
0CC0 : XXXXXXXXXXXXXXXX XXXXXXXXXXXXXXXX XXXXXXXXXXXXXXXX XXXXXXXXXXXXXXXX
0D00 : XXXXXXXXXXXXXXXX XXXXXXXXXXXXXXXX XXXXXXXXXXXXXXXX XXXXXXXXXXXXXXXX
0D40 : XXXXXXXXXXXXXXXX XXXXXXXXXXXXXXXX XXXXXXXXXXXXXXXX XXXXXXXXXXXXXXXX
0D80 : XXXXXXXXXXXXXXXX XXXXXXXXXXXXXXXX XXXXXXXXXXXXXXXX XXXXXXXXXXXXXXXX
0DC0 : XXXXXXXXXXXXXXXX XXXXXXXXXXXXXXXX XXXXXXXXXXXXXXXX XXXXXXXXXXXXXXXX
0E00 : XXXXXXXXXXXXXXXX XXXXXXXXXXXXXXXX XXXXXXXXXXXXXXXX XXXXXXXXXXXXXXXX
0E40 : XXXXXXXXXXXXXXXX XXXXXXXXXXXXXXXX XXXXXXXXXXXXXXXX XXXXXXXXXXXXXXXX
0E80 : XXXXXXXXXXXXXXXX XXXXXXXXXXXXXXXX XXXXXXXXXXXXXXXX XXXXXXXXXXXXXXXX
0EC0 : XXXXXXXXXXXXXXXX XXXXXXXXXXXXXXXX XXXXXXXXXXXXXXXX XXXXXXXXXXXXXXXX
0F00 : XXXXXXXXXXXXXXXX XXXXXXXXXXXXXXXX XXXXXXXXXXXXXXXX XXXXXXXXXXXXXXXX
0F40 : XXXXXX---------- ---------------- ---------------- ----------------

All other memory blocks unused.

Program Memory Words Used:  1948

