gplink-2.2.37 (Jan 22 2024)
Listing File Generated: 2026-4-20  08:39:44
 
 
Address  Value    Disassembly              Source
-------  -----    -----------              ------
                                           ;--------------------------------------------------------
                                           ; external declarations
                                           ;--------------------------------------------------------
                                           	extern	__mullong
                                           	extern	__divulong
                                           	extern	_INDF0bits
                                           	extern	_INDF1bits
                                           	extern	_INDF2bits
                                           	extern	_HIBYTEbits
                                           	extern	_FSR0bits
                                           	extern	_FSR1bits
                                           	extern	_PCLbits
                                           	extern	_PFLAGbits
                                           	extern	_MCRbits
                                           	extern	_INDF3bits
                                           	extern	_INTEbits
                                           	extern	_INTFbits
                                           	extern	_DRVCRbits
                                           	extern	_PFRCCRbits
                                           	extern	_P1KBCRbits
                                           	extern	_PFRCCALbits
                                           	extern	_IOP0bits
                                           	extern	_OEP0bits
                                           	extern	_PUP0bits
                                           	extern	_PDP0bits
                                           	extern	_IOP1bits
                                           	extern	_OEP1bits
                                           	extern	_PUP1bits
                                           	extern	_PDP1bits
                                           	extern	_T0CRbits
                                           	extern	_T0CNTbits
                                           	extern	_T0LOADbits
                                           	extern	_T0DATAbits
                                           	extern	_T1CRbits
                                           	extern	_T1CNTbits
                                           	extern	_T1LOADbits
                                           	extern	_T1DATAbits
                                           	extern	_T2CRbits
                                           	extern	_T2CNTbits
                                           	extern	_T2LOADbits
                                           	extern	_T2DATAbits
                                           	extern	_T3CRbits
                                           	extern	_T3CNTbits
                                           	extern	_T3LOADbits
                                           	extern	_PWM0DRbits
                                           	extern	_PWM1DRbits
                                           	extern	_PWM2DRbits
                                           	extern	_PWMCR0bits
                                           	extern	_PWMCR1bits
                                           	extern	_OSCMRbits
                                           	extern	_LVDCRbits
                                           	extern	_ADCR0bits
                                           	extern	_ADCR1bits
                                           	extern	_ADCR2bits
                                           	extern	_OSADJCRbits
                                           	extern	_ADRHbits
                                           	extern	_ADRLbits
                                           	extern	_ADIOS0bits
                                           	extern	_ADIOS1bits
                                           	extern	_PMODbits
                                           	extern	_PWMCR3bits
                                           	extern	_PWMCR2bits
                                           	extern	_PFRCAUXbits
                                           	extern	_HIRCCALbits
                                           	extern	_INDF0
                                           	extern	_INDF1
                                           	extern	_INDF2
                                           	extern	_HIBYTE
                                           	extern	_FSR0
                                           	extern	_FSR1
                                           	extern	_PCL
                                           	extern	_PFLAG
                                           	extern	_MCR
                                           	extern	_INDF3
                                           	extern	_INTE
                                           	extern	_INTF
                                           	extern	_DRVCR
                                           	extern	_PFRCCR
                                           	extern	_P1KBCR
                                           	extern	_PFRCCAL
                                           	extern	_IOP0
                                           	extern	_OEP0
                                           	extern	_PUP0
                                           	extern	_PDP0
                                           	extern	_IOP1
                                           	extern	_OEP1
                                           	extern	_PUP1
                                           	extern	_PDP1
                                           	extern	_T0CR
                                           	extern	_T0CNT
                                           	extern	_T0LOAD
                                           	extern	_T0DATA
                                           	extern	_T1CR
                                           	extern	_T1CNT
                                           	extern	_T1LOAD
                                           	extern	_T1DATA
                                           	extern	_T2CR
                                           	extern	_T2CNT
                                           	extern	_T2LOAD
                                           	extern	_T2DATA
                                           	extern	_T3CR
                                           	extern	_T3CNT
                                           	extern	_T3LOAD
                                           	extern	_PWM0DR
                                           	extern	_PWM1DR
                                           	extern	_PWM2DR
                                           	extern	_PWMCR0
                                           	extern	_PWMCR1
                                           	extern	_OSCMR
                                           	extern	_LVDCR
                                           	extern	_ADCR0
                                           	extern	_ADCR1
                                           	extern	_ADCR2
                                           	extern	_OSADJCR
                                           	extern	_ADRH
                                           	extern	_ADRL
                                           	extern	_ADIOS0
                                           	extern	_ADIOS1
                                           	extern	_PMOD
                                           	extern	_PWMCR3
                                           	extern	_PWMCR2
                                           	extern	_PFRCAUX
                                           	extern	_HIRCCAL
                                           ;--------------------------------------------------------
                                           ; global declarations
                                           ;--------------------------------------------------------
                                           	global	_delay_ms
                                           	global	_CLR_RAM
                                           	global	_adc_config
                                           	global	_adc_sel_pin
                                           	global	_adc_get_val
                                           	global	_Sys_Init
                                           	global	_key_scan
                                           	global	_key_event_handle
                                           	global	_adc_scan_handle
                                           	global	_turn_dir_scan_handle
                                           	global	_shutdown_scan_handle
                                           	global	_low_power_scan_handle
                                           	global	_main
                                           	global	_int_isr
                                           	global	_key_event
                                           	global	_mode_flag
                                           	global	_key_press_flag
                                           	global	_i
                                           	global	_adc_val
                                           	global	_turn_dir_ms_cnt
                                           	global	_shut_down_ms_cnt
                                           	global	_adc_bat_val
                                           	global	_adc_charging_val
                                           	global	_max_pwm_val
                                           	global	_last_pwm_val
                                           	global	_tmp_val
                                           	global	_tmp_val_l
                                           	global	_tmp_val_cnt
                                           	global	_charge_time_cnt
                                           	global	_tmp_bat_val
                                           	global	_over_charging_cnt
                                           	global	_full_charge_cnt
                                           	global	_inflation_ctl_status
                                           	global	_abuf
                                           	global	_statusbuf
                                           	global	_flag1
                                           	global	_flag2
                                           	global	_flag3
                                           
                                           	global STK06
                                           	global STK05
                                           	global STK04
                                           	global STK03
                                           	global STK02
                                           	global STK01
                                           	global STK00
                                           
                                           sharebank udata_ovr 0x0000
                                           STK06	res 1
                                           STK05	res 1
                                           STK04	res 1
                                           STK03	res 1
                                           STK02	res 1
                                           STK01	res 1
                                           STK00	res 1
                                           
                                           ;--------------------------------------------------------
                                           ; global definitions
                                           ;--------------------------------------------------------
                                           UD_MC32P7351_0	udata
                                           _key_event	res	1
                                           
                                           UD_MC32P7351_1	udata
                                           _mode_flag	res	1
                                           
                                           UD_MC32P7351_2	udata
                                           _key_press_flag	res	1
                                           
                                           UD_MC32P7351_3	udata
                                           _i	res	1
                                           
                                           UD_MC32P7351_4	udata
                                           _adc_val	res	2
                                           
                                           UD_MC32P7351_5	udata
                                           _turn_dir_ms_cnt	res	4
                                           
                                           UD_MC32P7351_6	udata
                                           _shut_down_ms_cnt	res	4
                                           
                                           UD_MC32P7351_7	udata
                                           _adc_bat_val	res	4
                                           
                                           UD_MC32P7351_8	udata
                                           _adc_charging_val	res	2
                                           
                                           UD_MC32P7351_9	udata
                                           _max_pwm_val	res	4
                                           
                                           UD_MC32P7351_10	udata
                                           _last_pwm_val	res	2
                                           
                                           UD_MC32P7351_11	udata
                                           _tmp_val	res	2
                                           
                                           UD_MC32P7351_12	udata
                                           _tmp_val_l	res	16
                                           
                                           UD_MC32P7351_13	udata
                                           _tmp_val_cnt	res	1
                                           
                                           UD_MC32P7351_14	udata
                                           _charge_time_cnt	res	4
                                           
                                           UD_MC32P7351_15	udata
                                           _tmp_bat_val	res	2
                                           
                                           UD_MC32P7351_16	udata
                                           _over_charging_cnt	res	1
                                           
                                           UD_MC32P7351_17	udata
                                           _full_charge_cnt	res	1
                                           
                                           UD_MC32P7351_18	udata
                                           _inflation_ctl_status	res	1
                                           
                                           UD_MC32P7351_19	udata
                                           _abuf	res	1
                                           
                                           UD_MC32P7351_20	udata
                                           _statusbuf	res	1
                                           
                                           UD_MC32P7351_21	udata
                                           _flag1	res	1
                                           
                                           UD_MC32P7351_22	udata
                                           _flag2	res	1
                                           
                                           UD_MC32P7351_23	udata
                                           _flag3	res	1
                                           
                                           ;--------------------------------------------------------
                                           ; absolute symbol definitions
                                           ;--------------------------------------------------------
                                           ;--------------------------------------------------------
                                           ; compiler-defined variables
                                           ;--------------------------------------------------------
                                           UDL_MC32P7351_0	udata
                                           r0x1053	res	1
                                           r0x1052	res	1
                                           r0x1054	res	1
                                           r0x1055	res	1
                                           r0x1056	res	1
                                           r0x1057	res	1
                                           r0x1058	res	1
                                           r0x1059	res	1
                                           r0x105A	res	1
                                           r0x105B	res	1
                                           r0x105C	res	1
                                           r0x105E	res	1
                                           r0x105D	res	1
                                           r0x105F	res	1
                                           r0x1060	res	1
                                           r0x1061	res	1
                                           r0x1062	res	1
                                           r0x1064	res	1
                                           r0x1063	res	1
                                           r0x1065	res	1
                                           r0x1066	res	1
                                           r0x1067	res	1
                                           r0x1068	res	1
                                           r0x1069	res	1
                                           r0x106A	res	1
                                           r0x106B	res	1
                                           r0x106C	res	1
                                           _key_scan_cur_key_id_65536_31	res	1
                                           _key_scan_filter_cnt_65536_31	res	1
                                           _key_scan_filter_key_id_65536_31	res	1
                                           _key_scan_press_cnt_65536_31	res	1
                                           _key_scan_flag_is_key_mode_hold_65536_31	res	1
                                           _key_scan_last_key_id_65536_31	res	1
                                           _adc_scan_handle_cnt_65536_94	res	1
                                           _adc_scan_handle_need_charge_cnt_65536_94	res	1
                                           _int_isr___1ms_cnt_196608_228	res	1
                                           _int_isr_key_scan_cnt_327680_230	res	1
                                           _int_isr_low_bat_cnt_327680_233	res	2
                                           _int_isr_shut_down_bat_cnt_327680_237	res	2
                                           _int_isr_update_current_time_cnt_327680_241	res	2
                                           _int_isr_cnt_327680_245	res	2
                                           _int_isr_cnt_327680_247	res	2
                                           _led_state	res	1
                                           _pwm_counter	res	2
                                           _breath_counter	res	1
                                           _pwm_duty	res	1
                                           _breath_direction	res	1
                                           ;--------------------------------------------------------
                                           ; initialized data
                                           ;--------------------------------------------------------
                                           
                                           ;@Allocation info for local variables in function 'delay_ms'
                                           ;@delay_ms delay_ms                  Allocated to registers ;size:2
                                           ;@delay_ms INDF0bits                 Allocated to registers ;size:1
                                           ;@delay_ms INDF1bits                 Allocated to registers ;size:1
                                           ;@delay_ms INDF2bits                 Allocated to registers ;size:1
                                           ;@delay_ms HIBYTEbits                Allocated to registers ;size:1
                                           ;@delay_ms FSR0bits                  Allocated to registers ;size:1
                                           ;@delay_ms FSR1bits                  Allocated to registers ;size:1
                                           ;@delay_ms PCLbits                   Allocated to registers ;size:1
                                           ;@delay_ms PFLAGbits                 Allocated to registers ;size:1
                                           ;@delay_ms MCRbits                   Allocated to registers ;size:1
                                           ;@delay_ms INDF3bits                 Allocated to registers ;size:1
                                           ;@delay_ms INTEbits                  Allocated to registers ;size:1
                                           ;@delay_ms INTFbits                  Allocated to registers ;size:1
                                           ;@delay_ms DRVCRbits                 Allocated to registers ;size:1
                                           ;@delay_ms PFRCCRbits                Allocated to registers ;size:1
                                           ;@delay_ms P1KBCRbits                Allocated to registers ;size:1
                                           ;@delay_ms PFRCCALbits               Allocated to registers ;size:1
                                           ;@delay_ms IOP0bits                  Allocated to registers ;size:1
                                           ;@delay_ms OEP0bits                  Allocated to registers ;size:1
                                           ;@delay_ms PUP0bits                  Allocated to registers ;size:1
                                           ;@delay_ms PDP0bits                  Allocated to registers ;size:1
                                           ;@delay_ms IOP1bits                  Allocated to registers ;size:1
                                           ;@delay_ms OEP1bits                  Allocated to registers ;size:1
                                           ;@delay_ms PUP1bits                  Allocated to registers ;size:1
                                           ;@delay_ms PDP1bits                  Allocated to registers ;size:1
                                           ;@delay_ms T0CRbits                  Allocated to registers ;size:1
                                           ;@delay_ms T0CNTbits                 Allocated to registers ;size:1
                                           ;@delay_ms T0LOADbits                Allocated to registers ;size:1
                                           ;@delay_ms T0DATAbits                Allocated to registers ;size:1
                                           ;@delay_ms T1CRbits                  Allocated to registers ;size:1
                                           ;@delay_ms T1CNTbits                 Allocated to registers ;size:1
                                           ;@delay_ms T1LOADbits                Allocated to registers ;size:1
                                           ;@delay_ms T1DATAbits                Allocated to registers ;size:1
                                           ;@delay_ms T2CRbits                  Allocated to registers ;size:1
                                           ;@delay_ms T2CNTbits                 Allocated to registers ;size:1
                                           ;@delay_ms T2LOADbits                Allocated to registers ;size:1
                                           ;@delay_ms T2DATAbits                Allocated to registers ;size:1
                                           ;@delay_ms T3CRbits                  Allocated to registers ;size:1
                                           ;@delay_ms T3CNTbits                 Allocated to registers ;size:1
                                           ;@delay_ms T3LOADbits                Allocated to registers ;size:1
                                           ;@delay_ms PWM0DRbits                Allocated to registers ;size:1
                                           ;@delay_ms PWM1DRbits                Allocated to registers ;size:1
                                           ;@delay_ms PWM2DRbits                Allocated to registers ;size:1
                                           ;@delay_ms PWMCR0bits                Allocated to registers ;size:1
                                           ;@delay_ms PWMCR1bits                Allocated to registers ;size:1
                                           ;@delay_ms OSCMRbits                 Allocated to registers ;size:1
                                           ;@delay_ms LVDCRbits                 Allocated to registers ;size:1
                                           ;@delay_ms ADCR0bits                 Allocated to registers ;size:1
                                           ;@delay_ms ADCR1bits                 Allocated to registers ;size:1
                                           ;@delay_ms ADCR2bits                 Allocated to registers ;size:1
                                           ;@delay_ms OSADJCRbits               Allocated to registers ;size:1
                                           ;@delay_ms ADRHbits                  Allocated to registers ;size:1
                                           ;@delay_ms ADRLbits                  Allocated to registers ;size:1
                                           ;@delay_ms ADIOS0bits                Allocated to registers ;size:1
                                           ;@delay_ms ADIOS1bits                Allocated to registers ;size:1
                                           ;@delay_ms PMODbits                  Allocated to registers ;size:1
                                           ;@delay_ms PWMCR3bits                Allocated to registers ;size:1
                                           ;@delay_ms PWMCR2bits                Allocated to registers ;size:1
                                           ;@delay_ms PFRCAUXbits               Allocated to registers ;size:1
                                           ;@delay_ms HIRCCALbits               Allocated to registers ;size:1
                                           ;@delay_ms key_event                 Allocated to registers ;size:1
                                           ;@delay_ms mode_flag                 Allocated to registers ;size:1
                                           ;@delay_ms key_press_flag            Allocated to registers ;size:1
                                           ;@delay_ms i                         Allocated to registers ;size:1
                                           ;@delay_ms adc_val                   Allocated to registers ;size:2
                                           ;@delay_ms turn_dir_ms_cnt           Allocated to registers ;size:4
                                           ;@delay_ms shut_down_ms_cnt          Allocated to registers ;size:4
                                           ;@delay_ms adc_bat_val               Allocated to registers ;size:4
                                           ;@delay_ms adc_charging_val          Allocated to registers ;size:2
                                           ;@delay_ms max_pwm_val               Allocated to registers ;size:4
                                           ;@delay_ms last_pwm_val              Allocated to registers ;size:2
                                           ;@delay_ms tmp_val                   Allocated to registers ;size:2
                                           ;@delay_ms tmp_val_l                 Allocated to registers ;size:16
                                           ;@delay_ms tmp_val_cnt               Allocated to registers ;size:1
                                           ;@delay_ms charge_time_cnt           Allocated to registers ;size:4
                                           ;@delay_ms tmp_bat_val               Allocated to registers ;size:2
                                           ;@delay_ms over_charging_cnt         Allocated to registers ;size:1
                                           ;@delay_ms full_charge_cnt           Allocated to registers ;size:1
                                           ;@delay_ms inflation_ctl_status      Allocated to registers ;size:1
                                           ;@delay_ms pwm_duty                  Allocated to registers ;size:1
                                           ;@delay_ms pwm_counter               Allocated to registers ;size:2
                                           ;@delay_ms breath_counter            Allocated to registers ;size:1
                                           ;@delay_ms breath_direction          Allocated to registers ;size:1
                                           ;@delay_ms led_state                 Allocated to registers ;size:1
                                           ;@delay_ms abuf                      Allocated to registers ;size:1
                                           ;@delay_ms statusbuf                 Allocated to registers ;size:1
                                           ;@delay_ms flag1                     Allocated to registers ;size:1
                                           ;@delay_ms flag2                     Allocated to registers ;size:1
                                           ;@delay_ms flag3                     Allocated to registers ;size:1
                                           ;@delay_ms xms                       Allocated to registers ;size:2
                                           ;@delay_ms i                         Allocated to registers r0x1054 r0x1055 ;size:2
                                           ;@delay_ms INDF0                     Allocated to registers ;size:1
                                           ;@delay_ms INDF1                     Allocated to registers ;size:1
                                           ;@delay_ms INDF2                     Allocated to registers ;size:1
                                           ;@delay_ms HIBYTE                    Allocated to registers ;size:1
                                           ;@delay_ms FSR0                      Allocated to registers ;size:1
                                           ;@delay_ms FSR1                      Allocated to registers ;size:1
                                           ;@delay_ms PCL                       Allocated to registers ;size:1
                                           ;@delay_ms PFLAG                     Allocated to registers ;size:1
                                           ;@delay_ms MCR                       Allocated to registers ;size:1
                                           ;@delay_ms INDF3                     Allocated to registers ;size:1
                                           ;@delay_ms INTE                      Allocated to registers ;size:1
                                           ;@delay_ms INTF                      Allocated to registers ;size:1
                                           ;@delay_ms DRVCR                     Allocated to registers ;size:1
                                           ;@delay_ms PFRCCR                    Allocated to registers ;size:1
                                           ;@delay_ms P1KBCR                    Allocated to registers ;size:1
                                           ;@delay_ms PFRCCAL                   Allocated to registers ;size:1
                                           ;@delay_ms IOP0                      Allocated to registers ;size:1
                                           ;@delay_ms OEP0                      Allocated to registers ;size:1
                                           ;@delay_ms PUP0                      Allocated to registers ;size:1
                                           ;@delay_ms PDP0                      Allocated to registers ;size:1
                                           ;@delay_ms IOP1                      Allocated to registers ;size:1
                                           ;@delay_ms OEP1                      Allocated to registers ;size:1
                                           ;@delay_ms PUP1                      Allocated to registers ;size:1
                                           ;@delay_ms PDP1                      Allocated to registers ;size:1
                                           ;@delay_ms T0CR                      Allocated to registers ;size:1
                                           ;@delay_ms T0CNT                     Allocated to registers ;size:1
                                           ;@delay_ms T0LOAD                    Allocated to registers ;size:1
                                           ;@delay_ms T0DATA                    Allocated to registers ;size:1
                                           ;@delay_ms T1CR                      Allocated to registers ;size:1
                                           ;@delay_ms T1CNT                     Allocated to registers ;size:1
                                           ;@delay_ms T1LOAD                    Allocated to registers ;size:1
                                           ;@delay_ms T1DATA                    Allocated to registers ;size:1
                                           ;@delay_ms T2CR                      Allocated to registers ;size:1
                                           ;@delay_ms T2CNT                     Allocated to registers ;size:1
                                           ;@delay_ms T2LOAD                    Allocated to registers ;size:1
                                           ;@delay_ms T2DATA                    Allocated to registers ;size:1
                                           ;@delay_ms T3CR                      Allocated to registers ;size:1
                                           ;@delay_ms T3CNT                     Allocated to registers ;size:1
                                           ;@delay_ms T3LOAD                    Allocated to registers ;size:1
                                           ;@delay_ms PWM0DR                    Allocated to registers ;size:1
                                           ;@delay_ms PWM1DR                    Allocated to registers ;size:1
                                           ;@delay_ms PWM2DR                    Allocated to registers ;size:1
                                           ;@delay_ms PWMCR0                    Allocated to registers ;size:1
                                           ;@delay_ms PWMCR1                    Allocated to registers ;size:1
                                           ;@delay_ms OSCMR                     Allocated to registers ;size:1
                                           ;@delay_ms LVDCR                     Allocated to registers ;size:1
                                           ;@delay_ms ADCR0                     Allocated to registers ;size:1
                                           ;@delay_ms ADCR1                     Allocated to registers ;size:1
                                           ;@delay_ms ADCR2                     Allocated to registers ;size:1
                                           ;@delay_ms OSADJCR                   Allocated to registers ;size:1
                                           ;@delay_ms ADRH                      Allocated to registers ;size:1
                                           ;@delay_ms ADRL                      Allocated to registers ;size:1
                                           ;@delay_ms ADIOS0                    Allocated to registers ;size:1
                                           ;@delay_ms ADIOS1                    Allocated to registers ;size:1
                                           ;@delay_ms PMOD                      Allocated to registers ;size:1
                                           ;@delay_ms PWMCR3                    Allocated to registers ;size:1
                                           ;@delay_ms PWMCR2                    Allocated to registers ;size:1
                                           ;@delay_ms PFRCAUX                   Allocated to registers ;size:1
                                           ;@delay_ms HIRCCAL                   Allocated to registers ;size:1
                                           ;@end Allocation info for local variables in function 'delay_ms';
                                           ;@Allocation info for local variables in function 'CLR_RAM'
                                           ;@end Allocation info for local variables in function 'CLR_RAM';
                                           ;@Allocation info for local variables in function 'adc_config'
                                           ;@end Allocation info for local variables in function 'adc_config';
                                           ;@Allocation info for local variables in function 'adc_sel_pin'
                                           ;@adc_sel_pin adc_pin                   Allocated to registers r0x1058 ;size:1
                                           ;@end Allocation info for local variables in function 'adc_sel_pin';
                                           ;@Allocation info for local variables in function 'adc_get_val'
                                           ;@adc_get_val i                         Allocated to registers r0x105A ;size:1
                                           ;@adc_get_val g_temp_value              Allocated to registers r0x105B r0x105C ;size:2
                                           ;@adc_get_val g_tmpbuff                 Allocated to registers r0x1056 r0x1057 r0x105D r0x105F ;size:4
                                           ;@adc_get_val g_adcmax                  Allocated to registers r0x1056 r0x1057 ;size:2
                                           ;@adc_get_val g_adcmin                  Allocated to registers r0x1058 r0x1059 ;size:2
                                           ;@end Allocation info for local variables in function 'adc_get_val';
                                           ;@Allocation info for local variables in function 'Sys_Init'
                                           ;@end Allocation info for local variables in function 'Sys_Init';
                                           ;@Allocation info for local variables in function 'key_scan'
                                           ;@key_scan last_key_id               Allocated to registers ;size:1
                                           ;@key_scan press_cnt                 Allocated to registers ;size:1
                                           ;@key_scan filter_cnt                Allocated to registers ;size:1
                                           ;@key_scan filter_key_id             Allocated to registers ;size:1
                                           ;@key_scan cur_key_id                Allocated to registers ;size:1
                                           ;@key_scan flag_is_key_mode_hold     Allocated to registers ;size:1
                                           ;@end Allocation info for local variables in function 'key_scan';
                                           ;@Allocation info for local variables in function 'key_scan'
                                           ;@key_scan last_key_id               Allocated to registers ;size:1
                                           ;@key_scan press_cnt                 Allocated to registers ;size:1
                                           ;@key_scan filter_cnt                Allocated to registers ;size:1
                                           ;@key_scan filter_key_id             Allocated to registers ;size:1
                                           ;@key_scan cur_key_id                Allocated to registers ;size:1
                                           ;@key_scan flag_is_key_mode_hold     Allocated to registers ;size:1
                                           ;@end Allocation info for local variables in function 'key_scan';
                                           ;@Allocation info for local variables in function 'key_event_handle'
                                           ;@end Allocation info for local variables in function 'key_event_handle';
                                           ;@Allocation info for local variables in function 'adc_scan_handle'
                                           ;@adc_scan_handle cnt                       Allocated to registers ;size:1
                                           ;@adc_scan_handle need_charge_cnt           Allocated to registers ;size:1
                                           ;@end Allocation info for local variables in function 'adc_scan_handle';
                                           ;@Allocation info for local variables in function 'turn_dir_scan_handle'
                                           ;@end Allocation info for local variables in function 'turn_dir_scan_handle';
                                           ;@Allocation info for local variables in function 'shutdown_scan_handle'
                                           ;@end Allocation info for local variables in function 'shutdown_scan_handle';
                                           ;@Allocation info for local variables in function 'low_power_scan_handle'
                                           ;@end Allocation info for local variables in function 'low_power_scan_handle';
                                           ;@Allocation info for local variables in function 'main'
                                           ;@main i                         Allocated to registers r0x1061 ;size:1
                                           ;@main i                         Allocated to registers r0x1061 r0x1062 ;size:2
                                           ;@end Allocation info for local variables in function 'main';
                                           ;@Allocation info for local variables in function 'int_isr'
                                           ;@int_isr __1ms_cnt                 Allocated to registers ;size:1
                                           ;@int_isr key_scan_cnt              Allocated to registers ;size:1
                                           ;@int_isr low_bat_cnt               Allocated to registers ;size:2
                                           ;@int_isr shut_down_bat_cnt         Allocated to registers ;size:2
                                           ;@int_isr update_current_time_cnt   Allocated to registers ;size:2
                                           ;@int_isr cnt                       Allocated to registers ;size:2
                                           ;@int_isr cnt                       Allocated to registers ;size:2
                                           ;@end Allocation info for local variables in function 'int_isr';
                                           ;@Allocation info for local variables in function 'int_isr'
                                           ;@int_isr __1ms_cnt                 Allocated to registers ;size:1
                                           ;@int_isr key_scan_cnt              Allocated to registers ;size:1
                                           ;@int_isr low_bat_cnt               Allocated to registers ;size:2
                                           ;@int_isr shut_down_bat_cnt         Allocated to registers ;size:2
                                           ;@int_isr update_current_time_cnt   Allocated to registers ;size:2
                                           ;@int_isr cnt                       Allocated to registers ;size:2
                                           ;@int_isr cnt                       Allocated to registers ;size:2
                                           ;@end Allocation info for local variables in function 'int_isr';
                                           
                                           ;--------------------------------------------------------
                                           ; overlayable items in internal ram 
                                           ;--------------------------------------------------------
                                           ;	udata_ovr
                                           ;--------------------------------------------------------
                                           ; reset vector 
                                           ;--------------------------------------------------------
                                           STARTUP	code 0x0000
000000   a0f8     goto    0xf8             	goto	_main
                                           ;--------------------------------------------------------
                                           ; interrupt and initialization code
                                           ;--------------------------------------------------------
                                           c_interrupt	code	0x8
                                           __sdcc_interrupt
                                           ;***
                                           ;  pBlock Stats: dbName = I
                                           ;***
                                           ;entry:  _int_isr	;Function start
                                           ; 0 exit points
                                           ;functions called:
                                           ;   _key_scan
                                           ;   _key_scan
                                           ;2 compiler assigned registers:
                                           ;   r0x106B
                                           ;   r0x106C
                                           ;; Starting pCode block
                                           _int_isr	;Function start
                                           ; 0 exit points
                                           ;	.line	1271; "MC32P7351.c"	__endasm;
                                           	;
000008   5693     movra   0x93             	movra	_abuf;
000009   4587     swapar  0x187            	swapar	_PFLAG;
00000a   5694     movra   0x94             	movra	_statusbuf;
                                           	
                                           ;	.line	1278; "MC32P7351.c"	if (T3IF & T3IE)
00000b   7620     clrr    0x20             	CLRR	r0x106B
00000c   ff8b     jbclr   0x18b, 0x7       	JBCLR	_INTFbits,7
00000d   6620     incr    0x20             	INCR	r0x106B
00000e   7621     clrr    0x21             	CLRR	r0x106C
00000f   ff8a     jbclr   0x18a, 0x7       	JBCLR	_INTEbits,7
000010   6621     incr    0x21             	INCR	r0x106C
000011   5821     movar   0x21             	MOVAR	r0x106C
000012   7a20     andra   0x20             	ANDRA	r0x106B
000013   3c00     movai   0                	MOVAI	0x00
000014   5c20     orar    0x20             	ORAR	r0x106B
000015   f587     jbclr   0x187, 0x2       	JBCLR	PFLAG,2
000016   a0f3     goto    0xf3             	GOTO	_01052_DS_
                                           ;	.line	1282; "MC32P7351.c"	__1ms_cnt++;
000017   662a     incr    0x2a             	INCR	_int_isr___1ms_cnt_196608_228
                                           ;;unsigned compare: left < lit(0xA=10), size=1
                                           ;	.line	1283; "MC32P7351.c"	if (__1ms_cnt >= 10)
000018   3c0a     movai   0xa              	MOVAI	0x0a
000019   482a     rsubar  0x2a             	RSUBAR	_int_isr___1ms_cnt_196608_228
00001a   e187     jbset   0x187, 0         	JBSET	PFLAG,0
00001b   a0ad     goto    0xad             	GOTO	_01028_DS_
                                           ;;genSkipc:3291: created from rifx:013B5EFC
                                           ;	.line	1285; "MC32P7351.c"	__1ms_cnt = 0;
00001c   762a     clrr    0x2a             	CLRR	_int_isr___1ms_cnt_196608_228
                                           ;	.line	1289; "MC32P7351.c"	key_scan_cnt++;
00001d   662b     incr    0x2b             	INCR	_int_isr_key_scan_cnt_327680_230
                                           ;;unsigned compare: left < lit(0xA=10), size=1
                                           ;	.line	1290; "MC32P7351.c"	if (key_scan_cnt >= 10)
00001e   3c0a     movai   0xa              	MOVAI	0x0a
00001f   482b     rsubar  0x2b             	RSUBAR	_int_isr_key_scan_cnt_327680_230
000020   e187     jbset   0x187, 0         	JBSET	PFLAG,0
000021   a024     goto    0x24             	GOTO	_01001_DS_
                                           ;;genSkipc:3291: created from rifx:013B5EFC
                                           ;	.line	1292; "MC32P7351.c"	key_scan_cnt = 0;
000022   762b     clrr    0x2b             	CLRR	_int_isr_key_scan_cnt_327680_230
                                           ;	.line	1293; "MC32P7351.c"	key_scan();
000023   855e     call    0x55e            	CALL	_key_scan
                                           _01001_DS_
                                           ;	.line	1297; "MC32P7351.c"	if (FLAG_IS_DEVICE_OPEN)
000024   e095     jbset   0x95, 0          	JBSET	_flag1,0
000025   a034     goto    0x34             	GOTO	_01003_DS_
                                           ;	.line	1299; "MC32P7351.c"	turn_dir_ms_cnt++;  // »áÔÚ turn_dir_scan_handle() ÄÚ´¦Ŕí˛˘ÇĺÁă
000026   666d     incr    0x6d             	INCR	_turn_dir_ms_cnt
000027   f587     jbclr   0x187, 0x2       	JBCLR	PFLAG,2
000028   666e     incr    0x6e             	INCR	(_turn_dir_ms_cnt + 1)
000029   f587     jbclr   0x187, 0x2       	JBCLR	PFLAG,2
00002a   666f     incr    0x6f             	INCR	(_turn_dir_ms_cnt + 2)
00002b   f587     jbclr   0x187, 0x2       	JBCLR	PFLAG,2
00002c   6670     incr    0x70             	INCR	(_turn_dir_ms_cnt + 3)
                                           ;	.line	1300; "MC32P7351.c"	shut_down_ms_cnt++; // »áÔÚ shutdown_scan_handle() ÄÚ´¦Ŕí˛˘ÇĺÁă
00002d   6671     incr    0x71             	INCR	_shut_down_ms_cnt
00002e   f587     jbclr   0x187, 0x2       	JBCLR	PFLAG,2
00002f   6672     incr    0x72             	INCR	(_shut_down_ms_cnt + 1)
000030   f587     jbclr   0x187, 0x2       	JBCLR	PFLAG,2
000031   6673     incr    0x73             	INCR	(_shut_down_ms_cnt + 2)
000032   f587     jbclr   0x187, 0x2       	JBCLR	PFLAG,2
000033   6674     incr    0x74             	INCR	(_shut_down_ms_cnt + 3)
                                           _01003_DS_
                                           ;	.line	1307; "MC32P7351.c"	if (flag_maybe_low_battery)
000034   e497     jbset   0x97, 0x2        	JBSET	_flag3,2
000035   a045     goto    0x45             	GOTO	_01007_DS_
                                           ;	.line	1309; "MC32P7351.c"	low_bat_cnt++;
000036   662c     incr    0x2c             	INCR	_int_isr_low_bat_cnt_327680_233
000037   f587     jbclr   0x187, 0x2       	JBCLR	PFLAG,2
000038   662d     incr    0x2d             	INCR	(_int_isr_low_bat_cnt_327680_233 + 1)
                                           ;;unsigned compare: left < lit(0x1388=5000), size=2
                                           ;	.line	1311; "MC32P7351.c"	if (low_bat_cnt >= 5000) // xx ms
000039   3c13     movai   0x13             	MOVAI	0x13
00003a   482d     rsubar  0x2d             	RSUBAR	(_int_isr_low_bat_cnt_327680_233 + 1)
00003b   e587     jbset   0x187, 0x2       	JBSET	PFLAG,2
00003c   a03f     goto    0x3f             	GOTO	_01149_DS_
00003d   3c88     movai   0x88             	MOVAI	0x88
00003e   482c     rsubar  0x2c             	RSUBAR	_int_isr_low_bat_cnt_327680_233
                                           _01149_DS_
00003f   e187     jbset   0x187, 0         	JBSET	PFLAG,0
000040   a047     goto    0x47             	GOTO	_01008_DS_
                                           ;;genSkipc:3291: created from rifx:013B5EFC
                                           ;	.line	1313; "MC32P7351.c"	low_bat_cnt = 0;
000041   762c     clrr    0x2c             	CLRR	_int_isr_low_bat_cnt_327680_233
000042   762d     clrr    0x2d             	CLRR	(_int_isr_low_bat_cnt_327680_233 + 1)
                                           ;	.line	1314; "MC32P7351.c"	flag_is_low_battery = 1;
000043   c496     bset    0x96, 0x2        	BSET	_flag2,2
000044   a047     goto    0x47             	GOTO	_01008_DS_
                                           _01007_DS_
                                           ;	.line	1319; "MC32P7351.c"	low_bat_cnt = 0;
000045   762c     clrr    0x2c             	CLRR	_int_isr_low_bat_cnt_327680_233
000046   762d     clrr    0x2d             	CLRR	(_int_isr_low_bat_cnt_327680_233 + 1)
                                           _01008_DS_
                                           ;	.line	1325; "MC32P7351.c"	if (flag_tim_scan_maybe_shut_down)
000047   e697     jbset   0x97, 0x3        	JBSET	_flag3,3
000048   a058     goto    0x58             	GOTO	_01012_DS_
                                           ;	.line	1327; "MC32P7351.c"	shut_down_bat_cnt++;
000049   662e     incr    0x2e             	INCR	_int_isr_shut_down_bat_cnt_327680_237
00004a   f587     jbclr   0x187, 0x2       	JBCLR	PFLAG,2
00004b   662f     incr    0x2f             	INCR	(_int_isr_shut_down_bat_cnt_327680_237 + 1)
                                           ;;unsigned compare: left < lit(0x3E8=1000), size=2
                                           ;	.line	1328; "MC32P7351.c"	if (shut_down_bat_cnt >= 1000) // xx ms
00004c   3c03     movai   0x3              	MOVAI	0x03
00004d   482f     rsubar  0x2f             	RSUBAR	(_int_isr_shut_down_bat_cnt_327680_237 + 1)
00004e   e587     jbset   0x187, 0x2       	JBSET	PFLAG,2
00004f   a052     goto    0x52             	GOTO	_01150_DS_
000050   3ce8     movai   0xe8             	MOVAI	0xe8
000051   482e     rsubar  0x2e             	RSUBAR	_int_isr_shut_down_bat_cnt_327680_237
                                           _01150_DS_
000052   e187     jbset   0x187, 0         	JBSET	PFLAG,0
000053   a05a     goto    0x5a             	GOTO	_01013_DS_
                                           ;;genSkipc:3291: created from rifx:013B5EFC
                                           ;	.line	1330; "MC32P7351.c"	shut_down_bat_cnt = 0;
000054   762e     clrr    0x2e             	CLRR	_int_isr_shut_down_bat_cnt_327680_237
000055   762f     clrr    0x2f             	CLRR	(_int_isr_shut_down_bat_cnt_327680_237 + 1)
                                           ;	.line	1331; "MC32P7351.c"	flag_is_needed_shut_down = 1;
000056   c897     bset    0x97, 0x4        	BSET	_flag3,4
000057   a05a     goto    0x5a             	GOTO	_01013_DS_
                                           _01012_DS_
                                           ;	.line	1336; "MC32P7351.c"	shut_down_bat_cnt = 0;
000058   762e     clrr    0x2e             	CLRR	_int_isr_shut_down_bat_cnt_327680_237
000059   762f     clrr    0x2f             	CLRR	(_int_isr_shut_down_bat_cnt_327680_237 + 1)
                                           _01013_DS_
                                           ;	.line	1343; "MC32P7351.c"	if (FLAG_IS_IN_CHARGING)
00005a   e495     jbset   0x95, 0x2        	JBSET	_flag1,2
00005b   a072     goto    0x72             	GOTO	_01017_DS_
                                           ;	.line	1345; "MC32P7351.c"	update_current_time_cnt++;
00005c   6630     incr    0x30             	INCR	_int_isr_update_current_time_cnt_327680_241
00005d   f587     jbclr   0x187, 0x2       	JBCLR	PFLAG,2
00005e   6631     incr    0x31             	INCR	(_int_isr_update_current_time_cnt_327680_241 + 1)
                                           ;;unsigned compare: left < lit(0x1F4=500), size=2
                                           ;	.line	1346; "MC32P7351.c"	if (update_current_time_cnt >= 500)
00005f   3c01     movai   0x1              	MOVAI	0x01
000060   4831     rsubar  0x31             	RSUBAR	(_int_isr_update_current_time_cnt_327680_241 + 1)
000061   e587     jbset   0x187, 0x2       	JBSET	PFLAG,2
000062   a065     goto    0x65             	GOTO	_01151_DS_
000063   3cf4     movai   0xf4             	MOVAI	0xf4
000064   4830     rsubar  0x30             	RSUBAR	_int_isr_update_current_time_cnt_327680_241
                                           _01151_DS_
000065   e187     jbset   0x187, 0         	JBSET	PFLAG,0
000066   a06a     goto    0x6a             	GOTO	_01015_DS_
                                           ;;genSkipc:3291: created from rifx:013B5EFC
                                           ;	.line	1348; "MC32P7351.c"	update_current_time_cnt = 0;
000067   7630     clrr    0x30             	CLRR	_int_isr_update_current_time_cnt_327680_241
000068   7631     clrr    0x31             	CLRR	(_int_isr_update_current_time_cnt_327680_241 + 1)
                                           ;	.line	1349; "MC32P7351.c"	flag_is_update_current = 1;
000069   ca97     bset    0x97, 0x5        	BSET	_flag3,5
                                           _01015_DS_
                                           ;	.line	1352; "MC32P7351.c"	charge_time_cnt++;
00006a   667d     incr    0x7d             	INCR	_charge_time_cnt
00006b   f587     jbclr   0x187, 0x2       	JBCLR	PFLAG,2
00006c   667e     incr    0x7e             	INCR	(_charge_time_cnt + 1)
00006d   f587     jbclr   0x187, 0x2       	JBCLR	PFLAG,2
00006e   667f     incr    0x7f             	INCR	(_charge_time_cnt + 2)
00006f   f587     jbclr   0x187, 0x2       	JBCLR	PFLAG,2
000070   6680     incr    0x80             	INCR	(_charge_time_cnt + 3)
000071   a076     goto    0x76             	GOTO	_01018_DS_
                                           _01017_DS_
                                           ;	.line	1356; "MC32P7351.c"	charge_time_cnt = 0;
000072   767d     clrr    0x7d             	CLRR	_charge_time_cnt
000073   767e     clrr    0x7e             	CLRR	(_charge_time_cnt + 1)
000074   767f     clrr    0x7f             	CLRR	(_charge_time_cnt + 2)
000075   7680     clrr    0x80             	CLRR	(_charge_time_cnt + 3)
                                           _01018_DS_
                                           ;	.line	1367; "MC32P7351.c"	cnt++;
000076   6632     incr    0x32             	INCR	_int_isr_cnt_327680_245
000077   f587     jbclr   0x187, 0x2       	JBCLR	PFLAG,2
000078   6633     incr    0x33             	INCR	(_int_isr_cnt_327680_245 + 1)
                                           ;;swapping arguments (AOP_TYPEs 1/3)
                                           ;;unsigned compare: left >= lit(0x1F5=501), size=2
                                           ;	.line	1368; "MC32P7351.c"	if (cnt > 500)
000079   3c01     movai   0x1              	MOVAI	0x01
00007a   4833     rsubar  0x33             	RSUBAR	(_int_isr_cnt_327680_245 + 1)
00007b   e587     jbset   0x187, 0x2       	JBSET	PFLAG,2
00007c   a07f     goto    0x7f             	GOTO	_01152_DS_
00007d   3cf5     movai   0xf5             	MOVAI	0xf5
00007e   4832     rsubar  0x32             	RSUBAR	_int_isr_cnt_327680_245
                                           _01152_DS_
00007f   e187     jbset   0x187, 0         	JBSET	PFLAG,0
000080   a084     goto    0x84             	GOTO	_01020_DS_
                                           ;;genSkipc:3291: created from rifx:013B5EFC
                                           ;	.line	1370; "MC32P7351.c"	cnt = 0;
000081   7632     clrr    0x32             	CLRR	_int_isr_cnt_327680_245
000082   7633     clrr    0x33             	CLRR	(_int_isr_cnt_327680_245 + 1)
                                           ;	.line	1371; "MC32P7351.c"	flag_is_adjust_pwm_time_comes = 1;
000083   cc97     bset    0x97, 0x6        	BSET	_flag3,6
                                           _01020_DS_
                                           ;	.line	1377; "MC32P7351.c"	cnt++;
000084   6634     incr    0x34             	INCR	_int_isr_cnt_327680_247
000085   f587     jbclr   0x187, 0x2       	JBCLR	PFLAG,2
000086   6635     incr    0x35             	INCR	(_int_isr_cnt_327680_247 + 1)
                                           ;	.line	1378; "MC32P7351.c"	switch (inflation_ctl_status)
000087   5892     movar   0x92             	MOVAR	_inflation_ctl_status
000088   5620     movra   0x20             	MOVRA	r0x106B
                                           ;;swapping arguments (AOP_TYPEs 1/2)
                                           ;;unsigned compare: left >= lit(0x3=3), size=1
000089   3c03     movai   0x3              	MOVAI	0x03
00008a   4820     rsubar  0x20             	RSUBAR	r0x106B
00008b   f187     jbclr   0x187, 0         	JBCLR	PFLAG,0
00008c   a0a4     goto    0xa4             	GOTO	_01024_DS_
                                           ;;genSkipc:3291: created from rifx:013B5EFC
00008d   5820     movar   0x20             	MOVAR	r0x106B
00008e   7f86     addra   0x186            	ADDRA	PCL
00008f   a092     goto    0x92             	GOTO	_01021_DS_
000090   a097     goto    0x97             	GOTO	_01022_DS_
000091   a09e     goto    0x9e             	GOTO	_01023_DS_
                                           _01021_DS_
                                           ;	.line	1382; "MC32P7351.c"	cnt = 0;
000092   7634     clrr    0x34             	CLRR	_int_isr_cnt_327680_247
000093   7635     clrr    0x35             	CLRR	(_int_isr_cnt_327680_247 + 1)
                                           ;	.line	1383; "MC32P7351.c"	INFLATION_CTL_OFF();
000094   d790     bclr    0x190, 0x3       	BCLR	_IOP0bits,3
                                           ;	.line	1384; "MC32P7351.c"	DEFLATION_CTL_OFF();
000095   d794     bclr    0x194, 0x3       	BCLR	_IOP1bits,3
                                           ;	.line	1386; "MC32P7351.c"	break;
000096   a0a4     goto    0xa4             	GOTO	_01024_DS_
                                           _01022_DS_
                                           ;	.line	1391; "MC32P7351.c"	cnt = 0;
000097   7634     clrr    0x34             	CLRR	_int_isr_cnt_327680_247
000098   7635     clrr    0x35             	CLRR	(_int_isr_cnt_327680_247 + 1)
                                           ;	.line	1392; "MC32P7351.c"	DEFLATION_CTL_OFF();
000099   d794     bclr    0x194, 0x3       	BCLR	_IOP1bits,3
                                           ;	.line	1393; "MC32P7351.c"	INFLATION_CTL_ON();
00009a   c790     bset    0x190, 0x3       	BSET	_IOP0bits,3
                                           ;	.line	1394; "MC32P7351.c"	inflation_ctl_status = INFLATION_CTL_STATUS_INFLATION_HANDLING;
00009b   3c03     movai   0x3              	MOVAI	0x03
00009c   5692     movra   0x92             	MOVRA	_inflation_ctl_status
                                           ;	.line	1396; "MC32P7351.c"	break;
00009d   a0a4     goto    0xa4             	GOTO	_01024_DS_
                                           _01023_DS_
                                           ;	.line	1401; "MC32P7351.c"	cnt = 0;
00009e   7634     clrr    0x34             	CLRR	_int_isr_cnt_327680_247
00009f   7635     clrr    0x35             	CLRR	(_int_isr_cnt_327680_247 + 1)
                                           ;	.line	1402; "MC32P7351.c"	INFLATION_CTL_OFF();
0000a0   d790     bclr    0x190, 0x3       	BCLR	_IOP0bits,3
                                           ;	.line	1403; "MC32P7351.c"	DEFLATION_CTL_ON();
0000a1   c794     bset    0x194, 0x3       	BSET	_IOP1bits,3
                                           ;	.line	1404; "MC32P7351.c"	inflation_ctl_status = INFLATION_CTL_STATUS_DEFLATION_HANDLING;
0000a2   3c04     movai   0x4              	MOVAI	0x04
0000a3   5692     movra   0x92             	MOVRA	_inflation_ctl_status
                                           ;;unsigned compare: left < lit(0x3A98=15000), size=2
                                           _01024_DS_
                                           ;	.line	1410; "MC32P7351.c"	if (cnt >= (u16)15000)
0000a4   3c3a     movai   0x3a             	MOVAI	0x3a
0000a5   4835     rsubar  0x35             	RSUBAR	(_int_isr_cnt_327680_247 + 1)
0000a6   e587     jbset   0x187, 0x2       	JBSET	PFLAG,2
0000a7   a0aa     goto    0xaa             	GOTO	_01155_DS_
0000a8   3c98     movai   0x98             	MOVAI	0x98
0000a9   4834     rsubar  0x34             	RSUBAR	_int_isr_cnt_327680_247
                                           _01155_DS_
0000aa   e187     jbset   0x187, 0         	JBSET	PFLAG,0
0000ab   a0ad     goto    0xad             	GOTO	_01028_DS_
                                           ;;genSkipc:3291: created from rifx:013B5EFC
                                           ;	.line	1412; "MC32P7351.c"	inflation_ctl_status = INFLATION_CTL_STATUS_NONE;
0000ac   7692     clrr    0x92             	CLRR	_inflation_ctl_status
                                           _01028_DS_
                                           ;	.line	1419; "MC32P7351.c"	if (FLAG_IS_IN_CHARGING && 0 == FLAG_BAT_IS_FULL && 0 == flag_is_led_breath_disable)
0000ad   e495     jbset   0x95, 0x2        	JBSET	_flag1,2
0000ae   a0f2     goto    0xf2             	GOTO	_01048_DS_
0000af   fa95     jbclr   0x95, 0x5        	JBCLR	_flag1,5
0000b0   a0f2     goto    0xf2             	GOTO	_01048_DS_
0000b1   fe95     jbclr   0x95, 0x7        	JBCLR	_flag1,7
0000b2   a0f2     goto    0xf2             	GOTO	_01048_DS_
                                           ;	.line	1422; "MC32P7351.c"	if (pwm_counter < pwm_duty)
0000b3   583a     movar   0x3a             	MOVAR	_pwm_duty
0000b4   5620     movra   0x20             	MOVRA	r0x106B
0000b5   7621     clrr    0x21             	CLRR	r0x106C
0000b6   3c00     movai   0                	MOVAI	0x00
0000b7   4838     rsubar  0x38             	RSUBAR	(_pwm_counter + 1)
0000b8   e587     jbset   0x187, 0x2       	JBSET	PFLAG,2
0000b9   a0bc     goto    0xbc             	GOTO	_01156_DS_
0000ba   5820     movar   0x20             	MOVAR	r0x106B
0000bb   4837     rsubar  0x37             	RSUBAR	_pwm_counter
                                           _01156_DS_
0000bc   f187     jbclr   0x187, 0         	JBCLR	PFLAG,0
0000bd   a0c1     goto    0xc1             	GOTO	_01030_DS_
                                           ;;genSkipc:3291: created from rifx:013B5EFC
                                           ;	.line	1424; "MC32P7351.c"	led_state = 1; // LEDÁÁ
0000be   3c01     movai   0x1              	MOVAI	0x01
0000bf   5636     movra   0x36             	MOVRA	_led_state
0000c0   a0c2     goto    0xc2             	GOTO	_01031_DS_
                                           _01030_DS_
                                           ;	.line	1428; "MC32P7351.c"	led_state = 0; // LEDĂđ
0000c1   7636     clrr    0x36             	CLRR	_led_state
                                           _01031_DS_
                                           ;	.line	1432; "MC32P7351.c"	pwm_counter++;
0000c2   6637     incr    0x37             	INCR	_pwm_counter
0000c3   f587     jbclr   0x187, 0x2       	JBCLR	PFLAG,2
0000c4   6638     incr    0x38             	INCR	(_pwm_counter + 1)
                                           ;;unsigned compare: left < lit(0x64=100), size=2
                                           ;	.line	1433; "MC32P7351.c"	if (pwm_counter >= PWM_MAX_LEVEL)
0000c5   3c00     movai   0                	MOVAI	0x00
0000c6   4838     rsubar  0x38             	RSUBAR	(_pwm_counter + 1)
0000c7   e587     jbset   0x187, 0x2       	JBSET	PFLAG,2
0000c8   a0cb     goto    0xcb             	GOTO	_01157_DS_
0000c9   3c64     movai   0x64             	MOVAI	0x64
0000ca   4837     rsubar  0x37             	RSUBAR	_pwm_counter
                                           _01157_DS_
0000cb   e187     jbset   0x187, 0         	JBSET	PFLAG,0
0000cc   a0cf     goto    0xcf             	GOTO	_01033_DS_
                                           ;;genSkipc:3291: created from rifx:013B5EFC
                                           ;	.line	1435; "MC32P7351.c"	pwm_counter = 0;
0000cd   7637     clrr    0x37             	CLRR	_pwm_counter
0000ce   7638     clrr    0x38             	CLRR	(_pwm_counter + 1)
                                           _01033_DS_
                                           ;	.line	1439; "MC32P7351.c"	breath_counter++;
0000cf   6639     incr    0x39             	INCR	_breath_counter
                                           ;;unsigned compare: left < lit(0xC8=200), size=1
                                           ;	.line	1440; "MC32P7351.c"	if (breath_counter >= BREATH_PERIOD)
0000d0   3cc8     movai   0xc8             	MOVAI	0xc8
0000d1   4839     rsubar  0x39             	RSUBAR	_breath_counter
0000d2   e187     jbset   0x187, 0         	JBSET	PFLAG,0
0000d3   a0eb     goto    0xeb             	GOTO	_01043_DS_
                                           ;;genSkipc:3291: created from rifx:013B5EFC
                                           ;	.line	1442; "MC32P7351.c"	breath_counter = 0;
0000d4   7639     clrr    0x39             	CLRR	_breath_counter
                                           ;	.line	1445; "MC32P7351.c"	if (breath_direction == 0)
0000d5   3c00     movai   0                	MOVAI	0x00
0000d6   5c3b     orar    0x3b             	ORAR	_breath_direction
0000d7   e587     jbset   0x187, 0x2       	JBSET	PFLAG,2
0000d8   a0e3     goto    0xe3             	GOTO	_01040_DS_
                                           ;	.line	1448; "MC32P7351.c"	pwm_duty++;
0000d9   663a     incr    0x3a             	INCR	_pwm_duty
                                           ;;unsigned compare: left < lit(0x64=100), size=1
                                           ;	.line	1449; "MC32P7351.c"	if (pwm_duty >= PWM_MAX_LEVEL)
0000da   3c64     movai   0x64             	MOVAI	0x64
0000db   483a     rsubar  0x3a             	RSUBAR	_pwm_duty
0000dc   e187     jbset   0x187, 0         	JBSET	PFLAG,0
0000dd   a0eb     goto    0xeb             	GOTO	_01043_DS_
                                           ;;genSkipc:3291: created from rifx:013B5EFC
                                           ;	.line	1451; "MC32P7351.c"	pwm_duty = PWM_MAX_LEVEL;
0000de   3c64     movai   0x64             	MOVAI	0x64
0000df   563a     movra   0x3a             	MOVRA	_pwm_duty
                                           ;	.line	1452; "MC32P7351.c"	breath_direction = 1; // ÇĐ»»µ˝˝Ą°µ
0000e0   3c01     movai   0x1              	MOVAI	0x01
0000e1   563b     movra   0x3b             	MOVRA	_breath_direction
0000e2   a0eb     goto    0xeb             	GOTO	_01043_DS_
                                           _01040_DS_
                                           ;	.line	1458; "MC32P7351.c"	if (pwm_duty > 0)
0000e3   3c00     movai   0                	MOVAI	0x00
0000e4   5c3a     orar    0x3a             	ORAR	_pwm_duty
0000e5   f587     jbclr   0x187, 0x2       	JBCLR	PFLAG,2
0000e6   a0e9     goto    0xe9             	GOTO	_01037_DS_
                                           ;	.line	1460; "MC32P7351.c"	pwm_duty--;
0000e7   6e3a     decr    0x3a             	DECR	_pwm_duty
0000e8   a0eb     goto    0xeb             	GOTO	_01043_DS_
                                           _01037_DS_
                                           ;	.line	1464; "MC32P7351.c"	pwm_duty = 0;
0000e9   763a     clrr    0x3a             	CLRR	_pwm_duty
                                           ;	.line	1465; "MC32P7351.c"	breath_direction = 0; // ÇĐ»»µ˝˝ĄÁÁ
0000ea   763b     clrr    0x3b             	CLRR	_breath_direction
                                           _01043_DS_
                                           ;	.line	1472; "MC32P7351.c"	if (led_state)
0000eb   3c00     movai   0                	MOVAI	0x00
0000ec   5c36     orar    0x36             	ORAR	_led_state
0000ed   f587     jbclr   0x187, 0x2       	JBCLR	PFLAG,2
0000ee   a0f1     goto    0xf1             	GOTO	_01045_DS_
                                           ;	.line	1474; "MC32P7351.c"	LED_CHARGING_PIN = LED_ON;
0000ef   d990     bclr    0x190, 0x4       	BCLR	_IOP0bits,4
0000f0   a0f2     goto    0xf2             	GOTO	_01048_DS_
                                           _01045_DS_
                                           ;	.line	1478; "MC32P7351.c"	LED_CHARGING_PIN = LED_OFF;
0000f1   c990     bset    0x190, 0x4       	BSET	_IOP0bits,4
                                           _01048_DS_
                                           ;	.line	1482; "MC32P7351.c"	T3IF = 0;
0000f2   df8b     bclr    0x18b, 0x7       	BCLR	_INTFbits,7
                                           _01052_DS_
                                           ;	.line	1490; "MC32P7351.c"	__endasm;
                                           	;
0000f3   4494     swapar  0x94             	swapar	_statusbuf;
0000f4   5787     movra   0x187            	movra	_PFLAG;
0000f5   4693     swapr   0x93             	swapr	_abuf;
0000f6   4493     swapar  0x93             	swapar	_abuf;
                                           	
                                           END_OF_INTERRUPT
                                           ;	.line	1491; "MC32P7351.c"	}
0000f7   000d     retie                    	RETIE	
                                           
                                           ;--------------------------------------------------------
                                           ; code
                                           ;--------------------------------------------------------
                                           code_MC32P7351	code
                                           ;***
                                           ;  pBlock Stats: dbName = M
                                           ;***
                                           ;entry:  _main	;Function start
                                           ; 2 exit points
                                           ;has an exit
                                           ;functions called:
                                           ;   _Sys_Init
                                           ;   _adc_sel_pin
                                           ;   _adc_get_val
                                           ;   _delay_ms
                                           ;   _delay_ms
                                           ;   _key_event_handle
                                           ;   _adc_scan_handle
                                           ;   _turn_dir_scan_handle
                                           ;   _shutdown_scan_handle
                                           ;   __mullong
                                           ;   __divulong
                                           ;   __mullong
                                           ;   __mullong
                                           ;   __divulong
                                           ;   __divulong
                                           ;   _key_event_handle
                                           ;   _delay_ms
                                           ;   _key_event_handle
                                           ;   _delay_ms
                                           ;   _low_power_scan_handle
                                           ;   _Sys_Init
                                           ;   _adc_sel_pin
                                           ;   _adc_get_val
                                           ;   _delay_ms
                                           ;   _delay_ms
                                           ;   _key_event_handle
                                           ;   _adc_scan_handle
                                           ;   _turn_dir_scan_handle
                                           ;   _shutdown_scan_handle
                                           ;   __mullong
                                           ;   __divulong
                                           ;   __mullong
                                           ;   __mullong
                                           ;   __divulong
                                           ;   __divulong
                                           ;   _key_event_handle
                                           ;   _delay_ms
                                           ;   _key_event_handle
                                           ;   _delay_ms
                                           ;   _low_power_scan_handle
                                           ;17 compiler assigned registers:
                                           ;   STK00
                                           ;   r0x1061
                                           ;   r0x1062
                                           ;   STK06
                                           ;   STK05
                                           ;   STK04
                                           ;   STK03
                                           ;   STK02
                                           ;   STK01
                                           ;   r0x1063
                                           ;   r0x1064
                                           ;   r0x1065
                                           ;   r0x1066
                                           ;   r0x1067
                                           ;   r0x1068
                                           ;   r0x1069
                                           ;   r0x106A
                                           ;; Starting pCode block
                                           _main	;Function start
                                           ; 2 exit points
                                           ;	.line	989; "MC32P7351.c"	Sys_Init();
0000f8   85c9     call    0x5c9            	CALL	_Sys_Init
                                           ;	.line	996; "MC32P7351.c"	PWM2EC = 1; // ´ňżŞżŘÖĆÉýŃąµçÂ·µÄpwm
0000f9   cda0     bset    0x1a0, 0x6       	BSET	_T2CRbits,6
                                           ;	.line	997; "MC32P7351.c"	T2DATA = 100;
0000fa   3c64     movai   0x64             	MOVAI	0x64
0000fb   57a3     movra   0x1a3            	MOVRA	_T2DATA
                                           ;	.line	998; "MC32P7351.c"	adc_sel_pin(ADC_PIN_P02_AN1); // ÇĐ»»µ˝Ľě˛âµçłŘ˝µŃąşóµÄµçŃąµÄĽě˛âŇý˝Ĺ
0000fc   3c02     movai   0x2              	MOVAI	0x02
0000fd   869f     call    0x69f            	CALL	_adc_sel_pin
                                           ;	.line	999; "MC32P7351.c"	for (i = 0; i < 10; i++)      // Ăż55ms˝řČëŇ»´ÎŁ¬Ń­»·ÄÚĂż´ÎĽä¸ôÔĽ4.8ms
0000fe   768e     clrr    0x8e             	CLRR	_i
                                           ;;unsigned compare: left < lit(0xA=10), size=1
                                           _00854_DS_
0000ff   3c0a     movai   0xa              	MOVAI	0x0a
000100   488e     rsubar  0x8e             	RSUBAR	_i
000101   f187     jbclr   0x187, 0         	JBCLR	PFLAG,0
000102   a112     goto    0x112            	GOTO	_00802_DS_
                                           ;;genSkipc:3291: created from rifx:013B5EFC
                                           ;	.line	1001; "MC32P7351.c"	adc_val = adc_get_val();
000103   8602     call    0x602            	CALL	_adc_get_val
000104   5682     movra   0x82             	MOVRA	(_adc_val + 1)
000105   5806     movar   0x6              	MOVAR	STK00
000106   5681     movra   0x81             	MOVRA	_adc_val
                                           ;;unsigned compare: left < lit(0xF52=3922), size=2
                                           ;	.line	1002; "MC32P7351.c"	if (adc_val >= ADCDETECT_BAT_FULL + ADCDETECT_BAT_NULL_EX)
000107   3c0f     movai   0xf              	MOVAI	0x0f
000108   4882     rsubar  0x82             	RSUBAR	(_adc_val + 1)
000109   e587     jbset   0x187, 0x2       	JBSET	PFLAG,2
00010a   a10d     goto    0x10d            	GOTO	_00982_DS_
00010b   3c52     movai   0x52             	MOVAI	0x52
00010c   4881     rsubar  0x81             	RSUBAR	_adc_val
                                           _00982_DS_
00010d   e187     jbset   0x187, 0         	JBSET	PFLAG,0
00010e   a110     goto    0x110            	GOTO	_00855_DS_
                                           ;;genSkipc:3291: created from rifx:013B5EFC
                                           ;	.line	1004; "MC32P7351.c"	flag_bat_is_empty = 1;
00010f   ce97     bset    0x97, 0x7        	BSET	_flag3,7
                                           _00855_DS_
                                           ;	.line	999; "MC32P7351.c"	for (i = 0; i < 10; i++)      // Ăż55ms˝řČëŇ»´ÎŁ¬Ń­»·ÄÚĂż´ÎĽä¸ôÔĽ4.8ms
000110   668e     incr    0x8e             	INCR	_i
000111   a0ff     goto    0xff             	GOTO	_00854_DS_
                                           _00802_DS_
                                           ;	.line	1008; "MC32P7351.c"	PWM2EC = 0; // ąŘ±ŐżŘÖĆÉýŃąµçÂ·µÄpwm
000112   dda0     bclr    0x1a0, 0x6       	BCLR	_T2CRbits,6
                                           ;	.line	1009; "MC32P7351.c"	T2DATA = 0;
000113   77a3     clrr    0x1a3            	CLRR	_T2DATA
                                           _00851_DS_
                                           ;	.line	1018; "MC32P7351.c"	if (flag_bat_is_empty)
000114   ee97     jbset   0x97, 0x7        	JBSET	_flag3,7
000115   a121     goto    0x121            	GOTO	_00804_DS_
                                           ;	.line	1021; "MC32P7351.c"	LED_CHARGING_PIN = LED_ON;
000116   d990     bclr    0x190, 0x4       	BCLR	_IOP0bits,4
                                           ;	.line	1022; "MC32P7351.c"	delay_ms(500);
000117   3cf4     movai   0xf4             	MOVAI	0xf4
000118   5606     movra   0x6              	MOVRA	STK00
000119   3c01     movai   0x1              	MOVAI	0x01
00011a   86ce     call    0x6ce            	CALL	_delay_ms
                                           ;	.line	1023; "MC32P7351.c"	LED_CHARGING_PIN = LED_OFF;
00011b   c990     bset    0x190, 0x4       	BSET	_IOP0bits,4
                                           ;	.line	1024; "MC32P7351.c"	delay_ms(500);
00011c   3cf4     movai   0xf4             	MOVAI	0xf4
00011d   5606     movra   0x6              	MOVRA	STK00
00011e   3c01     movai   0x1              	MOVAI	0x01
00011f   86ce     call    0x6ce            	CALL	_delay_ms
                                           ;	.line	1025; "MC32P7351.c"	continue;
000120   a114     goto    0x114            	GOTO	_00851_DS_
                                           _00804_DS_
                                           ;	.line	1029; "MC32P7351.c"	key_event_handle(); // °´ĽüĘÂĽţ´¦ŔíşŻĘýŁ¬É¨ĂčÔÚÖĐ¶Ď·ţÎńşŻĘýÄÚÖ´ĐĐ
000121   84ec     call    0x4ec            	CALL	_key_event_handle
                                           ;	.line	1030; "MC32P7351.c"	adc_scan_handle();  // łäµçÉ¨ĂčşÍ´¦ŔíşŻĘý(ÔĽŐĽÓĂ89ms)
000122   83c9     call    0x3c9            	CALL	_adc_scan_handle
                                           ;	.line	1032; "MC32P7351.c"	turn_dir_scan_handle();
000123   8399     call    0x399            	CALL	_turn_dir_scan_handle
                                           ;	.line	1033; "MC32P7351.c"	shutdown_scan_handle(); // ×Ô¶ŻąŘ»úĽě˛âşÍ´¦ŔíşŻĘý
000124   8376     call    0x376            	CALL	_shutdown_scan_handle
                                           ;	.line	1037; "MC32P7351.c"	if (FLAG_IS_IN_CHARGING)
000125   e495     jbset   0x95, 0x2        	JBSET	_flag1,2
000126   a31c     goto    0x31c            	GOTO	_00836_DS_
                                           ;	.line	1039; "MC32P7351.c"	last_pwm_val = T2DATA;      // ¶ÁłöÉĎŇ»´ÎPWMŐĽżŐ±Č¶ÔÓ¦µÄÖµ
000127   59a3     movar   0x1a3            	MOVAR	_T2DATA
000128   5685     movra   0x85             	MOVRA	_last_pwm_val
000129   7686     clrr    0x86             	CLRR	(_last_pwm_val + 1)
                                           ;	.line	1040; "MC32P7351.c"	max_pwm_val = (T2LOAD + 1); // ¶ÁłöPWMŐĽżŐ±ČÉč¶¨µÄˇ˘×î´óµÄÖµ
00012a   59a2     movar   0x1a2            	MOVAR	_T2LOAD
00012b   5616     movra   0x16             	MOVRA	r0x1061
00012c   7617     clrr    0x17             	CLRR	r0x1062
00012d   3c01     movai   0x1              	MOVAI	0x01
00012e   7c16     addar   0x16             	ADDAR	r0x1061
00012f   5679     movra   0x79             	MOVRA	_max_pwm_val
000130   767a     clrr    0x7a             	CLRR	(_max_pwm_val + 1)
000131   527a     rlr     0x7a             	RLR	(_max_pwm_val + 1)
000132   3c00     movai   0                	MOVAI	0x00
000133   7e7a     addra   0x7a             	ADDRA	(_max_pwm_val + 1)
000134   767b     clrr    0x7b             	CLRR	(_max_pwm_val + 2)
000135   767c     clrr    0x7c             	CLRR	(_max_pwm_val + 3)
                                           ;	.line	1062; "MC32P7351.c"	tmp_bat_val = adc_bat_val;
000136   5875     movar   0x75             	MOVAR	_adc_bat_val
000137   5689     movra   0x89             	MOVRA	_tmp_bat_val
000138   5876     movar   0x76             	MOVAR	(_adc_bat_val + 1)
000139   568a     movra   0x8a             	MOVRA	(_tmp_bat_val + 1)
                                           ;;swapping arguments (AOP_TYPEs 1/3)
                                           ;;unsigned compare: left >= lit(0xB16=2838), size=4
                                           ;	.line	1063; "MC32P7351.c"	if (adc_bat_val <= 2837) // ČçąűĽě˛âµçłŘµçŃąĐˇÓÚ 6.5V
00013a   3c00     movai   0                	MOVAI	0x00
00013b   4878     rsubar  0x78             	RSUBAR	(_adc_bat_val + 3)
00013c   e587     jbset   0x187, 0x2       	JBSET	PFLAG,2
00013d   a148     goto    0x148            	GOTO	_00983_DS_
00013e   3c00     movai   0                	MOVAI	0x00
00013f   4877     rsubar  0x77             	RSUBAR	(_adc_bat_val + 2)
000140   e587     jbset   0x187, 0x2       	JBSET	PFLAG,2
000141   a148     goto    0x148            	GOTO	_00983_DS_
000142   3c0b     movai   0xb              	MOVAI	0x0b
000143   4876     rsubar  0x76             	RSUBAR	(_adc_bat_val + 1)
000144   e587     jbset   0x187, 0x2       	JBSET	PFLAG,2
000145   a148     goto    0x148            	GOTO	_00983_DS_
000146   3c16     movai   0x16             	MOVAI	0x16
000147   4875     rsubar  0x75             	RSUBAR	_adc_bat_val
                                           _00983_DS_
000148   f187     jbclr   0x187, 0         	JBCLR	PFLAG,0
000149   a150     goto    0x150            	GOTO	_00815_DS_
                                           ;;genSkipc:3291: created from rifx:013B5EFC
                                           ;	.line	1065; "MC32P7351.c"	tmp_bat_val += 310;
00014a   3c36     movai   0x36             	MOVAI	0x36
00014b   7e89     addra   0x89             	ADDRA	_tmp_bat_val
00014c   f187     jbclr   0x187, 0         	JBCLR	PFLAG,0
00014d   668a     incr    0x8a             	INCR	(_tmp_bat_val + 1)
00014e   668a     incr    0x8a             	INCR	(_tmp_bat_val + 1)
00014f   a1cf     goto    0x1cf            	GOTO	_00882_DS_
                                           ;;swapping arguments (AOP_TYPEs 1/3)
                                           ;;unsigned compare: left >= lit(0xBF1=3057), size=4
                                           _00815_DS_
                                           ;	.line	1067; "MC32P7351.c"	else if (adc_bat_val <= 3056) // ČçąűĽě˛âµçłŘµçŃąĐˇÓÚ 7.0V
000150   3c00     movai   0                	MOVAI	0x00
000151   4878     rsubar  0x78             	RSUBAR	(_adc_bat_val + 3)
000152   e587     jbset   0x187, 0x2       	JBSET	PFLAG,2
000153   a15e     goto    0x15e            	GOTO	_00984_DS_
000154   3c00     movai   0                	MOVAI	0x00
000155   4877     rsubar  0x77             	RSUBAR	(_adc_bat_val + 2)
000156   e587     jbset   0x187, 0x2       	JBSET	PFLAG,2
000157   a15e     goto    0x15e            	GOTO	_00984_DS_
000158   3c0b     movai   0xb              	MOVAI	0x0b
000159   4876     rsubar  0x76             	RSUBAR	(_adc_bat_val + 1)
00015a   e587     jbset   0x187, 0x2       	JBSET	PFLAG,2
00015b   a15e     goto    0x15e            	GOTO	_00984_DS_
00015c   3cf1     movai   0xf1             	MOVAI	0xf1
00015d   4875     rsubar  0x75             	RSUBAR	_adc_bat_val
                                           _00984_DS_
00015e   f187     jbclr   0x187, 0         	JBCLR	PFLAG,0
00015f   a166     goto    0x166            	GOTO	_00812_DS_
                                           ;;genSkipc:3291: created from rifx:013B5EFC
                                           ;	.line	1069; "MC32P7351.c"	tmp_bat_val += 290;
000160   3c22     movai   0x22             	MOVAI	0x22
000161   7e89     addra   0x89             	ADDRA	_tmp_bat_val
000162   f187     jbclr   0x187, 0         	JBCLR	PFLAG,0
000163   668a     incr    0x8a             	INCR	(_tmp_bat_val + 1)
000164   668a     incr    0x8a             	INCR	(_tmp_bat_val + 1)
000165   a1cf     goto    0x1cf            	GOTO	_00882_DS_
                                           ;;swapping arguments (AOP_TYPEs 1/3)
                                           ;;unsigned compare: left >= lit(0xC75=3189), size=4
                                           _00812_DS_
                                           ;	.line	1071; "MC32P7351.c"	else if (adc_bat_val <= 3188) // ČçąűĽě˛âµçłŘµçŃąĐˇÓÚ 7.3V
000166   3c00     movai   0                	MOVAI	0x00
000167   4878     rsubar  0x78             	RSUBAR	(_adc_bat_val + 3)
000168   e587     jbset   0x187, 0x2       	JBSET	PFLAG,2
000169   a174     goto    0x174            	GOTO	_00985_DS_
00016a   3c00     movai   0                	MOVAI	0x00
00016b   4877     rsubar  0x77             	RSUBAR	(_adc_bat_val + 2)
00016c   e587     jbset   0x187, 0x2       	JBSET	PFLAG,2
00016d   a174     goto    0x174            	GOTO	_00985_DS_
00016e   3c0c     movai   0xc              	MOVAI	0x0c
00016f   4876     rsubar  0x76             	RSUBAR	(_adc_bat_val + 1)
000170   e587     jbset   0x187, 0x2       	JBSET	PFLAG,2
000171   a174     goto    0x174            	GOTO	_00985_DS_
000172   3c75     movai   0x75             	MOVAI	0x75
000173   4875     rsubar  0x75             	RSUBAR	_adc_bat_val
                                           _00985_DS_
000174   f187     jbclr   0x187, 0         	JBCLR	PFLAG,0
000175   a17b     goto    0x17b            	GOTO	_00809_DS_
                                           ;;genSkipc:3291: created from rifx:013B5EFC
                                           ;	.line	1073; "MC32P7351.c"	tmp_bat_val += 250; //
000176   3cfa     movai   0xfa             	MOVAI	0xfa
000177   7e89     addra   0x89             	ADDRA	_tmp_bat_val
000178   f187     jbclr   0x187, 0         	JBCLR	PFLAG,0
000179   668a     incr    0x8a             	INCR	(_tmp_bat_val + 1)
00017a   a1cf     goto    0x1cf            	GOTO	_00882_DS_
                                           ;;swapping arguments (AOP_TYPEs 1/3)
                                           ;;unsigned compare: left >= lit(0xCFF=3327), size=4
                                           _00809_DS_
                                           ;	.line	1075; "MC32P7351.c"	else if (adc_bat_val <= 3326) // ČçąűĽě˛âµçłŘµçŃąĐˇÓÚ 7.62V
00017b   3c00     movai   0                	MOVAI	0x00
00017c   4878     rsubar  0x78             	RSUBAR	(_adc_bat_val + 3)
00017d   e587     jbset   0x187, 0x2       	JBSET	PFLAG,2
00017e   a189     goto    0x189            	GOTO	_00986_DS_
00017f   3c00     movai   0                	MOVAI	0x00
000180   4877     rsubar  0x77             	RSUBAR	(_adc_bat_val + 2)
000181   e587     jbset   0x187, 0x2       	JBSET	PFLAG,2
000182   a189     goto    0x189            	GOTO	_00986_DS_
000183   3c0c     movai   0xc              	MOVAI	0x0c
000184   4876     rsubar  0x76             	RSUBAR	(_adc_bat_val + 1)
000185   e587     jbset   0x187, 0x2       	JBSET	PFLAG,2
000186   a189     goto    0x189            	GOTO	_00986_DS_
000187   3cff     movai   0xff             	MOVAI	0xff
000188   4875     rsubar  0x75             	RSUBAR	_adc_bat_val
                                           _00986_DS_
000189   f187     jbclr   0x187, 0         	JBCLR	PFLAG,0
00018a   a190     goto    0x190            	GOTO	_00806_DS_
                                           ;;genSkipc:3291: created from rifx:013B5EFC
                                           ;	.line	1077; "MC32P7351.c"	tmp_bat_val += 200;
00018b   3cc8     movai   0xc8             	MOVAI	0xc8
00018c   7e89     addra   0x89             	ADDRA	_tmp_bat_val
00018d   f187     jbclr   0x187, 0         	JBCLR	PFLAG,0
00018e   668a     incr    0x8a             	INCR	(_tmp_bat_val + 1)
00018f   a1cf     goto    0x1cf            	GOTO	_00882_DS_
                                           _00806_DS_
                                           ;	.line	1081; "MC32P7351.c"	tmp_bat_val -= ((u32)adc_bat_val * 157 / 1000 - 522);
000190   5875     movar   0x75             	MOVAR	_adc_bat_val
000191   5600     movra   0                	MOVRA	STK06
000192   5876     movar   0x76             	MOVAR	(_adc_bat_val + 1)
000193   5601     movra   0x1              	MOVRA	STK05
000194   5877     movar   0x77             	MOVAR	(_adc_bat_val + 2)
000195   5602     movra   0x2              	MOVRA	STK04
000196   5878     movar   0x78             	MOVAR	(_adc_bat_val + 3)
000197   5603     movra   0x3              	MOVRA	STK03
000198   3c9d     movai   0x9d             	MOVAI	0x9d
000199   5604     movra   0x4              	MOVRA	STK02
00019a   3c00     movai   0                	MOVAI	0x00
00019b   5605     movra   0x5              	MOVRA	STK01
00019c   3c00     movai   0                	MOVAI	0x00
00019d   5606     movra   0x6              	MOVRA	STK00
00019e   3c00     movai   0                	MOVAI	0x00
00019f   86ee     call    0x6ee            	CALL	__mullong
0001a0   5619     movra   0x19             	MOVRA	r0x1063
0001a1   5806     movar   0x6              	MOVAR	STK00
0001a2   5618     movra   0x18             	MOVRA	r0x1064
0001a3   5805     movar   0x5              	MOVAR	STK01
0001a4   5617     movra   0x17             	MOVRA	r0x1062
0001a5   5804     movar   0x4              	MOVAR	STK02
0001a6   5616     movra   0x16             	MOVRA	r0x1061
0001a7   3ce8     movai   0xe8             	MOVAI	0xe8
0001a8   5600     movra   0                	MOVRA	STK06
0001a9   3c03     movai   0x3              	MOVAI	0x03
0001aa   5601     movra   0x1              	MOVRA	STK05
0001ab   3c00     movai   0                	MOVAI	0x00
0001ac   5602     movra   0x2              	MOVRA	STK04
0001ad   3c00     movai   0                	MOVAI	0x00
0001ae   5603     movra   0x3              	MOVRA	STK03
0001af   5816     movar   0x16             	MOVAR	r0x1061
0001b0   5604     movra   0x4              	MOVRA	STK02
0001b1   5817     movar   0x17             	MOVAR	r0x1062
0001b2   5605     movra   0x5              	MOVRA	STK01
0001b3   5818     movar   0x18             	MOVAR	r0x1064
0001b4   5606     movra   0x6              	MOVRA	STK00
0001b5   5819     movar   0x19             	MOVAR	r0x1063
0001b6   8779     call    0x779            	CALL	__divulong
0001b7   5619     movra   0x19             	MOVRA	r0x1063
0001b8   5806     movar   0x6              	MOVAR	STK00
0001b9   5618     movra   0x18             	MOVRA	r0x1064
0001ba   5805     movar   0x5              	MOVAR	STK01
0001bb   561b     movra   0x1b             	MOVRA	r0x1066
0001bc   5617     movra   0x17             	MOVRA	r0x1062
0001bd   5804     movar   0x4              	MOVAR	STK02
0001be   561a     movra   0x1a             	MOVRA	r0x1065
0001bf   5616     movra   0x16             	MOVRA	r0x1061
                                           ;;118	MOVAR	r0x1061
                                           ;;119	MOVAR	r0x1062
0001c0   3cf6     movai   0xf6             	MOVAI	0xf6
0001c1   7c1a     addar   0x1a             	ADDAR	r0x1065
0001c2   5616     movra   0x16             	MOVRA	r0x1061
0001c3   3cfd     movai   0xfd             	MOVAI	0xfd
0001c4   5617     movra   0x17             	MOVRA	r0x1062
0001c5   581b     movar   0x1b             	MOVAR	r0x1066
0001c6   f187     jbclr   0x187, 0         	JBCLR	PFLAG,0
0001c7   601b     jzar    0x1b             	JZAR	r0x1066
0001c8   7e17     addra   0x17             	ADDRA	r0x1062
0001c9   5816     movar   0x16             	MOVAR	r0x1061
0001ca   4a89     rsubra  0x89             	RSUBRA	_tmp_bat_val
0001cb   5817     movar   0x17             	MOVAR	r0x1062
0001cc   e187     jbset   0x187, 0         	JBSET	PFLAG,0
0001cd   6017     jzar    0x17             	JZAR	r0x1062
0001ce   4a8a     rsubra  0x8a             	RSUBRA	(_tmp_bat_val + 1)
                                           _00882_DS_
                                           ;	.line	1086; "MC32P7351.c"	for (i = 0; i < 50; i++)
0001cf   7616     clrr    0x16             	CLRR	r0x1061
                                           ;;swapping arguments (AOP_TYPEs 1/3)
                                           ;;unsigned compare: left >= lit(0x3=3), size=2
                                           _00856_DS_
                                           ;	.line	1088; "MC32P7351.c"	if (tmp_bat_val > 2)
0001d0   3c00     movai   0                	MOVAI	0x00
0001d1   488a     rsubar  0x8a             	RSUBAR	(_tmp_bat_val + 1)
0001d2   e587     jbset   0x187, 0x2       	JBSET	PFLAG,2
0001d3   a1d6     goto    0x1d6            	GOTO	_00987_DS_
0001d4   3c03     movai   0x3              	MOVAI	0x03
0001d5   4889     rsubar  0x89             	RSUBAR	_tmp_bat_val
                                           _00987_DS_
0001d6   e187     jbset   0x187, 0         	JBSET	PFLAG,0
0001d7   a1dc     goto    0x1dc            	GOTO	_00857_DS_
                                           ;;genSkipc:3291: created from rifx:013B5EFC
                                           ;	.line	1090; "MC32P7351.c"	tmp_bat_val--;
0001d8   3cff     movai   0xff             	MOVAI	0xff
0001d9   7e89     addra   0x89             	ADDRA	_tmp_bat_val
0001da   e187     jbset   0x187, 0         	JBSET	PFLAG,0
0001db   6e8a     decr    0x8a             	DECR	(_tmp_bat_val + 1)
                                           _00857_DS_
                                           ;	.line	1086; "MC32P7351.c"	for (i = 0; i < 50; i++)
0001dc   6616     incr    0x16             	INCR	r0x1061
                                           ;;unsigned compare: left < lit(0x32=50), size=1
0001dd   3c32     movai   0x32             	MOVAI	0x32
0001de   4816     rsubar  0x16             	RSUBAR	r0x1061
0001df   e187     jbset   0x187, 0         	JBSET	PFLAG,0
0001e0   a1d0     goto    0x1d0            	GOTO	_00856_DS_
                                           ;;genSkipc:3291: created from rifx:013B5EFC
                                           ;;unsigned compare: left < lit(0xE27=3623), size=4
                                           ;	.line	1096; "MC32P7351.c"	if (adc_bat_val >= 3623) // 8.30VĽ°ŇÔÉĎ , ˝µµÍµçÁ÷
0001e1   3c00     movai   0                	MOVAI	0x00
0001e2   4878     rsubar  0x78             	RSUBAR	(_adc_bat_val + 3)
0001e3   e587     jbset   0x187, 0x2       	JBSET	PFLAG,2
0001e4   a1ef     goto    0x1ef            	GOTO	_00989_DS_
0001e5   3c00     movai   0                	MOVAI	0x00
0001e6   4877     rsubar  0x77             	RSUBAR	(_adc_bat_val + 2)
0001e7   e587     jbset   0x187, 0x2       	JBSET	PFLAG,2
0001e8   a1ef     goto    0x1ef            	GOTO	_00989_DS_
0001e9   3c0e     movai   0xe              	MOVAI	0x0e
0001ea   4876     rsubar  0x76             	RSUBAR	(_adc_bat_val + 1)
0001eb   e587     jbset   0x187, 0x2       	JBSET	PFLAG,2
0001ec   a1ef     goto    0x1ef            	GOTO	_00989_DS_
0001ed   3c27     movai   0x27             	MOVAI	0x27
0001ee   4875     rsubar  0x75             	RSUBAR	_adc_bat_val
                                           _00989_DS_
0001ef   e187     jbset   0x187, 0         	JBSET	PFLAG,0
0001f0   a20a     goto    0x20a            	GOTO	_00824_DS_
                                           ;;genSkipc:3291: created from rifx:013B5EFC
                                           ;	.line	1099; "MC32P7351.c"	for (i = 0; i < 260; i++) //
0001f1   7616     clrr    0x16             	CLRR	r0x1061
0001f2   7617     clrr    0x17             	CLRR	r0x1062
                                           ;;swapping arguments (AOP_TYPEs 1/3)
                                           ;;unsigned compare: left >= lit(0x3=3), size=2
                                           _00858_DS_
                                           ;	.line	1101; "MC32P7351.c"	if (tmp_bat_val > 2)
0001f3   3c00     movai   0                	MOVAI	0x00
0001f4   488a     rsubar  0x8a             	RSUBAR	(_tmp_bat_val + 1)
0001f5   e587     jbset   0x187, 0x2       	JBSET	PFLAG,2
0001f6   a1f9     goto    0x1f9            	GOTO	_00990_DS_
0001f7   3c03     movai   0x3              	MOVAI	0x03
0001f8   4889     rsubar  0x89             	RSUBAR	_tmp_bat_val
                                           _00990_DS_
0001f9   e187     jbset   0x187, 0         	JBSET	PFLAG,0
0001fa   a1ff     goto    0x1ff            	GOTO	_00859_DS_
                                           ;;genSkipc:3291: created from rifx:013B5EFC
                                           ;	.line	1103; "MC32P7351.c"	tmp_bat_val--;
0001fb   3cff     movai   0xff             	MOVAI	0xff
0001fc   7e89     addra   0x89             	ADDRA	_tmp_bat_val
0001fd   e187     jbset   0x187, 0         	JBSET	PFLAG,0
0001fe   6e8a     decr    0x8a             	DECR	(_tmp_bat_val + 1)
                                           _00859_DS_
                                           ;	.line	1099; "MC32P7351.c"	for (i = 0; i < 260; i++) //
0001ff   6616     incr    0x16             	INCR	r0x1061
000200   f587     jbclr   0x187, 0x2       	JBCLR	PFLAG,2
000201   6617     incr    0x17             	INCR	r0x1062
                                           ;;unsigned compare: left < lit(0x104=260), size=2
000202   3c01     movai   0x1              	MOVAI	0x01
000203   4817     rsubar  0x17             	RSUBAR	r0x1062
000204   e587     jbset   0x187, 0x2       	JBSET	PFLAG,2
000205   a208     goto    0x208            	GOTO	_00991_DS_
000206   3c04     movai   0x4              	MOVAI	0x04
000207   4816     rsubar  0x16             	RSUBAR	r0x1061
                                           _00991_DS_
000208   e187     jbset   0x187, 0         	JBSET	PFLAG,0
000209   a1f3     goto    0x1f3            	GOTO	_00858_DS_
                                           ;;genSkipc:3291: created from rifx:013B5EFC
                                           _00824_DS_
                                           ;	.line	1137; "MC32P7351.c"	tmp_val = max_pwm_val - (adc_charging_val * max_pwm_val * 94 / 147) / tmp_bat_val;
00020a   5883     movar   0x83             	MOVAR	_adc_charging_val
00020b   5616     movra   0x16             	MOVRA	r0x1061
00020c   5884     movar   0x84             	MOVAR	(_adc_charging_val + 1)
00020d   5617     movra   0x17             	MOVRA	r0x1062
00020e   761a     clrr    0x1a             	CLRR	r0x1065
00020f   761b     clrr    0x1b             	CLRR	r0x1066
000210   5879     movar   0x79             	MOVAR	_max_pwm_val
000211   5600     movra   0                	MOVRA	STK06
000212   587a     movar   0x7a             	MOVAR	(_max_pwm_val + 1)
000213   5601     movra   0x1              	MOVRA	STK05
000214   587b     movar   0x7b             	MOVAR	(_max_pwm_val + 2)
000215   5602     movra   0x2              	MOVRA	STK04
000216   587c     movar   0x7c             	MOVAR	(_max_pwm_val + 3)
000217   5603     movra   0x3              	MOVRA	STK03
000218   5816     movar   0x16             	MOVAR	r0x1061
000219   5604     movra   0x4              	MOVRA	STK02
00021a   5817     movar   0x17             	MOVAR	r0x1062
00021b   5605     movra   0x5              	MOVRA	STK01
00021c   3c00     movai   0                	MOVAI	0x00
00021d   5606     movra   0x6              	MOVRA	STK00
00021e   3c00     movai   0                	MOVAI	0x00
00021f   86ee     call    0x6ee            	CALL	__mullong
000220   561b     movra   0x1b             	MOVRA	r0x1066
000221   5806     movar   0x6              	MOVAR	STK00
000222   561a     movra   0x1a             	MOVRA	r0x1065
000223   5805     movar   0x5              	MOVAR	STK01
000224   5617     movra   0x17             	MOVRA	r0x1062
000225   5804     movar   0x4              	MOVAR	STK02
000226   5616     movra   0x16             	MOVRA	r0x1061
000227   5816     movar   0x16             	MOVAR	r0x1061
000228   5600     movra   0                	MOVRA	STK06
000229   5817     movar   0x17             	MOVAR	r0x1062
00022a   5601     movra   0x1              	MOVRA	STK05
00022b   581a     movar   0x1a             	MOVAR	r0x1065
00022c   5602     movra   0x2              	MOVRA	STK04
00022d   581b     movar   0x1b             	MOVAR	r0x1066
00022e   5603     movra   0x3              	MOVRA	STK03
00022f   3c5e     movai   0x5e             	MOVAI	0x5e
000230   5604     movra   0x4              	MOVRA	STK02
000231   3c00     movai   0                	MOVAI	0x00
000232   5605     movra   0x5              	MOVRA	STK01
000233   3c00     movai   0                	MOVAI	0x00
000234   5606     movra   0x6              	MOVRA	STK00
000235   3c00     movai   0                	MOVAI	0x00
000236   86ee     call    0x6ee            	CALL	__mullong
000237   561b     movra   0x1b             	MOVRA	r0x1066
000238   5806     movar   0x6              	MOVAR	STK00
000239   561a     movra   0x1a             	MOVRA	r0x1065
00023a   5805     movar   0x5              	MOVAR	STK01
00023b   5617     movra   0x17             	MOVRA	r0x1062
00023c   5804     movar   0x4              	MOVAR	STK02
00023d   5616     movra   0x16             	MOVRA	r0x1061
00023e   3c93     movai   0x93             	MOVAI	0x93
00023f   5600     movra   0                	MOVRA	STK06
000240   3c00     movai   0                	MOVAI	0x00
000241   5601     movra   0x1              	MOVRA	STK05
000242   3c00     movai   0                	MOVAI	0x00
000243   5602     movra   0x2              	MOVRA	STK04
000244   3c00     movai   0                	MOVAI	0x00
000245   5603     movra   0x3              	MOVRA	STK03
000246   5816     movar   0x16             	MOVAR	r0x1061
000247   5604     movra   0x4              	MOVRA	STK02
000248   5817     movar   0x17             	MOVAR	r0x1062
000249   5605     movra   0x5              	MOVRA	STK01
00024a   581a     movar   0x1a             	MOVAR	r0x1065
00024b   5606     movra   0x6              	MOVRA	STK00
00024c   581b     movar   0x1b             	MOVAR	r0x1066
00024d   8779     call    0x779            	CALL	__divulong
00024e   561b     movra   0x1b             	MOVRA	r0x1066
00024f   5806     movar   0x6              	MOVAR	STK00
000250   561a     movra   0x1a             	MOVRA	r0x1065
000251   5805     movar   0x5              	MOVAR	STK01
000252   5617     movra   0x17             	MOVRA	r0x1062
000253   5804     movar   0x4              	MOVAR	STK02
000254   5616     movra   0x16             	MOVRA	r0x1061
000255   5889     movar   0x89             	MOVAR	_tmp_bat_val
000256   561c     movra   0x1c             	MOVRA	r0x1067
000257   588a     movar   0x8a             	MOVAR	(_tmp_bat_val + 1)
000258   561d     movra   0x1d             	MOVRA	r0x1068
000259   761e     clrr    0x1e             	CLRR	r0x1069
00025a   761f     clrr    0x1f             	CLRR	r0x106A
00025b   581c     movar   0x1c             	MOVAR	r0x1067
00025c   5600     movra   0                	MOVRA	STK06
00025d   581d     movar   0x1d             	MOVAR	r0x1068
00025e   5601     movra   0x1              	MOVRA	STK05
00025f   3c00     movai   0                	MOVAI	0x00
000260   5602     movra   0x2              	MOVRA	STK04
000261   3c00     movai   0                	MOVAI	0x00
000262   5603     movra   0x3              	MOVRA	STK03
000263   5816     movar   0x16             	MOVAR	r0x1061
000264   5604     movra   0x4              	MOVRA	STK02
000265   5817     movar   0x17             	MOVAR	r0x1062
000266   5605     movra   0x5              	MOVRA	STK01
000267   581a     movar   0x1a             	MOVAR	r0x1065
000268   5606     movra   0x6              	MOVRA	STK00
000269   581b     movar   0x1b             	MOVAR	r0x1066
00026a   8779     call    0x779            	CALL	__divulong
00026b   561b     movra   0x1b             	MOVRA	r0x1066
00026c   5806     movar   0x6              	MOVAR	STK00
00026d   561a     movra   0x1a             	MOVRA	r0x1065
00026e   5805     movar   0x5              	MOVAR	STK01
00026f   561f     movra   0x1f             	MOVRA	r0x106A
000270   5617     movra   0x17             	MOVRA	r0x1062
000271   5804     movar   0x4              	MOVAR	STK02
000272   561e     movra   0x1e             	MOVRA	r0x1069
000273   5616     movra   0x16             	MOVRA	r0x1061
000274   5879     movar   0x79             	MOVAR	_max_pwm_val
000275   561c     movra   0x1c             	MOVRA	r0x1067
000276   587a     movar   0x7a             	MOVAR	(_max_pwm_val + 1)
000277   561d     movra   0x1d             	MOVRA	r0x1068
                                           ;;115	MOVAR	r0x1061
                                           ;;116	MOVAR	r0x1062
000278   581e     movar   0x1e             	MOVAR	r0x1069
000279   481c     rsubar  0x1c             	RSUBAR	r0x1067
00027a   5687     movra   0x87             	MOVRA	_tmp_val
00027b   581f     movar   0x1f             	MOVAR	r0x106A
00027c   e187     jbset   0x187, 0         	JBSET	PFLAG,0
00027d   641f     incar   0x1f             	INCAR	r0x106A
00027e   481d     rsubar  0x1d             	RSUBAR	r0x1068
00027f   5688     movra   0x88             	MOVRA	(_tmp_val + 1)
                                           ;	.line	1142; "MC32P7351.c"	if (tmp_val >= max_pwm_val)
000280   5887     movar   0x87             	MOVAR	_tmp_val
000281   5616     movra   0x16             	MOVRA	r0x1061
000282   5888     movar   0x88             	MOVAR	(_tmp_val + 1)
000283   5617     movra   0x17             	MOVRA	r0x1062
000284   761a     clrr    0x1a             	CLRR	r0x1065
000285   761b     clrr    0x1b             	CLRR	r0x1066
000286   587c     movar   0x7c             	MOVAR	(_max_pwm_val + 3)
000287   481b     rsubar  0x1b             	RSUBAR	r0x1066
000288   e587     jbset   0x187, 0x2       	JBSET	PFLAG,2
000289   a294     goto    0x294            	GOTO	_00992_DS_
00028a   587b     movar   0x7b             	MOVAR	(_max_pwm_val + 2)
00028b   481a     rsubar  0x1a             	RSUBAR	r0x1065
00028c   e587     jbset   0x187, 0x2       	JBSET	PFLAG,2
00028d   a294     goto    0x294            	GOTO	_00992_DS_
00028e   587a     movar   0x7a             	MOVAR	(_max_pwm_val + 1)
00028f   4817     rsubar  0x17             	RSUBAR	r0x1062
000290   e587     jbset   0x187, 0x2       	JBSET	PFLAG,2
000291   a294     goto    0x294            	GOTO	_00992_DS_
000292   5879     movar   0x79             	MOVAR	_max_pwm_val
000293   4816     rsubar  0x16             	RSUBAR	r0x1061
                                           _00992_DS_
000294   e187     jbset   0x187, 0         	JBSET	PFLAG,0
000295   a298     goto    0x298            	GOTO	_00826_DS_
                                           ;;genSkipc:3291: created from rifx:013B5EFC
                                           ;	.line	1145; "MC32P7351.c"	tmp_val = 0;
000296   7687     clrr    0x87             	CLRR	_tmp_val
000297   7688     clrr    0x88             	CLRR	(_tmp_val + 1)
                                           _00826_DS_
                                           ;	.line	1149; "MC32P7351.c"	tmp_val_cnt++;
000298   668f     incr    0x8f             	INCR	_tmp_val_cnt
                                           ;	.line	1150; "MC32P7351.c"	tmp_val_cnt &= 0x07;
000299   3c07     movai   0x7              	MOVAI	0x07
00029a   7a8f     andra   0x8f             	ANDRA	_tmp_val_cnt
                                           ;	.line	1151; "MC32P7351.c"	tmp_val_l[tmp_val_cnt] = (tmp_val_l[tmp_val_cnt] + tmp_val) >> 1;
00029b   d187     bclr    0x187, 0         	BCLR	PFLAG,0
00029c   508f     rlar    0x8f             	RLAR	_tmp_val_cnt
00029d   5616     movra   0x16             	MOVRA	r0x1061
00029e   5816     movar   0x16             	MOVAR	r0x1061
00029f   3f4d     addai   0x4d             	ADDAI	(_tmp_val_l + 0)
0002a0   5616     movra   0x16             	MOVRA	r0x1061
0002a1   3c00     movai   0                	MOVAI	high (_tmp_val_l + 0)
0002a2   f187     jbclr   0x187, 0         	JBCLR	PFLAG,0
0002a3   3f01     addai   0x1              	ADDAI	0x01
0002a4   5617     movra   0x17             	MOVRA	r0x1062
0002a5   d187     bclr    0x187, 0         	BCLR	PFLAG,0
0002a6   508f     rlar    0x8f             	RLAR	_tmp_val_cnt
0002a7   561a     movra   0x1a             	MOVRA	r0x1065
0002a8   581a     movar   0x1a             	MOVAR	r0x1065
0002a9   3f4d     addai   0x4d             	ADDAI	(_tmp_val_l + 0)
0002aa   561a     movra   0x1a             	MOVRA	r0x1065
0002ab   3c00     movai   0                	MOVAI	high (_tmp_val_l + 0)
0002ac   f187     jbclr   0x187, 0         	JBCLR	PFLAG,0
0002ad   3f01     addai   0x1              	ADDAI	0x01
0002ae   561b     movra   0x1b             	MOVRA	r0x1066
0002af   581a     movar   0x1a             	MOVAR	r0x1065
0002b0   5784     movra   0x184            	MOVRA	FSR0
0002b1   581b     movar   0x1b             	MOVAR	r0x1066
0002b2   5785     movra   0x185            	MOVRA	FSR1
0002b3   5982     movar   0x182            	MOVAR	INDF2
0002b4   561c     movra   0x1c             	MOVRA	r0x1067
0002b5   6784     incr    0x184            	INCR	FSR0
0002b6   f587     jbclr   0x187, 0x2       	JBCLR	PFLAG,2
0002b7   6785     incr    0x185            	INCR	FSR1
0002b8   5982     movar   0x182            	MOVAR	INDF2
0002b9   561b     movra   0x1b             	MOVRA	r0x1066
0002ba   561d     movra   0x1d             	MOVRA	r0x1068
0002bb   5887     movar   0x87             	MOVAR	_tmp_val
0002bc   7c1c     addar   0x1c             	ADDAR	r0x1067
0002bd   561a     movra   0x1a             	MOVRA	r0x1065
                                           ;;117	MOVAR	r0x1068
0002be   5888     movar   0x88             	MOVAR	(_tmp_val + 1)
0002bf   f187     jbclr   0x187, 0         	JBCLR	PFLAG,0
0002c0   6088     jzar    0x88             	JZAR	(_tmp_val + 1)
0002c1   7e1b     addra   0x1b             	ADDRA	r0x1066
                                           ;;shiftRight_Left2ResultLit:5339: shCount=1, size=2, sign=0, same=0, offr=0
0002c2   d187     bclr    0x187, 0         	BCLR	PFLAG,0
0002c3   4c1b     rrar    0x1b             	RRAR	r0x1066
0002c4   561d     movra   0x1d             	MOVRA	r0x1068
0002c5   4c1a     rrar    0x1a             	RRAR	r0x1065
0002c6   561c     movra   0x1c             	MOVRA	r0x1067
0002c7   5816     movar   0x16             	MOVAR	r0x1061
0002c8   5784     movra   0x184            	MOVRA	FSR0
0002c9   5817     movar   0x17             	MOVAR	r0x1062
0002ca   5785     movra   0x185            	MOVRA	FSR1
0002cb   581c     movar   0x1c             	MOVAR	r0x1067
0002cc   5782     movra   0x182            	MOVRA	INDF2
0002cd   6784     incr    0x184            	INCR	FSR0
0002ce   f587     jbclr   0x187, 0x2       	JBCLR	PFLAG,2
0002cf   6785     incr    0x185            	INCR	FSR1
0002d0   581d     movar   0x1d             	MOVAR	r0x1068
0002d1   5782     movra   0x182            	MOVRA	INDF2
                                           ;	.line	1152; "MC32P7351.c"	tmp_val = 0;
0002d2   7687     clrr    0x87             	CLRR	_tmp_val
0002d3   7688     clrr    0x88             	CLRR	(_tmp_val + 1)
                                           ;	.line	1153; "MC32P7351.c"	for (i = 0; i < 8; i++)
0002d4   768e     clrr    0x8e             	CLRR	_i
                                           ;;unsigned compare: left < lit(0x8=8), size=1
                                           _00861_DS_
0002d5   3c08     movai   0x8              	MOVAI	0x08
0002d6   488e     rsubar  0x8e             	RSUBAR	_i
0002d7   f187     jbclr   0x187, 0         	JBCLR	PFLAG,0
0002d8   a2f6     goto    0x2f6            	GOTO	_00827_DS_
                                           ;;genSkipc:3291: created from rifx:013B5EFC
                                           ;	.line	1155; "MC32P7351.c"	tmp_val += tmp_val_l[i];
0002d9   d187     bclr    0x187, 0         	BCLR	PFLAG,0
0002da   508e     rlar    0x8e             	RLAR	_i
0002db   5616     movra   0x16             	MOVRA	r0x1061
0002dc   5816     movar   0x16             	MOVAR	r0x1061
0002dd   3f4d     addai   0x4d             	ADDAI	(_tmp_val_l + 0)
0002de   5616     movra   0x16             	MOVRA	r0x1061
0002df   3c00     movai   0                	MOVAI	high (_tmp_val_l + 0)
0002e0   f187     jbclr   0x187, 0         	JBCLR	PFLAG,0
0002e1   3f01     addai   0x1              	ADDAI	0x01
0002e2   5617     movra   0x17             	MOVRA	r0x1062
0002e3   5816     movar   0x16             	MOVAR	r0x1061
0002e4   5784     movra   0x184            	MOVRA	FSR0
0002e5   5817     movar   0x17             	MOVAR	r0x1062
0002e6   5785     movra   0x185            	MOVRA	FSR1
0002e7   5982     movar   0x182            	MOVAR	INDF2
0002e8   561a     movra   0x1a             	MOVRA	r0x1065
0002e9   6784     incr    0x184            	INCR	FSR0
0002ea   f587     jbclr   0x187, 0x2       	JBCLR	PFLAG,2
0002eb   6785     incr    0x185            	INCR	FSR1
0002ec   5982     movar   0x182            	MOVAR	INDF2
0002ed   561b     movra   0x1b             	MOVRA	r0x1066
0002ee   581a     movar   0x1a             	MOVAR	r0x1065
0002ef   7e87     addra   0x87             	ADDRA	_tmp_val
0002f0   581b     movar   0x1b             	MOVAR	r0x1066
0002f1   f187     jbclr   0x187, 0         	JBCLR	PFLAG,0
0002f2   601b     jzar    0x1b             	JZAR	r0x1066
0002f3   7e88     addra   0x88             	ADDRA	(_tmp_val + 1)
                                           ;	.line	1153; "MC32P7351.c"	for (i = 0; i < 8; i++)
0002f4   668e     incr    0x8e             	INCR	_i
0002f5   a2d5     goto    0x2d5            	GOTO	_00861_DS_
                                           ;;shiftRight_Left2ResultLit:5339: shCount=1, size=2, sign=0, same=1, offr=0
                                           _00827_DS_
                                           ;	.line	1157; "MC32P7351.c"	tmp_val >>= 3;
0002f6   d187     bclr    0x187, 0         	BCLR	PFLAG,0
0002f7   4e88     rrr     0x88             	RRR	(_tmp_val + 1)
0002f8   4e87     rrr     0x87             	RRR	_tmp_val
                                           ;;shiftRight_Left2ResultLit:5339: shCount=1, size=2, sign=0, same=1, offr=0
0002f9   d187     bclr    0x187, 0         	BCLR	PFLAG,0
0002fa   4e88     rrr     0x88             	RRR	(_tmp_val + 1)
0002fb   4e87     rrr     0x87             	RRR	_tmp_val
                                           ;;shiftRight_Left2ResultLit:5339: shCount=1, size=2, sign=0, same=1, offr=0
0002fc   d187     bclr    0x187, 0         	BCLR	PFLAG,0
0002fd   4e88     rrr     0x88             	RRR	(_tmp_val + 1)
0002fe   4e87     rrr     0x87             	RRR	_tmp_val
                                           ;	.line	1195; "MC32P7351.c"	if (flag_is_adjust_pwm_time_comes)
0002ff   ec97     jbset   0x97, 0x6        	JBSET	_flag3,6
000300   a31a     goto    0x31a            	GOTO	_00834_DS_
                                           ;	.line	1197; "MC32P7351.c"	flag_is_adjust_pwm_time_comes = 0;
000301   dc97     bclr    0x97, 0x6        	BCLR	_flag3,6
                                           ;	.line	1199; "MC32P7351.c"	if (tmp_val > last_pwm_val)
000302   5888     movar   0x88             	MOVAR	(_tmp_val + 1)
000303   4886     rsubar  0x86             	RSUBAR	(_last_pwm_val + 1)
000304   e587     jbset   0x187, 0x2       	JBSET	PFLAG,2
000305   a308     goto    0x308            	GOTO	_00994_DS_
000306   5887     movar   0x87             	MOVAR	_tmp_val
000307   4885     rsubar  0x85             	RSUBAR	_last_pwm_val
                                           _00994_DS_
000308   f187     jbclr   0x187, 0         	JBCLR	PFLAG,0
000309   a30e     goto    0x30e            	GOTO	_00831_DS_
                                           ;;genSkipc:3291: created from rifx:013B5EFC
                                           ;	.line	1204; "MC32P7351.c"	last_pwm_val++;
00030a   6685     incr    0x85             	INCR	_last_pwm_val
00030b   f587     jbclr   0x187, 0x2       	JBCLR	PFLAG,2
00030c   6686     incr    0x86             	INCR	(_last_pwm_val + 1)
00030d   a31a     goto    0x31a            	GOTO	_00834_DS_
                                           _00831_DS_
                                           ;	.line	1208; "MC32P7351.c"	else if (tmp_val < last_pwm_val)
00030e   5886     movar   0x86             	MOVAR	(_last_pwm_val + 1)
00030f   4888     rsubar  0x88             	RSUBAR	(_tmp_val + 1)
000310   e587     jbset   0x187, 0x2       	JBSET	PFLAG,2
000311   a314     goto    0x314            	GOTO	_00995_DS_
000312   5885     movar   0x85             	MOVAR	_last_pwm_val
000313   4887     rsubar  0x87             	RSUBAR	_tmp_val
                                           _00995_DS_
000314   f187     jbclr   0x187, 0         	JBCLR	PFLAG,0
000315   a31a     goto    0x31a            	GOTO	_00834_DS_
                                           ;;genSkipc:3291: created from rifx:013B5EFC
                                           ;	.line	1213; "MC32P7351.c"	last_pwm_val--;
000316   3cff     movai   0xff             	MOVAI	0xff
000317   7e85     addra   0x85             	ADDRA	_last_pwm_val
000318   e187     jbset   0x187, 0         	JBSET	PFLAG,0
000319   6e86     decr    0x86             	DECR	(_last_pwm_val + 1)
                                           _00834_DS_
                                           ;	.line	1220; "MC32P7351.c"	T2DATA = last_pwm_val;
00031a   5885     movar   0x85             	MOVAR	_last_pwm_val
00031b   57a3     movra   0x1a3            	MOVRA	_T2DATA
                                           _00836_DS_
                                           ;	.line	1223; "MC32P7351.c"	if (flag_is_low_battery)
00031c   e496     jbset   0x96, 0x2        	JBSET	_flag2,2
00031d   a339     goto    0x339            	GOTO	_00849_DS_
                                           ;	.line	1225; "MC32P7351.c"	LED_WORKING_OFF();
00031e   c994     bset    0x194, 0x4       	BSET	_IOP1bits,4
                                           ;	.line	1228; "MC32P7351.c"	LED_CHARGING_ON();
00031f   d990     bclr    0x190, 0x4       	BCLR	_IOP0bits,4
                                           ;	.line	1230; "MC32P7351.c"	for (i = 0; i < 20; i++)
000320   768e     clrr    0x8e             	CLRR	_i
                                           ;;unsigned compare: left < lit(0x14=20), size=1
                                           _00864_DS_
000321   3c14     movai   0x14             	MOVAI	0x14
000322   488e     rsubar  0x8e             	RSUBAR	_i
000323   f187     jbclr   0x187, 0         	JBCLR	PFLAG,0
000324   a32c     goto    0x32c            	GOTO	_00844_DS_
                                           ;;genSkipc:3291: created from rifx:013B5EFC
                                           ;	.line	1233; "MC32P7351.c"	key_event_handle();
000325   84ec     call    0x4ec            	CALL	_key_event_handle
                                           ;	.line	1234; "MC32P7351.c"	delay_ms(10);
000326   3c0a     movai   0xa              	MOVAI	0x0a
000327   5606     movra   0x6              	MOVRA	STK00
000328   3c00     movai   0                	MOVAI	0x00
000329   86ce     call    0x6ce            	CALL	_delay_ms
                                           ;	.line	1230; "MC32P7351.c"	for (i = 0; i < 20; i++)
00032a   668e     incr    0x8e             	INCR	_i
00032b   a321     goto    0x321            	GOTO	_00864_DS_
                                           _00844_DS_
                                           ;	.line	1237; "MC32P7351.c"	LED_CHARGING_OFF();
00032c   c990     bset    0x190, 0x4       	BSET	_IOP0bits,4
                                           ;	.line	1239; "MC32P7351.c"	for (i = 0; i < 20; i++)
00032d   768e     clrr    0x8e             	CLRR	_i
                                           ;;unsigned compare: left < lit(0x14=20), size=1
                                           _00867_DS_
00032e   3c14     movai   0x14             	MOVAI	0x14
00032f   488e     rsubar  0x8e             	RSUBAR	_i
000330   f187     jbclr   0x187, 0         	JBCLR	PFLAG,0
000331   a339     goto    0x339            	GOTO	_00849_DS_
                                           ;;genSkipc:3291: created from rifx:013B5EFC
                                           ;	.line	1242; "MC32P7351.c"	key_event_handle();
000332   84ec     call    0x4ec            	CALL	_key_event_handle
                                           ;	.line	1243; "MC32P7351.c"	delay_ms(10);
000333   3c0a     movai   0xa              	MOVAI	0x0a
000334   5606     movra   0x6              	MOVRA	STK00
000335   3c00     movai   0                	MOVAI	0x00
000336   86ce     call    0x6ce            	CALL	_delay_ms
                                           ;	.line	1239; "MC32P7351.c"	for (i = 0; i < 20; i++)
000337   668e     incr    0x8e             	INCR	_i
000338   a32e     goto    0x32e            	GOTO	_00867_DS_
                                           _00849_DS_
                                           ;	.line	1247; "MC32P7351.c"	low_power_scan_handle();
000339   833d     call    0x33d            	CALL	_low_power_scan_handle
                                           ;	.line	1254; "MC32P7351.c"	__endasm;
                                           	;
00033a   000e     clrwdt                   	CLRWDT;
                                           	
00033b   a114     goto    0x114            	GOTO	_00851_DS_
                                           ;	.line	1257; "MC32P7351.c"	}
00033c   000c     return                   	RETURN	
                                           ; exit point of _main
                                           
                                           ;***
                                           ;  pBlock Stats: dbName = C
                                           ;***
                                           ;entry:  _low_power_scan_handle	;Function start
                                           ; 2 exit points
                                           ;has an exit
                                           ;functions called:
                                           ;   _CLR_RAM
                                           ;   _adc_config
                                           ;   _adc_sel_pin
                                           ;   _adc_get_val
                                           ;   _Sys_Init
                                           ;   _CLR_RAM
                                           ;   _adc_config
                                           ;   _adc_sel_pin
                                           ;   _adc_get_val
                                           ;   _Sys_Init
                                           ;1 compiler assigned register :
                                           ;   STK00
                                           ;; Starting pCode block
                                           _low_power_scan_handle	;Function start
                                           ; 2 exit points
                                           ;	.line	882; "MC32P7351.c"	FLAG_IS_DEVICE_OPEN ||                            // ČçąűÉč±¸ŇŃľ­Ćô¶ŻŁ¬˛»˝řČëµÍą¦şÄ
00033d   f095     jbclr   0x95, 0          	JBCLR	_flag1,0
00033e   a347     goto    0x347            	GOTO	_00758_DS_
                                           ;	.line	883; "MC32P7351.c"	FLAG_IS_IN_CHARGING ||                            // ČçąűŐýÔÚłäµçŁ¬˛»˝řČëµÍą¦şÄŁ¬ŇňÎŞ»ąĐčŇŞĘäłöPWMŔ´żŘÖĆłäµç
00033f   f495     jbclr   0x95, 0x2        	JBCLR	_flag1,2
000340   a347     goto    0x347            	GOTO	_00758_DS_
                                           ;	.line	884; "MC32P7351.c"	(0 == P01D) ||                                    // ČçąűĽě˛âµ˝ żŞąŘ/ÄŁĘ˝ °´Ľü°´ĎÂŁ¬˛»˝řČëµÍą¦şÄ(˝»¸ř°´ĽüĘÂĽţ´¦ŔíşŻĘýŔ´ĹĐ¶ĎĘÇ·ńŇŞżŞ»ú)
000341   e390     jbset   0x190, 0x1       	JBSET	_IOP0bits,1
000342   a347     goto    0x347            	GOTO	_00758_DS_
                                           ;	.line	885; "MC32P7351.c"	INFLATION_CTL_STATUS_NONE != inflation_ctl_status // Ćř±Ăˇ˘Ćř·§»ąÔÚą¤×÷Ł¬˛»˝řČëµÍą¦şÄ
000343   3c00     movai   0                	MOVAI	0x00
000344   5c92     orar    0x92             	ORAR	_inflation_ctl_status
000345   f587     jbclr   0x187, 0x2       	JBCLR	PFLAG,2
000346   a348     goto    0x348            	GOTO	_00763_DS_
                                           _00758_DS_
                                           ;	.line	888; "MC32P7351.c"	return;
000347   a375     goto    0x375            	GOTO	_00773_DS_
                                           _00763_DS_
                                           ;	.line	906; "MC32P7351.c"	GIE = 0;  // ˝űÓĂËůÓĐÖĐ¶Ď
000348   df88     bclr    0x188, 0x7       	BCLR	_MCRbits,7
                                           ;	.line	907; "MC32P7351.c"	T0EN = 0; // ąŘ±Ő¶¨Ę±Ć÷şÍPWMĘäłö
000349   df98     bclr    0x198, 0x7       	BCLR	_T0CRbits,7
                                           ;	.line	908; "MC32P7351.c"	T1EN = 0;
00034a   df9c     bclr    0x19c, 0x7       	BCLR	_T1CRbits,7
                                           ;	.line	909; "MC32P7351.c"	T2EN = 0;
00034b   dfa0     bclr    0x1a0, 0x7       	BCLR	_T2CRbits,7
                                           ;	.line	910; "MC32P7351.c"	T3EN = 0;
00034c   dfa4     bclr    0x1a4, 0x7       	BCLR	_T3CRbits,7
                                           ;	.line	912; "MC32P7351.c"	PWM0EC = 0;
00034d   dd98     bclr    0x198, 0x6       	BCLR	_T0CRbits,6
                                           ;	.line	913; "MC32P7351.c"	PWM1EC = 0;
00034e   dd9c     bclr    0x19c, 0x6       	BCLR	_T1CRbits,6
                                           ;	.line	914; "MC32P7351.c"	PWM2EC = 0;
00034f   dda0     bclr    0x1a0, 0x6       	BCLR	_T2CRbits,6
                                           ;	.line	915; "MC32P7351.c"	T2DATA = 0;
000350   77a3     clrr    0x1a3            	CLRR	_T2DATA
                                           ;	.line	916; "MC32P7351.c"	ADEN = 0; // ˛»ĘąÄÜad
000351   d1b0     bclr    0x1b0, 0         	BCLR	_ADCR0bits,0
                                           ;	.line	923; "MC32P7351.c"	LED_WORKING_OFF();
000352   c994     bset    0x194, 0x4       	BSET	_IOP1bits,4
                                           ;	.line	924; "MC32P7351.c"	LED_CHARGING_OFF();
000353   c990     bset    0x190, 0x4       	BSET	_IOP0bits,4
                                           ;	.line	926; "MC32P7351.c"	INFLATION_CTL_OFF();
000354   d790     bclr    0x190, 0x3       	BCLR	_IOP0bits,3
                                           ;	.line	927; "MC32P7351.c"	DEFLATION_CTL_OFF();
000355   d794     bclr    0x194, 0x3       	BCLR	_IOP1bits,3
                                           ;	.line	930; "MC32P7351.c"	P01PU = 1;
000356   c392     bset    0x192, 0x1       	BSET	_PUP0bits,1
                                           ;	.line	931; "MC32P7351.c"	P01OE = 0;
000357   d391     bclr    0x191, 0x1       	BCLR	_OEP0bits,1
                                           ;	.line	934; "MC32P7351.c"	P00PD = 1;
000358   c193     bset    0x193, 0         	BSET	_PDP0bits,0
                                           ;	.line	935; "MC32P7351.c"	P00OE = 0;
000359   d191     bclr    0x191, 0         	BCLR	_OEP0bits,0
                                           ;	.line	937; "MC32P7351.c"	HFEN = 0; // ąŘ±Ő¸ßËŮĘ±ÖÓ
00035a   d1ae     bclr    0x1ae, 0         	BCLR	_OSCMRbits,0
                                           ;	.line	938; "MC32P7351.c"	LFEN = 1;
00035b   c3ae     bset    0x1ae, 0x1       	BSET	_OSCMRbits,1
                                           ;	.line	941; "MC32P7351.c"	Nop();
00035c   0000     nop                      	nop	
                                           ;	.line	942; "MC32P7351.c"	Nop();
00035d   0000     nop                      	nop	
                                           ;	.line	943; "MC32P7351.c"	Stop();
00035e   000b     stop                     	stop	
                                           ;	.line	944; "MC32P7351.c"	Nop();
00035f   0000     nop                      	nop	
                                           ;	.line	945; "MC32P7351.c"	Nop();
000360   0000     nop                      	nop	
                                           ;	.line	947; "MC32P7351.c"	HFEN = 1; // żŞĆô¸ßËŮĘ±ÖÓ
000361   c1ae     bset    0x1ae, 0         	BSET	_OSCMRbits,0
                                           ;	.line	949; "MC32P7351.c"	CLR_RAM();
000362   86c2     call    0x6c2            	CALL	_CLR_RAM
                                           ;	.line	951; "MC32P7351.c"	adc_config();
000363   86b6     call    0x6b6            	CALL	_adc_config
                                           ;	.line	952; "MC32P7351.c"	adc_sel_pin(ADC_PIN_P00_AN0);
000364   3c01     movai   0x1              	MOVAI	0x01
000365   869f     call    0x69f            	CALL	_adc_sel_pin
                                           ;	.line	953; "MC32P7351.c"	adc_val = adc_get_val();
000366   8602     call    0x602            	CALL	_adc_get_val
000367   5682     movra   0x82             	MOVRA	(_adc_val + 1)
000368   5806     movar   0x6              	MOVAR	STK00
000369   5681     movra   0x81             	MOVRA	_adc_val
                                           ;;unsigned compare: left < lit(0x800=2048), size=2
                                           ;	.line	955; "MC32P7351.c"	if (adc_val < ADCDETECT_CHARING_THRESHOLD && P01D)
00036a   3c08     movai   0x8              	MOVAI	0x08
00036b   4882     rsubar  0x82             	RSUBAR	(_adc_val + 1)
00036c   e587     jbset   0x187, 0x2       	JBSET	PFLAG,2
00036d   a370     goto    0x370            	GOTO	_00795_DS_
00036e   3c00     movai   0                	MOVAI	0x00
00036f   4881     rsubar  0x81             	RSUBAR	_adc_val
                                           _00795_DS_
000370   f187     jbclr   0x187, 0         	JBCLR	PFLAG,0
000371   a374     goto    0x374            	GOTO	_00771_DS_
                                           ;;genSkipc:3291: created from rifx:013B5EFC
000372   f390     jbclr   0x190, 0x1       	JBCLR	_IOP0bits,1
000373   a348     goto    0x348            	GOTO	_00763_DS_
                                           _00771_DS_
                                           ;	.line	981; "MC32P7351.c"	Sys_Init();
000374   85c9     call    0x5c9            	CALL	_Sys_Init
                                           _00773_DS_
                                           ;	.line	985; "MC32P7351.c"	}
000375   000c     return                   	RETURN	
                                           ; exit point of _low_power_scan_handle
                                           
                                           ;***
                                           ;  pBlock Stats: dbName = C
                                           ;***
                                           ;entry:  _shutdown_scan_handle	;Function start
                                           ; 2 exit points
                                           ;has an exit
                                           ;; Starting pCode block
                                           _shutdown_scan_handle	;Function start
                                           ; 2 exit points
                                           ;	.line	850; "MC32P7351.c"	if (FLAG_IS_DEVICE_OPEN)
000376   e095     jbset   0x95, 0          	JBSET	_flag1,0
000377   a394     goto    0x394            	GOTO	_00741_DS_
                                           ;;unsigned compare: left < lit(0xDBBA0=900000), size=4
                                           ;	.line	854; "MC32P7351.c"	if (shut_down_ms_cnt >= 900000)
000378   3c00     movai   0                	MOVAI	0x00
000379   4874     rsubar  0x74             	RSUBAR	(_shut_down_ms_cnt + 3)
00037a   e587     jbset   0x187, 0x2       	JBSET	PFLAG,2
00037b   a386     goto    0x386            	GOTO	_00753_DS_
00037c   3c0d     movai   0xd              	MOVAI	0x0d
00037d   4873     rsubar  0x73             	RSUBAR	(_shut_down_ms_cnt + 2)
00037e   e587     jbset   0x187, 0x2       	JBSET	PFLAG,2
00037f   a386     goto    0x386            	GOTO	_00753_DS_
000380   3cbb     movai   0xbb             	MOVAI	0xbb
000381   4872     rsubar  0x72             	RSUBAR	(_shut_down_ms_cnt + 1)
000382   e587     jbset   0x187, 0x2       	JBSET	PFLAG,2
000383   a386     goto    0x386            	GOTO	_00753_DS_
000384   3ca0     movai   0xa0             	MOVAI	0xa0
000385   4871     rsubar  0x71             	RSUBAR	_shut_down_ms_cnt
                                           _00753_DS_
000386   e187     jbset   0x187, 0         	JBSET	PFLAG,0
000387   a398     goto    0x398            	GOTO	_00743_DS_
                                           ;;genSkipc:3291: created from rifx:013B5EFC
                                           ;	.line	857; "MC32P7351.c"	LED_WORKING_OFF(); // ąŘ±ŐµçÔ´Ö¸ĘľµĆ
000388   c994     bset    0x194, 0x4       	BSET	_IOP1bits,4
                                           ;	.line	858; "MC32P7351.c"	LED_CHARGING_OFF();
000389   c990     bset    0x190, 0x4       	BSET	_IOP0bits,4
                                           ;	.line	859; "MC32P7351.c"	HEATING_OFF(); // ąŘ±ŐĽÓČČ
00038a   d594     bclr    0x194, 0x2       	BCLR	_IOP1bits,2
                                           ;	.line	860; "MC32P7351.c"	FLAG_IS_HEATING = 0;
00038b   d295     bclr    0x95, 0x1        	BCLR	_flag1,1
                                           ;	.line	861; "MC32P7351.c"	mode_flag = MODE_4; // ĎÂŇ»´ÎÇĐ»»ÄŁĘ˝Ę±Ł¬»á±äłÉ MODE_1
00038c   3c03     movai   0x3              	MOVAI	0x03
00038d   568c     movra   0x8c             	MOVRA	_mode_flag
                                           ;	.line	863; "MC32P7351.c"	PWM0EC = 0;
00038e   dd98     bclr    0x198, 0x6       	BCLR	_T0CRbits,6
                                           ;	.line	864; "MC32P7351.c"	PWM1EC = 0;
00038f   dd9c     bclr    0x19c, 0x6       	BCLR	_T1CRbits,6
                                           ;	.line	866; "MC32P7351.c"	FLAG_IS_DEVICE_OPEN = 0;
000390   d095     bclr    0x95, 0          	BCLR	_flag1,0
                                           ;	.line	867; "MC32P7351.c"	inflation_ctl_status = INFLATION_CTL_STATUS_DEFLATION;
000391   3c02     movai   0x2              	MOVAI	0x02
000392   5692     movra   0x92             	MOVRA	_inflation_ctl_status
000393   a398     goto    0x398            	GOTO	_00743_DS_
                                           _00741_DS_
                                           ;	.line	873; "MC32P7351.c"	shut_down_ms_cnt = 0;
000394   7671     clrr    0x71             	CLRR	_shut_down_ms_cnt
000395   7672     clrr    0x72             	CLRR	(_shut_down_ms_cnt + 1)
000396   7673     clrr    0x73             	CLRR	(_shut_down_ms_cnt + 2)
000397   7674     clrr    0x74             	CLRR	(_shut_down_ms_cnt + 3)
                                           _00743_DS_
                                           ;	.line	875; "MC32P7351.c"	}
000398   000c     return                   	RETURN	
                                           ; exit point of _shutdown_scan_handle
                                           
                                           ;***
                                           ;  pBlock Stats: dbName = C
                                           ;***
                                           ;entry:  _turn_dir_scan_handle	;Function start
                                           ; 2 exit points
                                           ;has an exit
                                           ;functions called:
                                           ;   _delay_ms
                                           ;   _delay_ms
                                           ;   _delay_ms
                                           ;   _delay_ms
                                           ;1 compiler assigned register :
                                           ;   STK00
                                           ;; Starting pCode block
                                           _turn_dir_scan_handle	;Function start
                                           ; 2 exit points
                                           ;	.line	815; "MC32P7351.c"	if (FLAG_IS_DEVICE_OPEN)
000399   e095     jbset   0x95, 0          	JBSET	_flag1,0
00039a   a3c4     goto    0x3c4            	GOTO	_00708_DS_
                                           ;;unsigned compare: left < lit(0x1D4C0=120000), size=4
                                           ;	.line	819; "MC32P7351.c"	if (turn_dir_ms_cnt >= (120000) ||
00039b   3c00     movai   0                	MOVAI	0x00
00039c   4870     rsubar  0x70             	RSUBAR	(_turn_dir_ms_cnt + 3)
00039d   e587     jbset   0x187, 0x2       	JBSET	PFLAG,2
00039e   a3a9     goto    0x3a9            	GOTO	_00724_DS_
00039f   3c01     movai   0x1              	MOVAI	0x01
0003a0   486f     rsubar  0x6f             	RSUBAR	(_turn_dir_ms_cnt + 2)
0003a1   e587     jbset   0x187, 0x2       	JBSET	PFLAG,2
0003a2   a3a9     goto    0x3a9            	GOTO	_00724_DS_
0003a3   3cd4     movai   0xd4             	MOVAI	0xd4
0003a4   486e     rsubar  0x6e             	RSUBAR	(_turn_dir_ms_cnt + 1)
0003a5   e587     jbset   0x187, 0x2       	JBSET	PFLAG,2
0003a6   a3a9     goto    0x3a9            	GOTO	_00724_DS_
0003a7   3cc0     movai   0xc0             	MOVAI	0xc0
0003a8   486d     rsubar  0x6d             	RSUBAR	_turn_dir_ms_cnt
                                           _00724_DS_
0003a9   f187     jbclr   0x187, 0         	JBCLR	PFLAG,0
0003aa   a3ad     goto    0x3ad            	GOTO	_00704_DS_
                                           ;;genSkipc:3291: created from rifx:013B5EFC
                                           ;	.line	820; "MC32P7351.c"	flag_ctl_dir)
0003ab   e097     jbset   0x97, 0          	JBSET	_flag3,0
0003ac   a3c8     goto    0x3c8            	GOTO	_00710_DS_
                                           _00704_DS_
                                           ;	.line	822; "MC32P7351.c"	if (0 == FLAG_DIR)
0003ad   f695     jbclr   0x95, 0x3        	JBCLR	_flag1,3
0003ae   a3b7     goto    0x3b7            	GOTO	_00702_DS_
                                           ;	.line	824; "MC32P7351.c"	PWM1EC = 0;
0003af   dd9c     bclr    0x19c, 0x6       	BCLR	_T1CRbits,6
                                           ;	.line	825; "MC32P7351.c"	delay_ms(1000);
0003b0   3ce8     movai   0xe8             	MOVAI	0xe8
0003b1   5606     movra   0x6              	MOVRA	STK00
0003b2   3c03     movai   0x3              	MOVAI	0x03
0003b3   86ce     call    0x6ce            	CALL	_delay_ms
                                           ;	.line	826; "MC32P7351.c"	PWM0EC = 1;
0003b4   cd98     bset    0x198, 0x6       	BSET	_T0CRbits,6
                                           ;	.line	827; "MC32P7351.c"	FLAG_DIR = 1; //
0003b5   c695     bset    0x95, 0x3        	BSET	_flag1,3
0003b6   a3be     goto    0x3be            	GOTO	_00703_DS_
                                           _00702_DS_
                                           ;	.line	831; "MC32P7351.c"	PWM0EC = 0; //
0003b7   dd98     bclr    0x198, 0x6       	BCLR	_T0CRbits,6
                                           ;	.line	832; "MC32P7351.c"	delay_ms(1000);
0003b8   3ce8     movai   0xe8             	MOVAI	0xe8
0003b9   5606     movra   0x6              	MOVRA	STK00
0003ba   3c03     movai   0x3              	MOVAI	0x03
0003bb   86ce     call    0x6ce            	CALL	_delay_ms
                                           ;	.line	833; "MC32P7351.c"	PWM1EC = 1;   //
0003bc   cd9c     bset    0x19c, 0x6       	BSET	_T1CRbits,6
                                           ;	.line	834; "MC32P7351.c"	FLAG_DIR = 0; //
0003bd   d695     bclr    0x95, 0x3        	BCLR	_flag1,3
                                           _00703_DS_
                                           ;	.line	837; "MC32P7351.c"	flag_ctl_dir = 0;
0003be   d097     bclr    0x97, 0          	BCLR	_flag3,0
                                           ;	.line	838; "MC32P7351.c"	turn_dir_ms_cnt = 0;
0003bf   766d     clrr    0x6d             	CLRR	_turn_dir_ms_cnt
0003c0   766e     clrr    0x6e             	CLRR	(_turn_dir_ms_cnt + 1)
0003c1   766f     clrr    0x6f             	CLRR	(_turn_dir_ms_cnt + 2)
0003c2   7670     clrr    0x70             	CLRR	(_turn_dir_ms_cnt + 3)
0003c3   a3c8     goto    0x3c8            	GOTO	_00710_DS_
                                           _00708_DS_
                                           ;	.line	843; "MC32P7351.c"	turn_dir_ms_cnt = 0; // Éč±¸Î´ÔËĐĐĘ±Ł¬ÇĺżŐĽĆĘýÖµ
0003c4   766d     clrr    0x6d             	CLRR	_turn_dir_ms_cnt
0003c5   766e     clrr    0x6e             	CLRR	(_turn_dir_ms_cnt + 1)
0003c6   766f     clrr    0x6f             	CLRR	(_turn_dir_ms_cnt + 2)
0003c7   7670     clrr    0x70             	CLRR	(_turn_dir_ms_cnt + 3)
                                           _00710_DS_
                                           ;	.line	845; "MC32P7351.c"	}
0003c8   000c     return                   	RETURN	
                                           ; exit point of _turn_dir_scan_handle
                                           
                                           ;***
                                           ;  pBlock Stats: dbName = C
                                           ;***
                                           ;entry:  _adc_scan_handle	;Function start
                                           ; 2 exit points
                                           ;has an exit
                                           ;functions called:
                                           ;   _adc_sel_pin
                                           ;   _adc_get_val
                                           ;   _key_event_handle
                                           ;   _adc_sel_pin
                                           ;   _adc_get_val
                                           ;   _key_event_handle
                                           ;   _adc_sel_pin
                                           ;   _adc_get_val
                                           ;   _key_event_handle
                                           ;   _adc_sel_pin
                                           ;   _adc_get_val
                                           ;   _key_event_handle
                                           ;1 compiler assigned register :
                                           ;   STK00
                                           ;; Starting pCode block
                                           _adc_scan_handle	;Function start
                                           ; 2 exit points
                                           ;	.line	532; "MC32P7351.c"	volatile u8 cnt = 0;             // ĽĆĘýÖµŁ¬ÓĂÓÚĽě˛âµçłŘĘÇ·ńÂúµçŁ¬Ň˛ĘÇÓĂÓÚĽě˛âĘÇ·ń˛ĺČë/°ÎłöłäµçĆ÷µÄĽĆĘýÖµ
0003c9   7628     clrr    0x28             	CLRR	_adc_scan_handle_cnt_65536_94
                                           ;	.line	533; "MC32P7351.c"	volatile u8 need_charge_cnt = 0; // ĽĆĘýÖµŁ¬ÓĂÓÚĽě˛âĘÇ·ńŇŞżěËŮłäµç
0003ca   7629     clrr    0x29             	CLRR	_adc_scan_handle_need_charge_cnt_65536_94
                                           ;	.line	535; "MC32P7351.c"	adc_bat_val = 0;
0003cb   7675     clrr    0x75             	CLRR	_adc_bat_val
0003cc   7676     clrr    0x76             	CLRR	(_adc_bat_val + 1)
0003cd   7677     clrr    0x77             	CLRR	(_adc_bat_val + 2)
0003ce   7678     clrr    0x78             	CLRR	(_adc_bat_val + 3)
                                           ;	.line	536; "MC32P7351.c"	adc_charging_val = 0;
0003cf   7683     clrr    0x83             	CLRR	_adc_charging_val
0003d0   7684     clrr    0x84             	CLRR	(_adc_charging_val + 1)
                                           ;	.line	538; "MC32P7351.c"	adc_sel_pin(ADC_PIN_P02_AN1); // ÇĐ»»µ˝Ľě˛âµçłŘ˝µŃąşóµÄµçŃąµÄĽě˛âŇý˝Ĺ
0003d1   3c02     movai   0x2              	MOVAI	0x02
0003d2   869f     call    0x69f            	CALL	_adc_sel_pin
                                           ;	.line	539; "MC32P7351.c"	for (i = 0; i < 10; i++)      //  // Ăż55ms˝řČëŇ»´ÎŁ¬Ń­»·ÄÚĂż´ÎĽä¸ôÔĽ4.8ms
0003d3   768e     clrr    0x8e             	CLRR	_i
                                           ;;unsigned compare: left < lit(0xA=10), size=1
                                           _00524_DS_
0003d4   3c0a     movai   0xa              	MOVAI	0x0a
0003d5   488e     rsubar  0x8e             	RSUBAR	_i
0003d6   f187     jbclr   0x187, 0         	JBCLR	PFLAG,0
0003d7   a489     goto    0x489            	GOTO	_00483_DS_
                                           ;;genSkipc:3291: created from rifx:013B5EFC
                                           ;	.line	541; "MC32P7351.c"	adc_val = adc_get_val();
0003d8   8602     call    0x602            	CALL	_adc_get_val
0003d9   5682     movra   0x82             	MOVRA	(_adc_val + 1)
0003da   5806     movar   0x6              	MOVAR	STK00
0003db   5681     movra   0x81             	MOVRA	_adc_val
                                           ;	.line	543; "MC32P7351.c"	if (i == 0)
0003dc   3c00     movai   0                	MOVAI	0x00
0003dd   5c8e     orar    0x8e             	ORAR	_i
0003de   e587     jbset   0x187, 0x2       	JBSET	PFLAG,2
0003df   a3e6     goto    0x3e6            	GOTO	_00410_DS_
                                           ;	.line	545; "MC32P7351.c"	adc_bat_val = adc_val;
0003e0   5881     movar   0x81             	MOVAR	_adc_val
0003e1   5675     movra   0x75             	MOVRA	_adc_bat_val
0003e2   5882     movar   0x82             	MOVAR	(_adc_val + 1)
0003e3   5676     movra   0x76             	MOVRA	(_adc_bat_val + 1)
0003e4   7677     clrr    0x77             	CLRR	(_adc_bat_val + 2)
0003e5   7678     clrr    0x78             	CLRR	(_adc_bat_val + 3)
                                           _00410_DS_
                                           ;	.line	548; "MC32P7351.c"	if (FLAG_IS_IN_CHARGING)
0003e6   e495     jbset   0x95, 0x2        	JBSET	_flag1,2
0003e7   a442     goto    0x442            	GOTO	_00481_DS_
                                           ;;unsigned compare: left < lit(0xF52=3922), size=2
                                           ;	.line	551; "MC32P7351.c"	if (adc_val >= ADCDETECT_BAT_FULL + ADCDETECT_BAT_NULL_EX)
0003e8   3c0f     movai   0xf              	MOVAI	0x0f
0003e9   4882     rsubar  0x82             	RSUBAR	(_adc_val + 1)
0003ea   e587     jbset   0x187, 0x2       	JBSET	PFLAG,2
0003eb   a3ee     goto    0x3ee            	GOTO	_00680_DS_
0003ec   3c52     movai   0x52             	MOVAI	0x52
0003ed   4881     rsubar  0x81             	RSUBAR	_adc_val
                                           _00680_DS_
0003ee   e187     jbset   0x187, 0         	JBSET	PFLAG,0
0003ef   a3f2     goto    0x3f2            	GOTO	_00412_DS_
                                           ;;genSkipc:3291: created from rifx:013B5EFC
                                           ;	.line	554; "MC32P7351.c"	T2DATA = 0;
0003f0   77a3     clrr    0x1a3            	CLRR	_T2DATA
                                           ;	.line	555; "MC32P7351.c"	over_charging_cnt++;
0003f1   6690     incr    0x90             	INCR	_over_charging_cnt
                                           ;;unsigned compare: left < lit(0xE3A=3642), size=2
                                           _00412_DS_
                                           ;	.line	558; "MC32P7351.c"	if (adc_val >= ADCDETECT_BAT_FULL) // Ľě˛âµçłŘĘÇ·ńÂúµç
0003f2   3c0e     movai   0xe              	MOVAI	0x0e
0003f3   4882     rsubar  0x82             	RSUBAR	(_adc_val + 1)
0003f4   e587     jbset   0x187, 0x2       	JBSET	PFLAG,2
0003f5   a3f8     goto    0x3f8            	GOTO	_00681_DS_
0003f6   3c3a     movai   0x3a             	MOVAI	0x3a
0003f7   4881     rsubar  0x81             	RSUBAR	_adc_val
                                           _00681_DS_
0003f8   e187     jbset   0x187, 0         	JBSET	PFLAG,0
0003f9   a3fc     goto    0x3fc            	GOTO	_00416_DS_
                                           ;;genSkipc:3291: created from rifx:013B5EFC
                                           ;	.line	560; "MC32P7351.c"	cnt++;
0003fa   6628     incr    0x28             	INCR	_adc_scan_handle_cnt_65536_94
0003fb   a405     goto    0x405            	GOTO	_00417_DS_
                                           ;;unsigned compare: left < lit(0xD90=3472), size=2
                                           _00416_DS_
                                           ;	.line	562; "MC32P7351.c"	else if (adc_val < ADCDETECT_BAT_WILL_FULL) // Ľě˛âĘÇ·ńŇŞżěËŮłäµç
0003fc   3c0d     movai   0xd              	MOVAI	0x0d
0003fd   4882     rsubar  0x82             	RSUBAR	(_adc_val + 1)
0003fe   e587     jbset   0x187, 0x2       	JBSET	PFLAG,2
0003ff   a402     goto    0x402            	GOTO	_00682_DS_
000400   3c90     movai   0x90             	MOVAI	0x90
000401   4881     rsubar  0x81             	RSUBAR	_adc_val
                                           _00682_DS_
000402   f187     jbclr   0x187, 0         	JBCLR	PFLAG,0
000403   a405     goto    0x405            	GOTO	_00417_DS_
                                           ;;genSkipc:3291: created from rifx:013B5EFC
                                           ;	.line	564; "MC32P7351.c"	need_charge_cnt++;
000404   6629     incr    0x29             	INCR	_adc_scan_handle_need_charge_cnt_65536_94
                                           ;;unsigned compare: left < lit(0xAB3420=11220000), size=4
                                           _00417_DS_
                                           ;	.line	568; "MC32P7351.c"	if (charge_time_cnt >= ((u32)3 * 60 * 60 * 1000 + (u32)7 * 60 * 1000) && 0 == flag_is_led_breath_disable) // 3h7min
000405   3c00     movai   0                	MOVAI	0x00
000406   4880     rsubar  0x80             	RSUBAR	(_charge_time_cnt + 3)
000407   e587     jbset   0x187, 0x2       	JBSET	PFLAG,2
000408   a413     goto    0x413            	GOTO	_00683_DS_
000409   3cab     movai   0xab             	MOVAI	0xab
00040a   487f     rsubar  0x7f             	RSUBAR	(_charge_time_cnt + 2)
00040b   e587     jbset   0x187, 0x2       	JBSET	PFLAG,2
00040c   a413     goto    0x413            	GOTO	_00683_DS_
00040d   3c34     movai   0x34             	MOVAI	0x34
00040e   487e     rsubar  0x7e             	RSUBAR	(_charge_time_cnt + 1)
00040f   e587     jbset   0x187, 0x2       	JBSET	PFLAG,2
000410   a413     goto    0x413            	GOTO	_00683_DS_
000411   3c20     movai   0x20             	MOVAI	0x20
000412   487d     rsubar  0x7d             	RSUBAR	_charge_time_cnt
                                           _00683_DS_
000413   e187     jbset   0x187, 0         	JBSET	PFLAG,0
000414   a41a     goto    0x41a            	GOTO	_00425_DS_
                                           ;;genSkipc:3291: created from rifx:013B5EFC
000415   fe95     jbclr   0x95, 0x7        	JBCLR	_flag1,7
000416   a41a     goto    0x41a            	GOTO	_00425_DS_
                                           ;	.line	574; "MC32P7351.c"	flag_is_led_breath_disable = 1;
000417   ce95     bset    0x95, 0x7        	BSET	_flag1,7
                                           ;	.line	575; "MC32P7351.c"	LED_CHARGING_OFF(); // ąŘ±ŐłäµçÖ¸ĘľµĆ
000418   c990     bset    0x190, 0x4       	BSET	_IOP0bits,4
                                           ;	.line	576; "MC32P7351.c"	LED_WORKING_ON();   // ´ňżŞµçÔ´Ö¸ĘľµĆŁ¬±íĘľłäÂúµç
000419   d994     bclr    0x194, 0x4       	BCLR	_IOP1bits,4
                                           _00425_DS_
                                           ;	.line	579; "MC32P7351.c"	if (flag_bat_is_empty)
00041a   ee97     jbset   0x97, 0x7        	JBSET	_flag3,7
00041b   a422     goto    0x422            	GOTO	_00446_DS_
                                           ;	.line	583; "MC32P7351.c"	LED_CHARGING_OFF(); // ąŘ±ŐłäµçÖ¸ĘľµĆ
00041c   c990     bset    0x190, 0x4       	BSET	_IOP0bits,4
                                           ;	.line	584; "MC32P7351.c"	PWM2EC = 0;         // ąŘ±ŐżŘÖĆÉýŃąµçÂ·µÄpwmŁ¨˝¨ŇéĘÇŁ¬˛ĺÉĎłäÇ®Ć÷Ę±Ł¬˛»ąŘ±ŐżŘÖĆÉýŃąµçÂ·µÄPWMŁ¬µ«ĘÇÔÚ˛âĘÔĘ±Ł¬łäµçŇ»˛ŕ»áŃĎÖŘ·˘ČČŁ©
00041d   dda0     bclr    0x1a0, 0x6       	BCLR	_T2CRbits,6
                                           ;	.line	585; "MC32P7351.c"	T2DATA = 0;
00041e   77a3     clrr    0x1a3            	CLRR	_T2DATA
                                           ;	.line	586; "MC32P7351.c"	FLAG_BAT_IS_NEED_CHARGE = 0;
00041f   d895     bclr    0x95, 0x4        	BCLR	_flag1,4
                                           ;	.line	587; "MC32P7351.c"	flag_bat_is_empty = 1; // ±ęÖľÎ»ÖĂŇ»Ł¬ÔÚÖ÷Ń­»·ČĂÂĚµĆżěÉÁ
000420   ce97     bset    0x97, 0x7        	BSET	_flag3,7
                                           ;	.line	589; "MC32P7351.c"	break;
000421   a489     goto    0x489            	GOTO	_00483_DS_
                                           ;;unsigned compare: left < lit(0x8=8), size=1
                                           _00446_DS_
                                           ;	.line	591; "MC32P7351.c"	else if (cnt >= 8 || over_charging_cnt >= 8)
000422   3c08     movai   0x8              	MOVAI	0x08
000423   4828     rsubar  0x28             	RSUBAR	_adc_scan_handle_cnt_65536_94
000424   f187     jbclr   0x187, 0         	JBCLR	PFLAG,0
000425   a42a     goto    0x42a            	GOTO	_00441_DS_
                                           ;;genSkipc:3291: created from rifx:013B5EFC
                                           ;;unsigned compare: left < lit(0x8=8), size=1
000426   3c08     movai   0x8              	MOVAI	0x08
000427   4890     rsubar  0x90             	RSUBAR	_over_charging_cnt
000428   e187     jbset   0x187, 0         	JBSET	PFLAG,0
000429   a43b     goto    0x43b            	GOTO	_00442_DS_
                                           ;;genSkipc:3291: created from rifx:013B5EFC
                                           _00441_DS_
                                           ;	.line	594; "MC32P7351.c"	full_charge_cnt++;
00042a   6691     incr    0x91             	INCR	_full_charge_cnt
                                           ;;unsigned compare: left < lit(0x64=100), size=1
                                           ;	.line	595; "MC32P7351.c"	if (full_charge_cnt >= 100 || over_charging_cnt >= 8) // 5.5s»ňŐßĘÇÁ¬Đř´Ą·˘ÁËČô¸É´Îąýłä±Ł»¤
00042b   3c64     movai   0x64             	MOVAI	0x64
00042c   4891     rsubar  0x91             	RSUBAR	_full_charge_cnt
00042d   f187     jbclr   0x187, 0         	JBCLR	PFLAG,0
00042e   a433     goto    0x433            	GOTO	_00436_DS_
                                           ;;genSkipc:3291: created from rifx:013B5EFC
                                           ;;unsigned compare: left < lit(0x8=8), size=1
00042f   3c08     movai   0x8              	MOVAI	0x08
000430   4890     rsubar  0x90             	RSUBAR	_over_charging_cnt
000431   e187     jbset   0x187, 0         	JBSET	PFLAG,0
000432   a486     goto    0x486            	GOTO	_00482_DS_
                                           ;;genSkipc:3291: created from rifx:013B5EFC
                                           _00436_DS_
                                           ;	.line	597; "MC32P7351.c"	full_charge_cnt = 0; //
000433   7691     clrr    0x91             	CLRR	_full_charge_cnt
                                           ;	.line	599; "MC32P7351.c"	PWM2EC = 0; // ąŘ±ŐżŘÖĆÉýŃąµçÂ·µÄpwm
000434   dda0     bclr    0x1a0, 0x6       	BCLR	_T2CRbits,6
                                           ;	.line	600; "MC32P7351.c"	T2DATA = 0;
000435   77a3     clrr    0x1a3            	CLRR	_T2DATA
                                           ;	.line	602; "MC32P7351.c"	FLAG_BAT_IS_NEED_CHARGE = 0;
000436   d895     bclr    0x95, 0x4        	BCLR	_flag1,4
                                           ;	.line	603; "MC32P7351.c"	FLAG_BAT_IS_FULL = 1;
000437   ca95     bset    0x95, 0x5        	BSET	_flag1,5
                                           ;	.line	605; "MC32P7351.c"	LED_CHARGING_OFF(); // ąŘ±ŐłäµçÖ¸ĘľµĆ
000438   c990     bset    0x190, 0x4       	BSET	_IOP0bits,4
                                           ;	.line	608; "MC32P7351.c"	LED_WORKING_ON(); // ´ňżŞµçÔ´Ö¸ĘľµĆŁ¬±íĘľłäÂúµç
000439   d994     bclr    0x194, 0x4       	BCLR	_IOP1bits,4
                                           ;	.line	609; "MC32P7351.c"	break;
00043a   a489     goto    0x489            	GOTO	_00483_DS_
                                           ;;unsigned compare: left < lit(0x8=8), size=1
                                           _00442_DS_
                                           ;	.line	612; "MC32P7351.c"	else if (need_charge_cnt >= 8)
00043b   3c08     movai   0x8              	MOVAI	0x08
00043c   4829     rsubar  0x29             	RSUBAR	_adc_scan_handle_need_charge_cnt_65536_94
00043d   e187     jbset   0x187, 0         	JBSET	PFLAG,0
00043e   a486     goto    0x486            	GOTO	_00482_DS_
                                           ;;genSkipc:3291: created from rifx:013B5EFC
                                           ;	.line	617; "MC32P7351.c"	FLAG_BAT_IS_NEED_CHARGE = 1;
00043f   c895     bset    0x95, 0x4        	BSET	_flag1,4
                                           ;	.line	618; "MC32P7351.c"	FLAG_BAT_IS_FULL = 0;
000440   da95     bclr    0x95, 0x5        	BCLR	_flag1,5
                                           ;	.line	619; "MC32P7351.c"	break;
000441   a489     goto    0x489            	GOTO	_00483_DS_
                                           _00481_DS_
                                           ;	.line	625; "MC32P7351.c"	if (flag_bat_is_empty == 0 && adc_val <= ADCDETECT_BAT_FULL - ((ADCDETECT_BAT_FULL - ADCDETECT_BAT_WILL_FULL) / 2))
000442   fe97     jbclr   0x97, 0x7        	JBCLR	_flag3,7
000443   a44d     goto    0x44d            	GOTO	_00449_DS_
                                           ;;swapping arguments (AOP_TYPEs 1/3)
                                           ;;unsigned compare: left >= lit(0xDE6=3558), size=2
000444   3c0d     movai   0xd              	MOVAI	0x0d
000445   4882     rsubar  0x82             	RSUBAR	(_adc_val + 1)
000446   e587     jbset   0x187, 0x2       	JBSET	PFLAG,2
000447   a44a     goto    0x44a            	GOTO	_00689_DS_
000448   3ce6     movai   0xe6             	MOVAI	0xe6
000449   4881     rsubar  0x81             	RSUBAR	_adc_val
                                           _00689_DS_
00044a   f187     jbclr   0x187, 0         	JBCLR	PFLAG,0
00044b   a44d     goto    0x44d            	GOTO	_00449_DS_
                                           ;;genSkipc:3291: created from rifx:013B5EFC
                                           ;	.line	627; "MC32P7351.c"	cnt++;
00044c   6628     incr    0x28             	INCR	_adc_scan_handle_cnt_65536_94
                                           ;;unsigned compare: left < lit(0x8=8), size=1
                                           _00449_DS_
                                           ;	.line	630; "MC32P7351.c"	if (cnt >= 8)
00044d   3c08     movai   0x8              	MOVAI	0x08
00044e   4828     rsubar  0x28             	RSUBAR	_adc_scan_handle_cnt_65536_94
00044f   e187     jbset   0x187, 0         	JBSET	PFLAG,0
000450   a454     goto    0x454            	GOTO	_00452_DS_
                                           ;;genSkipc:3291: created from rifx:013B5EFC
                                           ;	.line	633; "MC32P7351.c"	FLAG_BAT_IS_NEED_CHARGE = 1;
000451   c895     bset    0x95, 0x4        	BSET	_flag1,4
                                           ;	.line	634; "MC32P7351.c"	FLAG_BAT_IS_FULL = 0;
000452   da95     bclr    0x95, 0x5        	BCLR	_flag1,5
                                           ;	.line	635; "MC32P7351.c"	break;
000453   a489     goto    0x489            	GOTO	_00483_DS_
                                           _00452_DS_
                                           ;	.line	639; "MC32P7351.c"	flag_bat_is_empty == 0 &&  /* µçłŘ˛»ÎŞżŐ */
000454   fe97     jbclr   0x97, 0x7        	JBCLR	_flag3,7
000455   a462     goto    0x462            	GOTO	_00459_DS_
                                           ;	.line	640; "MC32P7351.c"	FLAG_IS_DEVICE_OPEN &&     /* Éč±¸ŐýÔÚÔËĐĐ */
000456   e095     jbset   0x95, 0          	JBSET	_flag1,0
000457   a462     goto    0x462            	GOTO	_00459_DS_
                                           ;;unsigned compare: left < lit(0xA93=2707), size=2
                                           ;	.line	642; "MC32P7351.c"	)
000458   3c0a     movai   0xa              	MOVAI	0x0a
000459   4882     rsubar  0x82             	RSUBAR	(_adc_val + 1)
00045a   e587     jbset   0x187, 0x2       	JBSET	PFLAG,2
00045b   a45e     goto    0x45e            	GOTO	_00691_DS_
00045c   3c93     movai   0x93             	MOVAI	0x93
00045d   4881     rsubar  0x81             	RSUBAR	_adc_val
                                           _00691_DS_
00045e   f187     jbclr   0x187, 0         	JBCLR	PFLAG,0
00045f   a462     goto    0x462            	GOTO	_00459_DS_
                                           ;;genSkipc:3291: created from rifx:013B5EFC
                                           ;	.line	644; "MC32P7351.c"	flag_tim_scan_maybe_shut_down = 1;
000460   c697     bset    0x97, 0x3        	BSET	_flag3,3
000461   a473     goto    0x473            	GOTO	_00460_DS_
                                           _00459_DS_
                                           ;	.line	646; "MC32P7351.c"	else if (flag_bat_is_empty == 0 &&
000462   fe97     jbclr   0x97, 0x7        	JBCLR	_flag3,7
000463   a471     goto    0x471            	GOTO	_00454_DS_
                                           ;	.line	647; "MC32P7351.c"	FLAG_IS_DEVICE_OPEN &&
000464   e095     jbset   0x95, 0          	JBSET	_flag1,0
000465   a471     goto    0x471            	GOTO	_00454_DS_
                                           ;;unsigned compare: left < lit(0xB15=2837), size=2
                                           ;	.line	648; "MC32P7351.c"	adc_val < LOW_BATTERY_AD_VAL)
000466   3c0b     movai   0xb              	MOVAI	0x0b
000467   4882     rsubar  0x82             	RSUBAR	(_adc_val + 1)
000468   e587     jbset   0x187, 0x2       	JBSET	PFLAG,2
000469   a46c     goto    0x46c            	GOTO	_00692_DS_
00046a   3c15     movai   0x15             	MOVAI	0x15
00046b   4881     rsubar  0x81             	RSUBAR	_adc_val
                                           _00692_DS_
00046c   f187     jbclr   0x187, 0         	JBCLR	PFLAG,0
00046d   a471     goto    0x471            	GOTO	_00454_DS_
                                           ;;genSkipc:3291: created from rifx:013B5EFC
                                           ;	.line	651; "MC32P7351.c"	flag_maybe_low_battery = 1;
00046e   c497     bset    0x97, 0x2        	BSET	_flag3,2
                                           ;	.line	652; "MC32P7351.c"	flag_tim_scan_maybe_shut_down = 0;
00046f   d697     bclr    0x97, 0x3        	BCLR	_flag3,3
000470   a473     goto    0x473            	GOTO	_00460_DS_
                                           _00454_DS_
                                           ;	.line	656; "MC32P7351.c"	flag_maybe_low_battery = 0;
000471   d497     bclr    0x97, 0x2        	BCLR	_flag3,2
                                           ;	.line	657; "MC32P7351.c"	flag_tim_scan_maybe_shut_down = 0;
000472   d697     bclr    0x97, 0x3        	BCLR	_flag3,3
                                           _00460_DS_
                                           ;	.line	661; "MC32P7351.c"	if (flag_is_needed_shut_down && FLAG_IS_DEVICE_OPEN)
000473   e897     jbset   0x97, 0x4        	JBSET	_flag3,4
000474   a486     goto    0x486            	GOTO	_00482_DS_
000475   e095     jbset   0x95, 0          	JBSET	_flag1,0
000476   a486     goto    0x486            	GOTO	_00482_DS_
                                           ;	.line	663; "MC32P7351.c"	flag_is_needed_shut_down = 0;
000477   d897     bclr    0x97, 0x4        	BCLR	_flag3,4
                                           ;	.line	665; "MC32P7351.c"	LED_WORKING_OFF(); // ąŘ±ŐµçÔ´Ö¸ĘľµĆ
000478   c994     bset    0x194, 0x4       	BSET	_IOP1bits,4
                                           ;	.line	666; "MC32P7351.c"	LED_CHARGING_OFF();
000479   c990     bset    0x190, 0x4       	BSET	_IOP0bits,4
                                           ;	.line	667; "MC32P7351.c"	HEATING_OFF(); // ąŘ±ŐĽÓČČ
00047a   d594     bclr    0x194, 0x2       	BCLR	_IOP1bits,2
                                           ;	.line	668; "MC32P7351.c"	FLAG_IS_DEVICE_OPEN = 0;
00047b   d095     bclr    0x95, 0          	BCLR	_flag1,0
                                           ;	.line	669; "MC32P7351.c"	FLAG_IS_HEATING = 0;
00047c   d295     bclr    0x95, 0x1        	BCLR	_flag1,1
                                           ;	.line	671; "MC32P7351.c"	if (flag_is_low_battery)
00047d   e496     jbset   0x96, 0x2        	JBSET	_flag2,2
00047e   a481     goto    0x481            	GOTO	_00476_DS_
                                           ;	.line	674; "MC32P7351.c"	flag_is_low_battery = 0;
00047f   d496     bclr    0x96, 0x2        	BCLR	_flag2,2
                                           ;	.line	675; "MC32P7351.c"	LED_CHARGING_OFF(); // ąŘ±ŐÓĂÓÚ±¨ľŻµÄLED
000480   c990     bset    0x190, 0x4       	BSET	_IOP0bits,4
                                           _00476_DS_
                                           ;	.line	678; "MC32P7351.c"	mode_flag = MODE_1; // ĎÂŇ»´ÎÇĐ»»ÄŁĘ˝Ę±Ł¬»á±äłÉ MODE_2
000481   768c     clrr    0x8c             	CLRR	_mode_flag
                                           ;	.line	681; "MC32P7351.c"	PWM0EC = 0;
000482   dd98     bclr    0x198, 0x6       	BCLR	_T0CRbits,6
                                           ;	.line	682; "MC32P7351.c"	PWM1EC = 0;
000483   dd9c     bclr    0x19c, 0x6       	BCLR	_T1CRbits,6
                                           ;	.line	684; "MC32P7351.c"	inflation_ctl_status = INFLATION_CTL_STATUS_DEFLATION; // ·ĹĆř
000484   3c02     movai   0x2              	MOVAI	0x02
000485   5692     movra   0x92             	MOVRA	_inflation_ctl_status
                                           _00482_DS_
                                           ;	.line	689; "MC32P7351.c"	key_event_handle();
000486   84ec     call    0x4ec            	CALL	_key_event_handle
                                           ;	.line	539; "MC32P7351.c"	for (i = 0; i < 10; i++)      //  // Ăż55ms˝řČëŇ»´ÎŁ¬Ń­»·ÄÚĂż´ÎĽä¸ôÔĽ4.8ms
000487   668e     incr    0x8e             	INCR	_i
000488   a3d4     goto    0x3d4            	GOTO	_00524_DS_
                                           _00483_DS_
                                           ;	.line	692; "MC32P7351.c"	cnt = 0;
000489   7628     clrr    0x28             	CLRR	_adc_scan_handle_cnt_65536_94
                                           ;	.line	693; "MC32P7351.c"	adc_sel_pin(ADC_PIN_P00_AN0); // ÇĐ»»µ˝Ľě˛âłäµçµÄµçŃąĽě˛âŇý˝Ĺ(Ľě˛âµ˝µÄłäµçµçŃą == USB-CżÚµçŃą / 2)
00048a   3c01     movai   0x1              	MOVAI	0x01
00048b   869f     call    0x69f            	CALL	_adc_sel_pin
                                           ;	.line	694; "MC32P7351.c"	for (i = 0; i < 10; i++)
00048c   768e     clrr    0x8e             	CLRR	_i
                                           ;;unsigned compare: left < lit(0xA=10), size=1
                                           _00527_DS_
00048d   3c0a     movai   0xa              	MOVAI	0x0a
00048e   488e     rsubar  0x8e             	RSUBAR	_i
00048f   f187     jbclr   0x187, 0         	JBCLR	PFLAG,0
000490   a4eb     goto    0x4eb            	GOTO	_00529_DS_
                                           ;;genSkipc:3291: created from rifx:013B5EFC
                                           ;	.line	696; "MC32P7351.c"	adc_val = adc_get_val();
000491   8602     call    0x602            	CALL	_adc_get_val
000492   5682     movra   0x82             	MOVRA	(_adc_val + 1)
000493   5806     movar   0x6              	MOVAR	STK00
000494   5681     movra   0x81             	MOVRA	_adc_val
                                           ;	.line	697; "MC32P7351.c"	if (flag_bat_is_empty) // ČçąűµçłŘÎŞżŐ
000495   ee97     jbset   0x97, 0x7        	JBSET	_flag3,7
000496   a49b     goto    0x49b            	GOTO	_00485_DS_
                                           ;	.line	699; "MC32P7351.c"	adc_val = 4095; // ·ŔÖą˝řČëĎÂĂćµÄif (adc_val < ADCDETECT_CHARING_THRESHOLD)
000497   3cff     movai   0xff             	MOVAI	0xff
000498   5681     movra   0x81             	MOVRA	_adc_val
000499   3c0f     movai   0xf              	MOVAI	0x0f
00049a   5682     movra   0x82             	MOVRA	(_adc_val + 1)
                                           _00485_DS_
                                           ;	.line	702; "MC32P7351.c"	if (adc_charging_val != 0)
00049b   5883     movar   0x83             	MOVAR	_adc_charging_val
00049c   5c84     orar    0x84             	ORAR	(_adc_charging_val + 1)
00049d   f587     jbclr   0x187, 0x2       	JBCLR	PFLAG,2
00049e   a4a9     goto    0x4a9            	GOTO	_00487_DS_
                                           ;	.line	704; "MC32P7351.c"	adc_charging_val += adc_val;
00049f   5881     movar   0x81             	MOVAR	_adc_val
0004a0   7e83     addra   0x83             	ADDRA	_adc_charging_val
0004a1   5882     movar   0x82             	MOVAR	(_adc_val + 1)
0004a2   f187     jbclr   0x187, 0         	JBCLR	PFLAG,0
0004a3   6082     jzar    0x82             	JZAR	(_adc_val + 1)
0004a4   7e84     addra   0x84             	ADDRA	(_adc_charging_val + 1)
                                           ;;shiftRight_Left2ResultLit:5339: shCount=1, size=2, sign=0, same=1, offr=0
                                           ;	.line	705; "MC32P7351.c"	adc_charging_val /= 2;
0004a5   d187     bclr    0x187, 0         	BCLR	PFLAG,0
0004a6   4e84     rrr     0x84             	RRR	(_adc_charging_val + 1)
0004a7   4e83     rrr     0x83             	RRR	_adc_charging_val
0004a8   a4af     goto    0x4af            	GOTO	_00488_DS_
                                           _00487_DS_
                                           ;	.line	709; "MC32P7351.c"	adc_charging_val += adc_val;
0004a9   5881     movar   0x81             	MOVAR	_adc_val
0004aa   7e83     addra   0x83             	ADDRA	_adc_charging_val
0004ab   5882     movar   0x82             	MOVAR	(_adc_val + 1)
0004ac   f187     jbclr   0x187, 0         	JBCLR	PFLAG,0
0004ad   6082     jzar    0x82             	JZAR	(_adc_val + 1)
0004ae   7e84     addra   0x84             	ADDRA	(_adc_charging_val + 1)
                                           _00488_DS_
                                           ;	.line	712; "MC32P7351.c"	if (FLAG_IS_IN_CHARGING)
0004af   e495     jbset   0x95, 0x2        	JBSET	_flag1,2
0004b0   a4ca     goto    0x4ca            	GOTO	_00520_DS_
                                           ;;unsigned compare: left < lit(0x800=2048), size=2
                                           ;	.line	715; "MC32P7351.c"	if (adc_val < ADCDETECT_CHARING_THRESHOLD)
0004b1   3c08     movai   0x8              	MOVAI	0x08
0004b2   4882     rsubar  0x82             	RSUBAR	(_adc_val + 1)
0004b3   e587     jbset   0x187, 0x2       	JBSET	PFLAG,2
0004b4   a4b7     goto    0x4b7            	GOTO	_00694_DS_
0004b5   3c00     movai   0                	MOVAI	0x00
0004b6   4881     rsubar  0x81             	RSUBAR	_adc_val
                                           _00694_DS_
0004b7   f187     jbclr   0x187, 0         	JBCLR	PFLAG,0
0004b8   a4ba     goto    0x4ba            	GOTO	_00490_DS_
                                           ;;genSkipc:3291: created from rifx:013B5EFC
                                           ;	.line	717; "MC32P7351.c"	cnt++;
0004b9   6628     incr    0x28             	INCR	_adc_scan_handle_cnt_65536_94
                                           ;;unsigned compare: left < lit(0x8=8), size=1
                                           _00490_DS_
                                           ;	.line	720; "MC32P7351.c"	if (cnt >= 8)
0004ba   3c08     movai   0x8              	MOVAI	0x08
0004bb   4828     rsubar  0x28             	RSUBAR	_adc_scan_handle_cnt_65536_94
0004bc   e187     jbset   0x187, 0         	JBSET	PFLAG,0
0004bd   a4c4     goto    0x4c4            	GOTO	_00498_DS_
                                           ;;genSkipc:3291: created from rifx:013B5EFC
                                           ;	.line	723; "MC32P7351.c"	FLAG_IS_IN_CHARGING = 0;
0004be   d495     bclr    0x95, 0x2        	BCLR	_flag1,2
                                           ;	.line	724; "MC32P7351.c"	LED_CHARGING_OFF(); // ąŘ±ŐłäµçÖ¸ĘľµĆ
0004bf   c990     bset    0x190, 0x4       	BSET	_IOP0bits,4
                                           ;	.line	725; "MC32P7351.c"	PWM2EC = 0;         // ąŘ±ŐżŘÖĆÉýŃąµçÂ·µÄpwm
0004c0   dda0     bclr    0x1a0, 0x6       	BCLR	_T2CRbits,6
                                           ;	.line	726; "MC32P7351.c"	T2DATA = 0;
0004c1   77a3     clrr    0x1a3            	CLRR	_T2DATA
                                           ;	.line	728; "MC32P7351.c"	LED_WORKING_OFF(); // ąŘ±ŐµçłŘłäÂúµçµÄÖ¸ĘľµĆŁ¨°×µĆŁ©
0004c2   c994     bset    0x194, 0x4       	BSET	_IOP1bits,4
                                           ;	.line	731; "MC32P7351.c"	break;
0004c3   a4eb     goto    0x4eb            	GOTO	_00529_DS_
                                           _00498_DS_
                                           ;	.line	734; "MC32P7351.c"	if (FLAG_IS_DEVICE_OPEN)
0004c4   f095     jbclr   0x95, 0          	JBCLR	_flag1,0
0004c5   a4e8     goto    0x4e8            	GOTO	_00521_DS_
                                           ;	.line	739; "MC32P7351.c"	if (FLAG_BAT_IS_FULL)
0004c6   fa95     jbclr   0x95, 0x5        	JBCLR	_flag1,5
0004c7   a4e8     goto    0x4e8            	GOTO	_00521_DS_
                                           ;	.line	746; "MC32P7351.c"	LED_WORKING_OFF();
0004c8   c994     bset    0x194, 0x4       	BSET	_IOP1bits,4
0004c9   a4e8     goto    0x4e8            	GOTO	_00521_DS_
                                           _00520_DS_
                                           ;	.line	754; "MC32P7351.c"	if (flag_bat_is_empty == 0 && adc_val >= ADCDETECT_CHARING_THRESHOLD)
0004ca   fe97     jbclr   0x97, 0x7        	JBCLR	_flag3,7
0004cb   a4d5     goto    0x4d5            	GOTO	_00509_DS_
                                           ;;unsigned compare: left < lit(0x800=2048), size=2
0004cc   3c08     movai   0x8              	MOVAI	0x08
0004cd   4882     rsubar  0x82             	RSUBAR	(_adc_val + 1)
0004ce   e587     jbset   0x187, 0x2       	JBSET	PFLAG,2
0004cf   a4d2     goto    0x4d2            	GOTO	_00696_DS_
0004d0   3c00     movai   0                	MOVAI	0x00
0004d1   4881     rsubar  0x81             	RSUBAR	_adc_val
                                           _00696_DS_
0004d2   e187     jbset   0x187, 0         	JBSET	PFLAG,0
0004d3   a4d5     goto    0x4d5            	GOTO	_00509_DS_
                                           ;;genSkipc:3291: created from rifx:013B5EFC
                                           ;	.line	756; "MC32P7351.c"	cnt++;
0004d4   6628     incr    0x28             	INCR	_adc_scan_handle_cnt_65536_94
                                           ;;unsigned compare: left < lit(0x8=8), size=1
                                           _00509_DS_
                                           ;	.line	759; "MC32P7351.c"	if (cnt >= 8)
0004d5   3c08     movai   0x8              	MOVAI	0x08
0004d6   4828     rsubar  0x28             	RSUBAR	_adc_scan_handle_cnt_65536_94
0004d7   e187     jbset   0x187, 0         	JBSET	PFLAG,0
0004d8   a4e8     goto    0x4e8            	GOTO	_00521_DS_
                                           ;;genSkipc:3291: created from rifx:013B5EFC
                                           ;	.line	765; "MC32P7351.c"	full_charge_cnt = 0;
0004d9   7691     clrr    0x91             	CLRR	_full_charge_cnt
                                           ;	.line	766; "MC32P7351.c"	over_charging_cnt = 0;
0004da   7690     clrr    0x90             	CLRR	_over_charging_cnt
                                           ;	.line	768; "MC32P7351.c"	FLAG_IS_IN_CHARGING = 1;
0004db   c495     bset    0x95, 0x2        	BSET	_flag1,2
                                           ;	.line	771; "MC32P7351.c"	PWM2EC = 1; // żŞĆôżŘÖĆÉýŃąµçÂ·µÄpwm
0004dc   cda0     bset    0x1a0, 0x6       	BSET	_T2CRbits,6
                                           ;	.line	773; "MC32P7351.c"	LED_WORKING_OFF(); // ąŘ±ŐµçÔ´Ö¸ĘľµĆ
0004dd   c994     bset    0x194, 0x4       	BSET	_IOP1bits,4
                                           ;	.line	774; "MC32P7351.c"	HEATING_OFF();     // ąŘ±ŐĽÓČČ
0004de   d594     bclr    0x194, 0x2       	BCLR	_IOP1bits,2
                                           ;	.line	775; "MC32P7351.c"	FLAG_IS_DEVICE_OPEN = 0;
0004df   d095     bclr    0x95, 0          	BCLR	_flag1,0
                                           ;	.line	776; "MC32P7351.c"	FLAG_IS_HEATING = 0;
0004e0   d295     bclr    0x95, 0x1        	BCLR	_flag1,1
                                           ;	.line	777; "MC32P7351.c"	mode_flag = MODE_1; // ĎÂŇ»´ÎÇĐ»»ÄŁĘ˝Ę±Ł¬»á±äłÉ MODE_2
0004e1   768c     clrr    0x8c             	CLRR	_mode_flag
                                           ;	.line	779; "MC32P7351.c"	PWM0EC = 0;
0004e2   dd98     bclr    0x198, 0x6       	BCLR	_T0CRbits,6
                                           ;	.line	780; "MC32P7351.c"	PWM1EC = 0;
0004e3   dd9c     bclr    0x19c, 0x6       	BCLR	_T1CRbits,6
                                           ;	.line	781; "MC32P7351.c"	inflation_ctl_status = INFLATION_CTL_STATUS_DEFLATION; // ·ĹĆř
0004e4   3c02     movai   0x2              	MOVAI	0x02
0004e5   5692     movra   0x92             	MOVRA	_inflation_ctl_status
                                           ;	.line	783; "MC32P7351.c"	flag_is_low_battery = 0; // Çĺłý¸Ă±ęÖľÎ»
0004e6   d496     bclr    0x96, 0x2        	BCLR	_flag2,2
                                           ;	.line	784; "MC32P7351.c"	break;
0004e7   a4eb     goto    0x4eb            	GOTO	_00529_DS_
                                           _00521_DS_
                                           ;	.line	809; "MC32P7351.c"	key_event_handle();
0004e8   84ec     call    0x4ec            	CALL	_key_event_handle
                                           ;	.line	694; "MC32P7351.c"	for (i = 0; i < 10; i++)
0004e9   668e     incr    0x8e             	INCR	_i
0004ea   a48d     goto    0x48d            	GOTO	_00527_DS_
                                           _00529_DS_
                                           ;	.line	811; "MC32P7351.c"	}
0004eb   000c     return                   	RETURN	
                                           ; exit point of _adc_scan_handle
                                           
                                           ;***
                                           ;  pBlock Stats: dbName = C
                                           ;***
                                           ;entry:  _key_event_handle	;Function start
                                           ; 2 exit points
                                           ;has an exit
                                           ;; Starting pCode block
                                           _key_event_handle	;Function start
                                           ; 2 exit points
                                           ;	.line	403; "MC32P7351.c"	if (FLAG_IS_DEVICE_OPEN)
0004ec   e095     jbset   0x95, 0          	JBSET	_flag1,0
0004ed   a54b     goto    0x54b            	GOTO	_00403_DS_
                                           ;	.line	406; "MC32P7351.c"	if (KEY_EVENT_MODE_HOLD == key_event)
0004ee   588b     movar   0x8b             	MOVAR	_key_event
0004ef   3903     xorai   0x3              	XORAI	0x03
0004f0   e587     jbset   0x187, 0x2       	JBSET	PFLAG,2
0004f1   a501     goto    0x501            	GOTO	_00391_DS_
                                           ;	.line	409; "MC32P7351.c"	LED_WORKING_OFF(); // ąŘ±ŐµçÔ´Ö¸ĘľµĆ
0004f2   c994     bset    0x194, 0x4       	BSET	_IOP1bits,4
                                           ;	.line	410; "MC32P7351.c"	LED_CHARGING_OFF();
0004f3   c990     bset    0x190, 0x4       	BSET	_IOP0bits,4
                                           ;	.line	411; "MC32P7351.c"	HEATING_OFF(); // ąŘ±ŐĽÓČČ
0004f4   d594     bclr    0x194, 0x2       	BCLR	_IOP1bits,2
                                           ;	.line	412; "MC32P7351.c"	FLAG_IS_DEVICE_OPEN = 0;
0004f5   d095     bclr    0x95, 0          	BCLR	_flag1,0
                                           ;	.line	413; "MC32P7351.c"	FLAG_IS_HEATING = 0;
0004f6   d295     bclr    0x95, 0x1        	BCLR	_flag1,1
                                           ;	.line	415; "MC32P7351.c"	if (flag_is_low_battery)
0004f7   e496     jbset   0x96, 0x2        	JBSET	_flag2,2
0004f8   a4fb     goto    0x4fb            	GOTO	_00352_DS_
                                           ;	.line	418; "MC32P7351.c"	flag_is_low_battery = 0;
0004f9   d496     bclr    0x96, 0x2        	BCLR	_flag2,2
                                           ;	.line	419; "MC32P7351.c"	LED_CHARGING_OFF(); // ąŘ±ŐÓĂÓÚ±¨ľŻµÄLED
0004fa   c990     bset    0x190, 0x4       	BSET	_IOP0bits,4
                                           _00352_DS_
                                           ;	.line	422; "MC32P7351.c"	mode_flag = MODE_1; // ĎÂŇ»´ÎÇĐ»»ÄŁĘ˝Ę±Ł¬»á±äłÉ MODE_2
0004fb   768c     clrr    0x8c             	CLRR	_mode_flag
                                           ;	.line	425; "MC32P7351.c"	PWM0EC = 0;
0004fc   dd98     bclr    0x198, 0x6       	BCLR	_T0CRbits,6
                                           ;	.line	426; "MC32P7351.c"	PWM1EC = 0;
0004fd   dd9c     bclr    0x19c, 0x6       	BCLR	_T1CRbits,6
                                           ;	.line	428; "MC32P7351.c"	inflation_ctl_status = INFLATION_CTL_STATUS_DEFLATION; // ·ĹĆř
0004fe   3c02     movai   0x2              	MOVAI	0x02
0004ff   5692     movra   0x92             	MOVRA	_inflation_ctl_status
000500   a55c     goto    0x55c            	GOTO	_00404_DS_
                                           _00391_DS_
                                           ;	.line	430; "MC32P7351.c"	else if (KEY_EVENT_MODE_PRESS == key_event)
000501   588b     movar   0x8b             	MOVAR	_key_event
000502   3902     xorai   0x2              	XORAI	0x02
000503   e587     jbset   0x187, 0x2       	JBSET	PFLAG,2
000504   a53b     goto    0x53b            	GOTO	_00388_DS_
                                           ;	.line	432; "MC32P7351.c"	if (MODE_1 == mode_flag)
000505   3c00     movai   0                	MOVAI	0x00
000506   5c8c     orar    0x8c             	ORAR	_mode_flag
000507   e587     jbset   0x187, 0x2       	JBSET	PFLAG,2
000508   a511     goto    0x511            	GOTO	_00362_DS_
                                           ;	.line	438; "MC32P7351.c"	T0DATA = (u8)((u32)172 * 87 / 100);
000509   3c95     movai   0x95             	MOVAI	0x95
00050a   579b     movra   0x19b            	MOVRA	_T0DATA
                                           ;	.line	439; "MC32P7351.c"	T1DATA = (u8)((u32)172 * 87 / 100);
00050b   3c95     movai   0x95             	MOVAI	0x95
00050c   579f     movra   0x19f            	MOVRA	_T1DATA
                                           ;	.line	441; "MC32P7351.c"	mode_flag = MODE_2;
00050d   3c01     movai   0x1              	MOVAI	0x01
00050e   568c     movra   0x8c             	MOVRA	_mode_flag
                                           ;	.line	442; "MC32P7351.c"	flag_ctl_dir = 1;
00050f   c097     bset    0x97, 0          	BSET	_flag3,0
000510   a536     goto    0x536            	GOTO	_00363_DS_
                                           _00362_DS_
                                           ;	.line	444; "MC32P7351.c"	else if (MODE_2 == mode_flag)
000511   588c     movar   0x8c             	MOVAR	_mode_flag
000512   3901     xorai   0x1              	XORAI	0x01
000513   e587     jbset   0x187, 0x2       	JBSET	PFLAG,2
000514   a51d     goto    0x51d            	GOTO	_00359_DS_
                                           ;	.line	447; "MC32P7351.c"	T0DATA = 255;
000515   3cff     movai   0xff             	MOVAI	0xff
000516   579b     movra   0x19b            	MOVRA	_T0DATA
                                           ;	.line	448; "MC32P7351.c"	T1DATA = 255; // 100%ŐĽżŐ±ČŁ¨Č·±Ł´óÓÚTxLOADµÄÖµľÍżÉŇÔŁ©
000517   3cff     movai   0xff             	MOVAI	0xff
000518   579f     movra   0x19f            	MOVRA	_T1DATA
                                           ;	.line	450; "MC32P7351.c"	mode_flag = MODE_3;
000519   3c02     movai   0x2              	MOVAI	0x02
00051a   568c     movra   0x8c             	MOVRA	_mode_flag
                                           ;	.line	451; "MC32P7351.c"	flag_ctl_dir = 1;
00051b   c097     bset    0x97, 0          	BSET	_flag3,0
00051c   a536     goto    0x536            	GOTO	_00363_DS_
                                           _00359_DS_
                                           ;	.line	453; "MC32P7351.c"	else if (MODE_3 == mode_flag)
00051d   588c     movar   0x8c             	MOVAR	_mode_flag
00051e   3902     xorai   0x2              	XORAI	0x02
00051f   e587     jbset   0x187, 0x2       	JBSET	PFLAG,2
000520   a52a     goto    0x52a            	GOTO	_00356_DS_
                                           ;	.line	456; "MC32P7351.c"	T0DATA = 0;
000521   779b     clrr    0x19b            	CLRR	_T0DATA
                                           ;	.line	457; "MC32P7351.c"	T1DATA = 0;
000522   779f     clrr    0x19f            	CLRR	_T1DATA
                                           ;	.line	458; "MC32P7351.c"	PWM0EC = 0;
000523   dd98     bclr    0x198, 0x6       	BCLR	_T0CRbits,6
                                           ;	.line	459; "MC32P7351.c"	PWM1EC = 0;
000524   dd9c     bclr    0x19c, 0x6       	BCLR	_T1CRbits,6
                                           ;	.line	460; "MC32P7351.c"	mode_flag = MODE_4;
000525   3c03     movai   0x3              	MOVAI	0x03
000526   568c     movra   0x8c             	MOVRA	_mode_flag
                                           ;	.line	462; "MC32P7351.c"	inflation_ctl_status = INFLATION_CTL_STATUS_DEFLATION; // ·ĹĆř
000527   3c02     movai   0x2              	MOVAI	0x02
000528   5692     movra   0x92             	MOVRA	_inflation_ctl_status
000529   a536     goto    0x536            	GOTO	_00363_DS_
                                           _00356_DS_
                                           ;	.line	464; "MC32P7351.c"	else if (MODE_4 == mode_flag)
00052a   588c     movar   0x8c             	MOVAR	_mode_flag
00052b   3903     xorai   0x3              	XORAI	0x03
00052c   e587     jbset   0x187, 0x2       	JBSET	PFLAG,2
00052d   a536     goto    0x536            	GOTO	_00363_DS_
                                           ;	.line	471; "MC32P7351.c"	T0DATA = (u8)((u32)172 * 80 / 100);
00052e   3c89     movai   0x89             	MOVAI	0x89
00052f   579b     movra   0x19b            	MOVRA	_T0DATA
                                           ;	.line	472; "MC32P7351.c"	T1DATA = (u8)((u32)172 * 80 / 100);
000530   3c89     movai   0x89             	MOVAI	0x89
000531   579f     movra   0x19f            	MOVRA	_T1DATA
                                           ;	.line	473; "MC32P7351.c"	mode_flag = MODE_1;
000532   768c     clrr    0x8c             	CLRR	_mode_flag
                                           ;	.line	474; "MC32P7351.c"	flag_ctl_dir = 1;
000533   c097     bset    0x97, 0          	BSET	_flag3,0
                                           ;	.line	476; "MC32P7351.c"	inflation_ctl_status = INFLATION_CTL_STATUS_INFLATION; // łäĆř
000534   3c01     movai   0x1              	MOVAI	0x01
000535   5692     movra   0x92             	MOVRA	_inflation_ctl_status
                                           _00363_DS_
                                           ;	.line	479; "MC32P7351.c"	turn_dir_ms_cnt = 0; // ÖŘÖĂÇĐ»»·˝ĎňµÄĽĆĘý
000536   766d     clrr    0x6d             	CLRR	_turn_dir_ms_cnt
000537   766e     clrr    0x6e             	CLRR	(_turn_dir_ms_cnt + 1)
000538   766f     clrr    0x6f             	CLRR	(_turn_dir_ms_cnt + 2)
000539   7670     clrr    0x70             	CLRR	(_turn_dir_ms_cnt + 3)
00053a   a55c     goto    0x55c            	GOTO	_00404_DS_
                                           _00388_DS_
                                           ;	.line	481; "MC32P7351.c"	else if (KEY_EVENT_HEAT_PRESS == key_event)
00053b   588b     movar   0x8b             	MOVAR	_key_event
00053c   3901     xorai   0x1              	XORAI	0x01
00053d   e587     jbset   0x187, 0x2       	JBSET	PFLAG,2
00053e   a55c     goto    0x55c            	GOTO	_00404_DS_
                                           ;	.line	483; "MC32P7351.c"	if (0 == FLAG_IS_HEATING)
00053f   f295     jbclr   0x95, 0x1        	JBCLR	_flag1,1
000540   a546     goto    0x546            	GOTO	_00373_DS_
                                           ;	.line	485; "MC32P7351.c"	HEATING_ON(); // ´ňżŞĽÓČČ
000541   c594     bset    0x194, 0x2       	BSET	_IOP1bits,2
                                           ;	.line	486; "MC32P7351.c"	LED_WORKING_OFF();
000542   c994     bset    0x194, 0x4       	BSET	_IOP1bits,4
                                           ;	.line	487; "MC32P7351.c"	LED_CHARGING_ON();
000543   d990     bclr    0x190, 0x4       	BCLR	_IOP0bits,4
                                           ;	.line	488; "MC32P7351.c"	FLAG_IS_HEATING = 1;
000544   c295     bset    0x95, 0x1        	BSET	_flag1,1
000545   a55c     goto    0x55c            	GOTO	_00404_DS_
                                           _00373_DS_
                                           ;	.line	492; "MC32P7351.c"	HEATING_OFF(); // ąŘ±ŐĽÓČČ
000546   d594     bclr    0x194, 0x2       	BCLR	_IOP1bits,2
                                           ;	.line	493; "MC32P7351.c"	LED_CHARGING_OFF();
000547   c990     bset    0x190, 0x4       	BSET	_IOP0bits,4
                                           ;	.line	494; "MC32P7351.c"	LED_WORKING_ON();
000548   d994     bclr    0x194, 0x4       	BCLR	_IOP1bits,4
                                           ;	.line	495; "MC32P7351.c"	FLAG_IS_HEATING = 0;
000549   d295     bclr    0x95, 0x1        	BCLR	_flag1,1
00054a   a55c     goto    0x55c            	GOTO	_00404_DS_
                                           _00403_DS_
                                           ;	.line	502; "MC32P7351.c"	if (KEY_EVENT_MODE_HOLD == key_event && 0 == FLAG_IS_IN_CHARGING)
00054b   588b     movar   0x8b             	MOVAR	_key_event
00054c   3903     xorai   0x3              	XORAI	0x03
00054d   e587     jbset   0x187, 0x2       	JBSET	PFLAG,2
00054e   a55c     goto    0x55c            	GOTO	_00404_DS_
00054f   f495     jbclr   0x95, 0x2        	JBCLR	_flag1,2
000550   a55c     goto    0x55c            	GOTO	_00404_DS_
                                           ;	.line	505; "MC32P7351.c"	LED_CHARGING_OFF(); // ąŘ±ŐłäµçÖ¸ĘľµĆ
000551   c990     bset    0x190, 0x4       	BSET	_IOP0bits,4
                                           ;	.line	506; "MC32P7351.c"	LED_WORKING_ON();   // ´ňżŞµçÔ´Ö¸ĘľµĆ
000552   d994     bclr    0x194, 0x4       	BCLR	_IOP1bits,4
                                           ;	.line	507; "MC32P7351.c"	FLAG_IS_DEVICE_OPEN = 1;
000553   c095     bset    0x95, 0          	BSET	_flag1,0
                                           ;	.line	513; "MC32P7351.c"	T0DATA = (u8)((u32)172 * 80 / 100);
000554   3c89     movai   0x89             	MOVAI	0x89
000555   579b     movra   0x19b            	MOVRA	_T0DATA
                                           ;	.line	514; "MC32P7351.c"	T1DATA = (u8)((u32)172 * 80 / 100);
000556   3c89     movai   0x89             	MOVAI	0x89
000557   579f     movra   0x19f            	MOVRA	_T1DATA
                                           ;	.line	515; "MC32P7351.c"	mode_flag = MODE_1; // ĎÂŇ»´ÎÇĐ»»ÄŁĘ˝Ę±Ł¬»á±äłÉ MODE_2
000558   768c     clrr    0x8c             	CLRR	_mode_flag
                                           ;	.line	520; "MC32P7351.c"	PWM1EC = 1;
000559   cd9c     bset    0x19c, 0x6       	BSET	_T1CRbits,6
                                           ;	.line	522; "MC32P7351.c"	inflation_ctl_status = INFLATION_CTL_STATUS_INFLATION; // łäĆř
00055a   3c01     movai   0x1              	MOVAI	0x01
00055b   5692     movra   0x92             	MOVRA	_inflation_ctl_status
                                           _00404_DS_
                                           ;	.line	527; "MC32P7351.c"	key_event = KEY_EVENT_NONE;
00055c   768b     clrr    0x8b             	CLRR	_key_event
                                           ;	.line	528; "MC32P7351.c"	}
00055d   000c     return                   	RETURN	
                                           ; exit point of _key_event_handle
                                           
                                           ;***
                                           ;  pBlock Stats: dbName = C
                                           ;***
                                           ;entry:  _key_scan	;Function start
                                           ; 2 exit points
                                           ;has an exit
                                           ;; Starting pCode block
                                           _key_scan	;Function start
                                           ; 2 exit points
                                           ;	.line	286; "MC32P7351.c"	volatile u8 cur_key_id = KEY_ID_NONE;
00055e   7622     clrr    0x22             	CLRR	_key_scan_cur_key_id_65536_31
                                           ;	.line	290; "MC32P7351.c"	if (0 == KEY_MODE_PIN)
00055f   f390     jbclr   0x190, 0x1       	JBCLR	_IOP0bits,1
000560   a564     goto    0x564            	GOTO	_00211_DS_
                                           ;	.line	292; "MC32P7351.c"	cur_key_id = KEY_ID_MODE;
000561   3c01     movai   0x1              	MOVAI	0x01
000562   5622     movra   0x22             	MOVRA	_key_scan_cur_key_id_65536_31
000563   a568     goto    0x568            	GOTO	_00212_DS_
                                           _00211_DS_
                                           ;	.line	294; "MC32P7351.c"	else if (0 == KEY_HEAT_PIN)
000564   f394     jbclr   0x194, 0x1       	JBCLR	_IOP1bits,1
000565   a568     goto    0x568            	GOTO	_00212_DS_
                                           ;	.line	296; "MC32P7351.c"	cur_key_id = KEY_ID_HEAT;
000566   3c02     movai   0x2              	MOVAI	0x02
000567   5622     movra   0x22             	MOVRA	_key_scan_cur_key_id_65536_31
                                           _00212_DS_
                                           ;	.line	299; "MC32P7351.c"	if (cur_key_id != filter_key_id)
000568   5824     movar   0x24             	MOVAR	_key_scan_filter_key_id_65536_31
000569   4022     xorar   0x22             	XORAR	_key_scan_cur_key_id_65536_31
00056a   e587     jbset   0x187, 0x2       	JBSET	PFLAG,2
00056b   a56d     goto    0x56d            	GOTO	_00332_DS_
00056c   a571     goto    0x571            	GOTO	_00214_DS_
                                           _00332_DS_
                                           ;	.line	302; "MC32P7351.c"	filter_cnt = 0;
00056d   7623     clrr    0x23             	CLRR	_key_scan_filter_cnt_65536_31
                                           ;	.line	303; "MC32P7351.c"	filter_key_id = cur_key_id;
00056e   5822     movar   0x22             	MOVAR	_key_scan_cur_key_id_65536_31
00056f   5624     movra   0x24             	MOVRA	_key_scan_filter_key_id_65536_31
                                           ;	.line	304; "MC32P7351.c"	return;
000570   a5c8     goto    0x5c8            	GOTO	_00254_DS_
                                           ;;unsigned compare: left < lit(0x3=3), size=1
                                           _00214_DS_
                                           ;	.line	307; "MC32P7351.c"	if (filter_cnt < KEY_FILTER_TIMES)
000571   3c03     movai   0x3              	MOVAI	0x03
000572   4823     rsubar  0x23             	RSUBAR	_key_scan_filter_cnt_65536_31
000573   f187     jbclr   0x187, 0         	JBCLR	PFLAG,0
000574   a577     goto    0x577            	GOTO	_00216_DS_
                                           ;;genSkipc:3291: created from rifx:013B5EFC
                                           ;	.line	311; "MC32P7351.c"	filter_cnt++;
000575   6623     incr    0x23             	INCR	_key_scan_filter_cnt_65536_31
                                           ;	.line	312; "MC32P7351.c"	return;
000576   a5c8     goto    0x5c8            	GOTO	_00254_DS_
                                           _00216_DS_
                                           ;	.line	317; "MC32P7351.c"	if (last_key_id != cur_key_id)
000577   5822     movar   0x22             	MOVAR	_key_scan_cur_key_id_65536_31
000578   4027     xorar   0x27             	XORAR	_key_scan_last_key_id_65536_31
000579   e587     jbset   0x187, 0x2       	JBSET	PFLAG,2
00057a   a57c     goto    0x57c            	GOTO	_00334_DS_
00057b   a59e     goto    0x59e            	GOTO	_00252_DS_
                                           _00334_DS_
                                           ;	.line	319; "MC32P7351.c"	if (last_key_id == KEY_ID_NONE)
00057c   3c00     movai   0                	MOVAI	0x00
00057d   5c27     orar    0x27             	ORAR	_key_scan_last_key_id_65536_31
00057e   e587     jbset   0x187, 0x2       	JBSET	PFLAG,2
00057f   a582     goto    0x582            	GOTO	_00230_DS_
                                           ;	.line	322; "MC32P7351.c"	press_cnt = 0;
000580   7625     clrr    0x25             	CLRR	_key_scan_press_cnt_65536_31
000581   a5c6     goto    0x5c6            	GOTO	_00253_DS_
                                           _00230_DS_
                                           ;	.line	324; "MC32P7351.c"	else if (cur_key_id == KEY_ID_NONE)
000582   3c00     movai   0                	MOVAI	0x00
000583   5c22     orar    0x22             	ORAR	_key_scan_cur_key_id_65536_31
000584   e587     jbset   0x187, 0x2       	JBSET	PFLAG,2
000585   a5c6     goto    0x5c6            	GOTO	_00253_DS_
                                           ;;unsigned compare: left < lit(0x4B=75), size=1
                                           ;	.line	327; "MC32P7351.c"	if (press_cnt < 75)
000586   3c4b     movai   0x4b             	MOVAI	0x4b
000587   4825     rsubar  0x25             	RSUBAR	_key_scan_press_cnt_65536_31
000588   f187     jbclr   0x187, 0         	JBCLR	PFLAG,0
000589   a598     goto    0x598            	GOTO	_00225_DS_
                                           ;;genSkipc:3291: created from rifx:013B5EFC
                                           ;	.line	330; "MC32P7351.c"	if (KEY_ID_MODE == last_key_id)
00058a   5827     movar   0x27             	MOVAR	_key_scan_last_key_id_65536_31
00058b   3901     xorai   0x1              	XORAI	0x01
00058c   e587     jbset   0x187, 0x2       	JBSET	PFLAG,2
00058d   a591     goto    0x591            	GOTO	_00220_DS_
                                           ;	.line	333; "MC32P7351.c"	key_event = KEY_EVENT_MODE_PRESS;
00058e   3c02     movai   0x2              	MOVAI	0x02
00058f   568b     movra   0x8b             	MOVRA	_key_event
000590   a5c6     goto    0x5c6            	GOTO	_00253_DS_
                                           _00220_DS_
                                           ;	.line	339; "MC32P7351.c"	else if (KEY_ID_HEAT == last_key_id)
000591   5827     movar   0x27             	MOVAR	_key_scan_last_key_id_65536_31
000592   3902     xorai   0x2              	XORAI	0x02
000593   e587     jbset   0x187, 0x2       	JBSET	PFLAG,2
000594   a5c6     goto    0x5c6            	GOTO	_00253_DS_
                                           ;	.line	342; "MC32P7351.c"	key_event = KEY_EVENT_HEAT_PRESS;
000595   3c01     movai   0x1              	MOVAI	0x01
000596   568b     movra   0x8b             	MOVRA	_key_event
000597   a5c6     goto    0x5c6            	GOTO	_00253_DS_
                                           _00225_DS_
                                           ;	.line	350; "MC32P7351.c"	if (KEY_ID_MODE == last_key_id)
000598   5827     movar   0x27             	MOVAR	_key_scan_last_key_id_65536_31
000599   3901     xorai   0x1              	XORAI	0x01
00059a   e587     jbset   0x187, 0x2       	JBSET	PFLAG,2
00059b   a5c6     goto    0x5c6            	GOTO	_00253_DS_
                                           ;	.line	352; "MC32P7351.c"	flag_is_key_mode_hold = 0;
00059c   7626     clrr    0x26             	CLRR	_key_scan_flag_is_key_mode_hold_65536_31
00059d   a5c6     goto    0x5c6            	GOTO	_00253_DS_
                                           _00252_DS_
                                           ;	.line	357; "MC32P7351.c"	else if (cur_key_id != KEY_ID_NONE)
00059e   3c00     movai   0                	MOVAI	0x00
00059f   5c22     orar    0x22             	ORAR	_key_scan_cur_key_id_65536_31
0005a0   f587     jbclr   0x187, 0x2       	JBCLR	PFLAG,2
0005a1   a5c6     goto    0x5c6            	GOTO	_00253_DS_
                                           ;;unsigned compare: left < lit(0xFF=255), size=1
                                           ;	.line	360; "MC32P7351.c"	if (press_cnt < 255)
0005a2   3cff     movai   0xff             	MOVAI	0xff
0005a3   4825     rsubar  0x25             	RSUBAR	_key_scan_press_cnt_65536_31
0005a4   f187     jbclr   0x187, 0         	JBCLR	PFLAG,0
0005a5   a5a7     goto    0x5a7            	GOTO	_00233_DS_
                                           ;;genSkipc:3291: created from rifx:013B5EFC
                                           ;	.line	361; "MC32P7351.c"	press_cnt++;
0005a6   6625     incr    0x25             	INCR	_key_scan_press_cnt_65536_31
                                           _00233_DS_
                                           ;	.line	363; "MC32P7351.c"	if (KEY_ID_MODE == cur_key_id)
0005a7   5822     movar   0x22             	MOVAR	_key_scan_cur_key_id_65536_31
0005a8   3901     xorai   0x1              	XORAI	0x01
0005a9   e587     jbset   0x187, 0x2       	JBSET	PFLAG,2
0005aa   a5c6     goto    0x5c6            	GOTO	_00253_DS_
                                           ;	.line	365; "MC32P7351.c"	if (FLAG_IS_DEVICE_OPEN)
0005ab   e095     jbset   0x95, 0          	JBSET	_flag1,0
0005ac   a5ba     goto    0x5ba            	GOTO	_00245_DS_
                                           ;;unsigned compare: left < lit(0xC8=200), size=1
                                           ;	.line	367; "MC32P7351.c"	if (press_cnt >= 200) // 2000ms
0005ad   3cc8     movai   0xc8             	MOVAI	0xc8
0005ae   4825     rsubar  0x25             	RSUBAR	_key_scan_press_cnt_65536_31
0005af   e187     jbset   0x187, 0         	JBSET	PFLAG,0
0005b0   a5c6     goto    0x5c6            	GOTO	_00253_DS_
                                           ;;genSkipc:3291: created from rifx:013B5EFC
                                           ;	.line	369; "MC32P7351.c"	if (flag_is_key_mode_hold)
0005b1   3c00     movai   0                	MOVAI	0x00
0005b2   5c26     orar    0x26             	ORAR	_key_scan_flag_is_key_mode_hold_65536_31
0005b3   e587     jbset   0x187, 0x2       	JBSET	PFLAG,2
0005b4   a5c6     goto    0x5c6            	GOTO	_00253_DS_
                                           ;	.line	374; "MC32P7351.c"	key_event = KEY_EVENT_MODE_HOLD;
0005b5   3c03     movai   0x3              	MOVAI	0x03
0005b6   568b     movra   0x8b             	MOVRA	_key_event
                                           ;	.line	375; "MC32P7351.c"	flag_is_key_mode_hold = 1;
0005b7   3c01     movai   0x1              	MOVAI	0x01
0005b8   5626     movra   0x26             	MOVRA	_key_scan_flag_is_key_mode_hold_65536_31
0005b9   a5c6     goto    0x5c6            	GOTO	_00253_DS_
                                           ;;unsigned compare: left < lit(0x64=100), size=1
                                           _00245_DS_
                                           ;	.line	382; "MC32P7351.c"	if (press_cnt >= 100) // 1000msĽÓÉĎż´ĂĹą·»˝ĐŃµÄ1024ms
0005ba   3c64     movai   0x64             	MOVAI	0x64
0005bb   4825     rsubar  0x25             	RSUBAR	_key_scan_press_cnt_65536_31
0005bc   e187     jbset   0x187, 0         	JBSET	PFLAG,0
0005bd   a5c6     goto    0x5c6            	GOTO	_00253_DS_
                                           ;;genSkipc:3291: created from rifx:013B5EFC
                                           ;	.line	384; "MC32P7351.c"	if (flag_is_key_mode_hold)
0005be   3c00     movai   0                	MOVAI	0x00
0005bf   5c26     orar    0x26             	ORAR	_key_scan_flag_is_key_mode_hold_65536_31
0005c0   e587     jbset   0x187, 0x2       	JBSET	PFLAG,2
0005c1   a5c6     goto    0x5c6            	GOTO	_00253_DS_
                                           ;	.line	389; "MC32P7351.c"	key_event = KEY_EVENT_MODE_HOLD;
0005c2   3c03     movai   0x3              	MOVAI	0x03
0005c3   568b     movra   0x8b             	MOVRA	_key_event
                                           ;	.line	390; "MC32P7351.c"	flag_is_key_mode_hold = 1;
0005c4   3c01     movai   0x1              	MOVAI	0x01
0005c5   5626     movra   0x26             	MOVRA	_key_scan_flag_is_key_mode_hold_65536_31
                                           _00253_DS_
                                           ;	.line	397; "MC32P7351.c"	last_key_id = cur_key_id;
0005c6   5822     movar   0x22             	MOVAR	_key_scan_cur_key_id_65536_31
0005c7   5627     movra   0x27             	MOVRA	_key_scan_last_key_id_65536_31
                                           _00254_DS_
                                           ;	.line	398; "MC32P7351.c"	}
0005c8   000c     return                   	RETURN	
                                           ; exit point of _key_scan
                                           
                                           ;***
                                           ;  pBlock Stats: dbName = C
                                           ;***
                                           ;entry:  _Sys_Init	;Function start
                                           ; 2 exit points
                                           ;has an exit
                                           ;functions called:
                                           ;   _CLR_RAM
                                           ;   _adc_config
                                           ;   _delay_ms
                                           ;   _CLR_RAM
                                           ;   _adc_config
                                           ;   _delay_ms
                                           ;1 compiler assigned register :
                                           ;   STK00
                                           ;; Starting pCode block
                                           _Sys_Init	;Function start
                                           ; 2 exit points
                                           ;	.line	171; "MC32P7351.c"	GIE = 0;
0005c9   df88     bclr    0x188, 0x7       	BCLR	_MCRbits,7
                                           ;	.line	172; "MC32P7351.c"	CLR_RAM();
0005ca   86c2     call    0x6c2            	CALL	_CLR_RAM
                                           ;	.line	175; "MC32P7351.c"	IOP0 = 0x00;   // iożÚĘýľÝÎ»
0005cb   7790     clrr    0x190            	CLRR	_IOP0
                                           ;	.line	176; "MC32P7351.c"	OEP0 = 0x3F;   // iożÚ·˝Ďň 1:out  0:in
0005cc   3c3f     movai   0x3f             	MOVAI	0x3f
0005cd   5791     movra   0x191            	MOVRA	_OEP0
                                           ;	.line	177; "MC32P7351.c"	PUP0 = 0x00;   // iożÚÉĎŔ­µç×č   1:enable  0:disable
0005ce   7792     clrr    0x192            	CLRR	_PUP0
                                           ;	.line	178; "MC32P7351.c"	PDP0 = 0x00;   // iożÚĎÂŔ­µç×č   1:enable  0:disable
0005cf   7793     clrr    0x193            	CLRR	_PDP0
                                           ;	.line	179; "MC32P7351.c"	ADIOS0 = 0x00; // ioŔŕĐÍŃˇÔń  1:ÄŁÄâĘäČë  0:Í¨ÓĂio
0005d0   77b6     clrr    0x1b6            	CLRR	_ADIOS0
                                           ;	.line	181; "MC32P7351.c"	IOP1 = 0x00;   // iożÚĘýľÝÎ»
0005d1   7794     clrr    0x194            	CLRR	_IOP1
                                           ;	.line	182; "MC32P7351.c"	OEP1 = 0xFF;   // iożÚ·˝Ďň 1:out  0:in
0005d2   3cff     movai   0xff             	MOVAI	0xff
0005d3   5795     movra   0x195            	MOVRA	_OEP1
                                           ;	.line	183; "MC32P7351.c"	PUP1 = 0x00;   // iożÚÉĎŔ­µç×č   1:enable  0:disable
0005d4   7796     clrr    0x196            	CLRR	_PUP1
                                           ;	.line	184; "MC32P7351.c"	PDP1 = 0x00;   // iożÚĎÂŔ­µç×č   1:enable  0:disable
0005d5   7797     clrr    0x197            	CLRR	_PDP1
                                           ;	.line	185; "MC32P7351.c"	ADIOS1 = 0x00; // ioŔŕĐÍŃˇÔń  1:ÄŁÄâĘäČë  0:Í¨ÓĂio
0005d6   77b7     clrr    0x1b7            	CLRR	_ADIOS1
                                           ;	.line	192; "MC32P7351.c"	PMOD = 0x00 | (0x01 << 2); // P00ˇ˘P01ˇ˘P13 ĘąÄÜĘý×Öą¦ÄÜŁ¬P13ĹäÖĂÎŞÍĆÍěĘäłö
0005d7   3c04     movai   0x4              	MOVAI	0x04
0005d8   57bc     movra   0x1bc            	MOVRA	_PMOD
                                           ;	.line	193; "MC32P7351.c"	DRVCR = 0x80;              // ĆŐÍ¨Çý¶Ż
0005d9   3c80     movai   0x80             	MOVAI	0x80
0005da   578c     movra   0x18c            	MOVRA	_DRVCR
                                           ;	.line	196; "MC32P7351.c"	LED_WORKING_OFF();
0005db   c994     bset    0x194, 0x4       	BSET	_IOP1bits,4
                                           ;	.line	197; "MC32P7351.c"	LED_CHARGING_OFF();
0005dc   c990     bset    0x190, 0x4       	BSET	_IOP0bits,4
                                           ;	.line	198; "MC32P7351.c"	INFLATION_CTL_OFF();
0005dd   d790     bclr    0x190, 0x3       	BCLR	_IOP0bits,3
                                           ;	.line	199; "MC32P7351.c"	DEFLATION_CTL_OFF();
0005de   d794     bclr    0x194, 0x3       	BCLR	_IOP1bits,3
                                           ;	.line	203; "MC32P7351.c"	T0LOAD = 172 - 1;
0005df   3cab     movai   0xab             	MOVAI	0xab
0005e0   579a     movra   0x19a            	MOVRA	_T0LOAD
                                           ;	.line	205; "MC32P7351.c"	PWM0EC = 0;  // ˝űÖąPWMĘäłö
0005e1   dd98     bclr    0x198, 0x6       	BCLR	_T0CRbits,6
                                           ;	.line	206; "MC32P7351.c"	T0CR = 0x81; // ĘąÄÜ¶¨Ę±Ć÷Ł¬Ę±ÖÓÔ´ÎŞFCPUŁ¬2·ÖĆµ
0005e2   3c81     movai   0x81             	MOVAI	0x81
0005e3   5798     movra   0x198            	MOVRA	_T0CR
                                           ;	.line	213; "MC32P7351.c"	T1LOAD = 172 - 1;
0005e4   3cab     movai   0xab             	MOVAI	0xab
0005e5   579e     movra   0x19e            	MOVRA	_T1LOAD
                                           ;	.line	215; "MC32P7351.c"	PWM1EC = 0;  // ˝űÖąPWM1Ęäłö
0005e6   dd9c     bclr    0x19c, 0x6       	BCLR	_T1CRbits,6
                                           ;	.line	216; "MC32P7351.c"	T1CR = 0x81; // ĘąÄÜ¶¨Ę±Ć÷Ł¬Ę±ÖÓÔ´ÎŞFCPUŁ¬2·ÖĆµ
0005e7   3c81     movai   0x81             	MOVAI	0x81
0005e8   579c     movra   0x19c            	MOVRA	_T1CR
                                           ;	.line	221; "MC32P7351.c"	T2CKS0 = 1;
0005e9   c7a0     bset    0x1a0, 0x3       	BSET	_T2CRbits,3
                                           ;	.line	222; "MC32P7351.c"	T2CKS1 = 0;
0005ea   d9a0     bclr    0x1a0, 0x4       	BCLR	_T2CRbits,4
                                           ;	.line	224; "MC32P7351.c"	TMRCKS0 = 0;
0005eb   d7ad     bclr    0x1ad, 0x3       	BCLR	_PWMCR1bits,3
                                           ;	.line	225; "MC32P7351.c"	TMRCKS1 = 0;
0005ec   d9ad     bclr    0x1ad, 0x4       	BCLR	_PWMCR1bits,4
                                           ;	.line	226; "MC32P7351.c"	T2LOAD = 209;
0005ed   3cd1     movai   0xd1             	MOVAI	0xd1
0005ee   57a2     movra   0x1a2            	MOVRA	_T2LOAD
                                           ;	.line	228; "MC32P7351.c"	T2DATA = 0;
0005ef   77a3     clrr    0x1a3            	CLRR	_T2DATA
                                           ;	.line	229; "MC32P7351.c"	PWM2EC = 0; // ˝űÖąPWMĘäłö
0005f0   dda0     bclr    0x1a0, 0x6       	BCLR	_T2CRbits,6
                                           ;	.line	230; "MC32P7351.c"	T2EN = 1;
0005f1   cfa0     bset    0x1a0, 0x7       	BSET	_T2CRbits,7
                                           ;	.line	239; "MC32P7351.c"	T3LOAD = 25 - 1; //
0005f2   3c18     movai   0x18             	MOVAI	0x18
0005f3   57a6     movra   0x1a6            	MOVRA	_T3LOAD
                                           ;	.line	240; "MC32P7351.c"	T3CR = 0x85;     // ĘąÄÜ¶¨Ę±Ć÷Ł¬Ę±ÖÓÔ´ŃˇÔńFCPUŁ¬32·ÖĆµ
0005f4   3c85     movai   0x85             	MOVAI	0x85
0005f5   57a4     movra   0x1a4            	MOVRA	_T3CR
                                           ;	.line	241; "MC32P7351.c"	T3IE = 1;
0005f6   cf8a     bset    0x18a, 0x7       	BSET	_INTEbits,7
                                           ;	.line	247; "MC32P7351.c"	P11PU = 1; // ÉĎŔ­
0005f7   c396     bset    0x196, 0x1       	BSET	_PUP1bits,1
                                           ;	.line	248; "MC32P7351.c"	P11OE = 0; // ĘäČëÄŁĘ˝
0005f8   d395     bclr    0x195, 0x1       	BCLR	_OEP1bits,1
                                           ;	.line	251; "MC32P7351.c"	P01PU = 1; // ÉĎŔ­
0005f9   c392     bset    0x192, 0x1       	BSET	_PUP0bits,1
                                           ;	.line	252; "MC32P7351.c"	P01OE = 0; // ĘäČëÄŁĘ˝
0005fa   d391     bclr    0x191, 0x1       	BCLR	_OEP0bits,1
                                           ;	.line	254; "MC32P7351.c"	adc_config();
0005fb   86b6     call    0x6b6            	CALL	_adc_config
                                           ;	.line	256; "MC32P7351.c"	GIE = 1;
0005fc   cf88     bset    0x188, 0x7       	BSET	_MCRbits,7
                                           ;	.line	258; "MC32P7351.c"	delay_ms(1); // µČ´ýĎµÍłÎČ¶¨
0005fd   3c01     movai   0x1              	MOVAI	0x01
0005fe   5606     movra   0x6              	MOVRA	STK00
0005ff   3c00     movai   0                	MOVAI	0x00
000600   86ce     call    0x6ce            	CALL	_delay_ms
                                           ;	.line	259; "MC32P7351.c"	}
000601   000c     return                   	RETURN	
                                           ; exit point of _Sys_Init
                                           
                                           ;***
                                           ;  pBlock Stats: dbName = C
                                           ;***
                                           ;entry:  _adc_get_val	;Function start
                                           ; 2 exit points
                                           ;has an exit
                                           ;16 compiler assigned registers:
                                           ;   r0x1052
                                           ;   r0x1053
                                           ;   r0x1054
                                           ;   r0x1055
                                           ;   r0x1056
                                           ;   r0x1057
                                           ;   r0x1058
                                           ;   r0x1059
                                           ;   r0x105A
                                           ;   r0x105B
                                           ;   r0x105C
                                           ;   r0x105D
                                           ;   r0x105E
                                           ;   r0x105F
                                           ;   r0x1060
                                           ;   STK00
                                           ;; Starting pCode block
                                           _adc_get_val	;Function start
                                           ; 2 exit points
                                           ;	.line	77; "MC32P7351.c"	u32 g_tmpbuff = 0;
000602   7608     clrr    0x8              	CLRR	r0x1052
000603   7607     clrr    0x7              	CLRR	r0x1053
000604   7609     clrr    0x9              	CLRR	r0x1054
000605   760a     clrr    0xa              	CLRR	r0x1055
                                           ;	.line	78; "MC32P7351.c"	u16 g_adcmax = 0;
000606   760b     clrr    0xb              	CLRR	r0x1056
000607   760c     clrr    0xc              	CLRR	r0x1057
                                           ;	.line	79; "MC32P7351.c"	u16 g_adcmin = 0xFFFF;
000608   3cff     movai   0xff             	MOVAI	0xff
000609   560d     movra   0xd              	MOVRA	r0x1058
00060a   560e     movra   0xe              	MOVRA	r0x1059
                                           ;	.line	82; "MC32P7351.c"	for (i = 0; i < 20; i++)
00060b   760f     clrr    0xf              	CLRR	r0x105A
                                           _00158_DS_
                                           ;	.line	84; "MC32P7351.c"	ADEOC = 0; // ÇĺłýADC×Ş»»ÍęłÉ±ęÖľÎ»Ł¬Ćô¶ŻAD×Ş»»
00060c   d3b0     bclr    0x1b0, 0x1       	BCLR	_ADCR0bits,1
                                           _00147_DS_
                                           ;	.line	85; "MC32P7351.c"	while (!ADEOC)
00060d   e3b0     jbset   0x1b0, 0x1       	JBSET	_ADCR0bits,1
00060e   a60d     goto    0x60d            	GOTO	_00147_DS_
                                           ;	.line	87; "MC32P7351.c"	g_temp_value = ADRH; // Čˇłö×Ş»»şóµÄÖµ
00060f   59b4     movar   0x1b4            	MOVAR	_ADRH
000610   5610     movra   0x10             	MOVRA	r0x105B
000611   7611     clrr    0x11             	CLRR	r0x105C
                                           ;	.line	88; "MC32P7351.c"	g_temp_value = g_temp_value << 4 | (ADRL & 0x0F);
000612   4411     swapar  0x11             	SWAPAR	r0x105C
000613   3ef0     andai   0xf0             	ANDAI	0xf0
000614   5613     movra   0x13             	MOVRA	r0x105D
000615   4410     swapar  0x10             	SWAPAR	r0x105B
000616   5612     movra   0x12             	MOVRA	r0x105E
000617   3e0f     andai   0xf              	ANDAI	0x0f
000618   5e13     orra    0x13             	ORRA	r0x105D
000619   4212     xorra   0x12             	XORRA	r0x105E
00061a   59b5     movar   0x1b5            	MOVAR	_ADRL
00061b   5610     movra   0x10             	MOVRA	r0x105B
00061c   7611     clrr    0x11             	CLRR	r0x105C
00061d   3c0f     movai   0xf              	MOVAI	0x0f
00061e   7a10     andra   0x10             	ANDRA	r0x105B
00061f   7611     clrr    0x11             	CLRR	r0x105C
                                           ;;114	MOVAR	r0x105B
000620   3c00     movai   0                	MOVAI	0x00
000621   5615     movra   0x15             	MOVRA	r0x1060
                                           ;;113	MOVAR	r0x105F
000622   5810     movar   0x10             	MOVAR	r0x105B
000623   5614     movra   0x14             	MOVRA	r0x105F
000624   5c12     orar    0x12             	ORAR	r0x105E
000625   5610     movra   0x10             	MOVRA	r0x105B
000626   5815     movar   0x15             	MOVAR	r0x1060
000627   5c13     orar    0x13             	ORAR	r0x105D
000628   5611     movra   0x11             	MOVRA	r0x105C
                                           ;;unsigned compare: left < lit(0x2=2), size=1
                                           ;	.line	89; "MC32P7351.c"	if (i < 2)
000629   3c02     movai   0x2              	MOVAI	0x02
00062a   480f     rsubar  0xf              	RSUBAR	r0x105A
00062b   e187     jbset   0x187, 0         	JBSET	PFLAG,0
00062c   a657     goto    0x657            	GOTO	_00156_DS_
                                           ;;genSkipc:3291: created from rifx:013B5EFC
                                           ;	.line	91; "MC32P7351.c"	if (g_temp_value > g_adcmax)
00062d   5811     movar   0x11             	MOVAR	r0x105C
00062e   480c     rsubar  0xc              	RSUBAR	r0x1057
00062f   e587     jbset   0x187, 0x2       	JBSET	PFLAG,2
000630   a633     goto    0x633            	GOTO	_00198_DS_
000631   5810     movar   0x10             	MOVAR	r0x105B
000632   480b     rsubar  0xb              	RSUBAR	r0x1056
                                           _00198_DS_
000633   f187     jbclr   0x187, 0         	JBCLR	PFLAG,0
000634   a639     goto    0x639            	GOTO	_00153_DS_
                                           ;;genSkipc:3291: created from rifx:013B5EFC
                                           ;	.line	92; "MC32P7351.c"	g_adcmax = g_temp_value; // ×î´ó
000635   5810     movar   0x10             	MOVAR	r0x105B
000636   560b     movra   0xb              	MOVRA	r0x1056
000637   5811     movar   0x11             	MOVAR	r0x105C
000638   560c     movra   0xc              	MOVRA	r0x1057
                                           _00153_DS_
                                           ;	.line	93; "MC32P7351.c"	if (g_temp_value < g_adcmin)
000639   580e     movar   0xe              	MOVAR	r0x1059
00063a   4811     rsubar  0x11             	RSUBAR	r0x105C
00063b   e587     jbset   0x187, 0x2       	JBSET	PFLAG,2
00063c   a63f     goto    0x63f            	GOTO	_00199_DS_
00063d   580d     movar   0xd              	MOVAR	r0x1058
00063e   4810     rsubar  0x10             	RSUBAR	r0x105B
                                           _00199_DS_
00063f   f187     jbclr   0x187, 0         	JBCLR	PFLAG,0
000640   a645     goto    0x645            	GOTO	_00155_DS_
                                           ;;genSkipc:3291: created from rifx:013B5EFC
                                           ;	.line	94; "MC32P7351.c"	g_adcmin = g_temp_value; // ×îĐˇ
000641   5810     movar   0x10             	MOVAR	r0x105B
000642   560d     movra   0xd              	MOVRA	r0x1058
000643   5811     movar   0x11             	MOVAR	r0x105C
000644   560e     movra   0xe              	MOVRA	r0x1059
                                           ;;110	MOVAR	r0x105B
                                           ;;112	MOVAR	r0x105C
                                           _00155_DS_
                                           ;	.line	95; "MC32P7351.c"	g_tmpbuff += g_temp_value;
000645   7614     clrr    0x14             	CLRR	r0x105F
000646   7615     clrr    0x15             	CLRR	r0x1060
                                           ;;109	MOVAR	r0x105E
000647   5810     movar   0x10             	MOVAR	r0x105B
000648   5612     movra   0x12             	MOVRA	r0x105E
000649   7e08     addra   0x8              	ADDRA	r0x1052
                                           ;;111	MOVAR	r0x105D
00064a   5811     movar   0x11             	MOVAR	r0x105C
00064b   5613     movra   0x13             	MOVRA	r0x105D
00064c   f187     jbclr   0x187, 0         	JBCLR	PFLAG,0
00064d   6013     jzar    0x13             	JZAR	r0x105D
00064e   7e07     addra   0x7              	ADDRA	r0x1053
00064f   5814     movar   0x14             	MOVAR	r0x105F
000650   f187     jbclr   0x187, 0         	JBCLR	PFLAG,0
000651   6014     jzar    0x14             	JZAR	r0x105F
000652   7e09     addra   0x9              	ADDRA	r0x1054
000653   5815     movar   0x15             	MOVAR	r0x1060
000654   f187     jbclr   0x187, 0         	JBCLR	PFLAG,0
000655   6015     jzar    0x15             	JZAR	r0x1060
000656   7e0a     addra   0xa              	ADDRA	r0x1055
                                           _00156_DS_
                                           ;	.line	82; "MC32P7351.c"	for (i = 0; i < 20; i++)
000657   660f     incr    0xf              	INCR	r0x105A
                                           ;;unsigned compare: left < lit(0x14=20), size=1
000658   3c14     movai   0x14             	MOVAI	0x14
000659   480f     rsubar  0xf              	RSUBAR	r0x105A
00065a   e187     jbset   0x187, 0         	JBSET	PFLAG,0
00065b   a60c     goto    0x60c            	GOTO	_00158_DS_
                                           ;;genSkipc:3291: created from rifx:013B5EFC
                                           ;;108	MOVAR	r0x1056
                                           ;	.line	97; "MC32P7351.c"	g_tmpbuff -= g_adcmax;           // ČĄµôŇ»¸ö×î´ó
00065c   580c     movar   0xc              	MOVAR	r0x1057
00065d   5610     movra   0x10             	MOVRA	r0x105B
00065e   7611     clrr    0x11             	CLRR	r0x105C
00065f   7612     clrr    0x12             	CLRR	r0x105E
                                           ;;107	MOVAR	r0x105A
000660   580b     movar   0xb              	MOVAR	r0x1056
000661   560f     movra   0xf              	MOVRA	r0x105A
000662   4808     rsubar  0x8              	RSUBAR	r0x1052
000663   560b     movra   0xb              	MOVRA	r0x1056
000664   5807     movar   0x7              	MOVAR	r0x1053
000665   560c     movra   0xc              	MOVRA	r0x1057
000666   5810     movar   0x10             	MOVAR	r0x105B
000667   e187     jbset   0x187, 0         	JBSET	PFLAG,0
000668   6010     jzar    0x10             	JZAR	r0x105B
000669   4a0c     rsubra  0xc              	RSUBRA	r0x1057
00066a   5809     movar   0x9              	MOVAR	r0x1054
00066b   5613     movra   0x13             	MOVRA	r0x105D
00066c   5811     movar   0x11             	MOVAR	r0x105C
00066d   e187     jbset   0x187, 0         	JBSET	PFLAG,0
00066e   6011     jzar    0x11             	JZAR	r0x105C
00066f   4a13     rsubra  0x13             	RSUBRA	r0x105D
000670   5812     movar   0x12             	MOVAR	r0x105E
000671   e187     jbset   0x187, 0         	JBSET	PFLAG,0
000672   6412     incar   0x12             	INCAR	r0x105E
000673   480a     rsubar  0xa              	RSUBAR	r0x1055
000674   5614     movra   0x14             	MOVRA	r0x105F
                                           ;;100	MOVAR	r0x1058
                                           ;;102	MOVAR	r0x1059
                                           ;	.line	98; "MC32P7351.c"	g_tmpbuff -= g_adcmin;           // ČĄµôŇ»¸ö×îĐˇ
000675   7609     clrr    0x9              	CLRR	r0x1054
000676   760a     clrr    0xa              	CLRR	r0x1055
                                           ;;99	MOVAR	r0x1052
000677   580d     movar   0xd              	MOVAR	r0x1058
000678   5608     movra   0x8              	MOVRA	r0x1052
000679   4a0b     rsubra  0xb              	RSUBRA	r0x1056
                                           ;;101	MOVAR	r0x1053
00067a   580e     movar   0xe              	MOVAR	r0x1059
00067b   5607     movra   0x7              	MOVRA	r0x1053
00067c   e187     jbset   0x187, 0         	JBSET	PFLAG,0
00067d   6007     jzar    0x7              	JZAR	r0x1053
00067e   4a0c     rsubra  0xc              	RSUBRA	r0x1057
00067f   5809     movar   0x9              	MOVAR	r0x1054
000680   e187     jbset   0x187, 0         	JBSET	PFLAG,0
000681   6009     jzar    0x9              	JZAR	r0x1054
000682   4a13     rsubra  0x13             	RSUBRA	r0x105D
000683   580a     movar   0xa              	MOVAR	r0x1055
000684   e187     jbset   0x187, 0         	JBSET	PFLAG,0
000685   600a     jzar    0xa              	JZAR	r0x1055
000686   4a14     rsubra  0x14             	RSUBRA	r0x105F
                                           ;	.line	99; "MC32P7351.c"	g_temp_value = (g_tmpbuff >> 4); // łýŇÔ16Ł¬ČˇĆ˝ľůÖµ
000687   440b     swapar  0xb              	SWAPAR	r0x1056
000688   3e0f     andai   0xf              	ANDAI	0x0f
000689   5608     movra   0x8              	MOVRA	r0x1052
00068a   440c     swapar  0xc              	SWAPAR	r0x1057
00068b   5607     movra   0x7              	MOVRA	r0x1053
00068c   3ef0     andai   0xf0             	ANDAI	0xf0
00068d   5e08     orra    0x8              	ORRA	r0x1052
00068e   4207     xorra   0x7              	XORRA	r0x1053
00068f   4413     swapar  0x13             	SWAPAR	r0x105D
000690   5609     movra   0x9              	MOVRA	r0x1054
000691   3ef0     andai   0xf0             	ANDAI	0xf0
000692   5e07     orra    0x7              	ORRA	r0x1053
000693   4209     xorra   0x9              	XORRA	r0x1054
000694   4414     swapar  0x14             	SWAPAR	r0x105F
000695   560a     movra   0xa              	MOVRA	r0x1055
000696   3ef0     andai   0xf0             	ANDAI	0xf0
000697   5e09     orra    0x9              	ORRA	r0x1054
000698   420a     xorra   0xa              	XORRA	r0x1055
                                           ;;104	MOVAR	r0x1052
                                           ;;106	MOVAR	r0x1053
                                           ;;103	MOVAR	r0x1056
                                           ;	.line	123; "MC32P7351.c"	return g_temp_value;
000699   5808     movar   0x8              	MOVAR	r0x1052
00069a   560b     movra   0xb              	MOVRA	r0x1056
00069b   5606     movra   0x6              	MOVRA	STK00
                                           ;;105	MOVAR	r0x1057
00069c   5807     movar   0x7              	MOVAR	r0x1053
00069d   560c     movra   0xc              	MOVRA	r0x1057
                                           ;	.line	124; "MC32P7351.c"	}
00069e   000c     return                   	RETURN	
                                           ; exit point of _adc_get_val
                                           
                                           ;***
                                           ;  pBlock Stats: dbName = C
                                           ;***
                                           ;entry:  _adc_sel_pin	;Function start
                                           ; 2 exit points
                                           ;has an exit
                                           ;functions called:
                                           ;   _delay_ms
                                           ;   _delay_ms
                                           ;2 compiler assigned registers:
                                           ;   r0x1058
                                           ;   STK00
                                           ;; Starting pCode block
                                           _adc_sel_pin	;Function start
                                           ; 2 exit points
                                           ;	.line	48; "MC32P7351.c"	void adc_sel_pin(u8 adc_pin)
00069f   560d     movra   0xd              	MOVRA	r0x1058
                                           ;	.line	51; "MC32P7351.c"	switch (adc_pin)
0006a0   580d     movar   0xd              	MOVAR	r0x1058
0006a1   3901     xorai   0x1              	XORAI	0x01
0006a2   e587     jbset   0x187, 0x2       	JBSET	PFLAG,2
0006a3   a6a5     goto    0x6a5            	GOTO	_00141_DS_
0006a4   a6ab     goto    0x6ab            	GOTO	_00127_DS_
                                           _00141_DS_
0006a5   580d     movar   0xd              	MOVAR	r0x1058
0006a6   3902     xorai   0x2              	XORAI	0x02
0006a7   e587     jbset   0x187, 0x2       	JBSET	PFLAG,2
0006a8   a6aa     goto    0x6aa            	GOTO	_00142_DS_
0006a9   a6ae     goto    0x6ae            	GOTO	_00128_DS_
                                           _00142_DS_
0006aa   a6b1     goto    0x6b1            	GOTO	_00130_DS_
                                           _00127_DS_
                                           ;	.line	54; "MC32P7351.c"	ADCR0 &= ~(0x0F << 4); // ÇĺżŐĽÄ´ćĆ÷µÄÍ¨µŔŃˇÔńÎ»
0006ab   3c0f     movai   0xf              	MOVAI	0x0f
0006ac   7bb0     andra   0x1b0            	ANDRA	_ADCR0
                                           ;	.line	57; "MC32P7351.c"	break;
0006ad   a6b1     goto    0x6b1            	GOTO	_00130_DS_
                                           _00128_DS_
                                           ;	.line	60; "MC32P7351.c"	ADCR0 &= ~(0x0F << 4); // ÇĺżŐĽÄ´ćĆ÷µÄÍ¨µŔŃˇÔńÎ»
0006ae   3c0f     movai   0xf              	MOVAI	0x0f
0006af   7bb0     andra   0x1b0            	ANDRA	_ADCR0
                                           ;	.line	61; "MC32P7351.c"	ADCR0 |= 0x01 << 4;    // AIN1--P02;
0006b0   c9b0     bset    0x1b0, 0x4       	BSET	_ADCR0,4
                                           _00130_DS_
                                           ;	.line	69; "MC32P7351.c"	delay_ms(1); // ÇĐ»»adcĽě˛âµÄŇý˝ĹşóŁ¬ŇŞŃÓĘ±Ň»¶ÎĘ±ĽäŁ¬µČ´ýadcÎČ¶¨Ł¬·ŔÖąŇâÁĎÖ®ÍâµÄĽě˛â˝áąű
0006b1   3c01     movai   0x1              	MOVAI	0x01
0006b2   5606     movra   0x6              	MOVRA	STK00
0006b3   3c00     movai   0                	MOVAI	0x00
0006b4   86ce     call    0x6ce            	CALL	_delay_ms
                                           ;	.line	70; "MC32P7351.c"	}
0006b5   000c     return                   	RETURN	
                                           ; exit point of _adc_sel_pin
                                           
                                           ;***
                                           ;  pBlock Stats: dbName = C
                                           ;***
                                           ;entry:  _adc_config	;Function start
                                           ; 2 exit points
                                           ;has an exit
                                           ;; Starting pCode block
                                           _adc_config	;Function start
                                           ; 2 exit points
                                           ;	.line	34; "MC32P7351.c"	P00OE = 0; // ĘäČëÄŁĘ˝
0006b6   d191     bclr    0x191, 0         	BCLR	_OEP0bits,0
                                           ;	.line	35; "MC32P7351.c"	P00DC = 1; // ÄŁÄâÄŁĘ˝
0006b7   c1b6     bset    0x1b6, 0         	BSET	_ADIOS0bits,0
                                           ;	.line	38; "MC32P7351.c"	P02OE = 0; // ĘäČëÄŁĘ˝
0006b8   d591     bclr    0x191, 0x2       	BCLR	_OEP0bits,2
                                           ;	.line	39; "MC32P7351.c"	P02DC = 1; // ÄŁÄâÄŁĘ˝
0006b9   c3b6     bset    0x1b6, 0x1       	BSET	_ADIOS0bits,1
                                           ;	.line	41; "MC32P7351.c"	ADCR0 = 0x0A; // 12Î»ľ«¶Čˇ˘˛»ĆôÓĂADC×Ş»»Ł¬˛»ĘąÄÜADC
0006ba   3c0a     movai   0xa              	MOVAI	0x0a
0006bb   57b0     movra   0x1b0            	MOVRA	_ADCR0
                                           ;	.line	42; "MC32P7351.c"	ADCR1 = 0xE1; // 125K˛ÉŃůŁ¨×î¸ßľ«¶ČŁ©  ÄÚ˛ż3V˛ÎżĽµçŃą
0006bc   3ce1     movai   0xe1             	MOVAI	0xe1
0006bd   57b1     movra   0x1b1            	MOVRA	_ADCR1
                                           ;	.line	43; "MC32P7351.c"	ADCR2 = 0xFF; // ADC˛ÉŃůĘ±ĽäÎŞ15¸öADCĘ±ÖÓ
0006be   3cff     movai   0xff             	MOVAI	0xff
0006bf   57b2     movra   0x1b2            	MOVRA	_ADCR2
                                           ;	.line	44; "MC32P7351.c"	ADEN = 1;     // ĘąÄÜADC
0006c0   c1b0     bset    0x1b0, 0         	BSET	_ADCR0bits,0
                                           ;	.line	45; "MC32P7351.c"	}
0006c1   000c     return                   	RETURN	
                                           ; exit point of _adc_config
                                           
                                           ;***
                                           ;  pBlock Stats: dbName = C
                                           ;***
                                           ;entry:  _CLR_RAM	;Function start
                                           ; 2 exit points
                                           ;has an exit
                                           ;; Starting pCode block
                                           _CLR_RAM	;Function start
                                           ; 2 exit points
                                           ;	.line	22; "MC32P7351.c"	for (FSR0 = 0; FSR0 < 0xff; FSR0++)
0006c2   7784     clrr    0x184            	CLRR	_FSR0
                                           ;;unsigned compare: left < lit(0xFF=255), size=1
                                           _00118_DS_
0006c3   3cff     movai   0xff             	MOVAI	0xff
0006c4   4984     rsubar  0x184            	RSUBAR	_FSR0
0006c5   f187     jbclr   0x187, 0         	JBCLR	PFLAG,0
0006c6   a6ca     goto    0x6ca            	GOTO	_00116_DS_
                                           ;;genSkipc:3291: created from rifx:013B5EFC
                                           ;	.line	24; "MC32P7351.c"	INDF0 = 0x00;
0006c7   7780     clrr    0x180            	CLRR	_INDF0
                                           ;	.line	22; "MC32P7351.c"	for (FSR0 = 0; FSR0 < 0xff; FSR0++)
0006c8   6784     incr    0x184            	INCR	_FSR0
0006c9   a6c3     goto    0x6c3            	GOTO	_00118_DS_
                                           _00116_DS_
                                           ;	.line	26; "MC32P7351.c"	FSR0 = 0xFF;
0006ca   3cff     movai   0xff             	MOVAI	0xff
0006cb   5784     movra   0x184            	MOVRA	_FSR0
                                           ;	.line	27; "MC32P7351.c"	INDF0 = 0x00;
0006cc   7780     clrr    0x180            	CLRR	_INDF0
                                           ;	.line	28; "MC32P7351.c"	}
0006cd   000c     return                   	RETURN	
                                           ; exit point of _CLR_RAM
                                           
                                           ;***
                                           ;  pBlock Stats: dbName = C
                                           ;***
                                           ;entry:  _delay_ms	;Function start
                                           ; 2 exit points
                                           ;has an exit
                                           ;7 compiler assigned registers:
                                           ;   r0x1052
                                           ;   STK00
                                           ;   r0x1053
                                           ;   r0x1054
                                           ;   r0x1055
                                           ;   r0x1056
                                           ;   r0x1057
                                           ;; Starting pCode block
                                           _delay_ms	;Function start
                                           ; 2 exit points
                                           ;	.line	393; "user.h"	void delay_ms(u16 xms)
0006ce   5608     movra   0x8              	MOVRA	r0x1052
0006cf   5806     movar   0x6              	MOVAR	STK00
0006d0   5607     movra   0x7              	MOVRA	r0x1053
                                           _00108_DS_
                                           ;	.line	395; "user.h"	while (xms)
0006d1   5807     movar   0x7              	MOVAR	r0x1053
0006d2   5c08     orar    0x8              	ORAR	r0x1052
0006d3   f587     jbclr   0x187, 0x2       	JBCLR	PFLAG,2
0006d4   a6ed     goto    0x6ed            	GOTO	_00111_DS_
                                           ;	.line	398; "user.h"	while (i--)
0006d5   3c3c     movai   0x3c             	MOVAI	0x3c
0006d6   5609     movra   0x9              	MOVRA	r0x1054
0006d7   3c02     movai   0x2              	MOVAI	0x02
0006d8   560a     movra   0xa              	MOVRA	r0x1055
                                           _00105_DS_
0006d9   5809     movar   0x9              	MOVAR	r0x1054
0006da   560b     movra   0xb              	MOVRA	r0x1056
0006db   580a     movar   0xa              	MOVAR	r0x1055
0006dc   560c     movra   0xc              	MOVRA	r0x1057
0006dd   3cff     movai   0xff             	MOVAI	0xff
0006de   7e09     addra   0x9              	ADDRA	r0x1054
0006df   e187     jbset   0x187, 0         	JBSET	PFLAG,0
0006e0   6e0a     decr    0xa              	DECR	r0x1055
0006e1   580b     movar   0xb              	MOVAR	r0x1056
0006e2   5c0c     orar    0xc              	ORAR	r0x1057
0006e3   f587     jbclr   0x187, 0x2       	JBCLR	PFLAG,2
0006e4   a6e7     goto    0x6e7            	GOTO	_00107_DS_
                                           ;	.line	400; "user.h"	Nop();
0006e5   0000     nop                      	nop	
0006e6   a6d9     goto    0x6d9            	GOTO	_00105_DS_
                                           _00107_DS_
                                           ;	.line	402; "user.h"	xms--; // °Ń --˛Ů×÷·ĹÔÚwhile()ĹĐ¶ĎĚőĽţÍâĂćŁ¬¸ü˝ÚĘˇżŐĽä
0006e7   3cff     movai   0xff             	MOVAI	0xff
0006e8   7e07     addra   0x7              	ADDRA	r0x1053
0006e9   e187     jbset   0x187, 0         	JBSET	PFLAG,0
0006ea   6e08     decr    0x8              	DECR	r0x1052
                                           ;	.line	406; "user.h"	__endasm;
                                           	;
0006eb   000e     clrwdt                   	clrwdt;
                                           	
0006ec   a6d1     goto    0x6d1            	GOTO	_00108_DS_
                                           _00111_DS_
                                           ;	.line	408; "user.h"	}
0006ed   000c     return                   	RETURN	
                                           ; exit point of _delay_ms
                                           
                                           
                                           ;	code size estimation:
                                           ;	 1751+    0 =  1751 instructions ( 3502 byte)
                                           
                                           	end
                                           ;--------------------------------------------------------
                                           ; File Created by SN-SDCC : SinoMCU ANSI-C Compiler
                                           ; Version 2.0.0 (Dec 11 2019) (MINGW32)
                                           ; This file was generated Mon Apr 20 08:39:44 2026
                                           ;--------------------------------------------------------
                                           ; MC32 port for the RISC core
                                           ;--------------------------------------------------------
                                           ;	.file	"MC32P7351.c"
                                           	list	p=7351
                                           	radix dec
                                           	include "7351.inc"
                                           ;--------------------------------------------------------
                                           ; external declarations
                                           ;--------------------------------------------------------
                                           	extern	__mullong
                                           	extern	__divulong
                                           	extern	_INDF0bits
                                           	extern	_INDF1bits
                                           	extern	_INDF2bits
                                           	extern	_HIBYTEbits
                                           	extern	_FSR0bits
                                           	extern	_FSR1bits
                                           	extern	_PCLbits
                                           	extern	_PFLAGbits
                                           	extern	_MCRbits
                                           	extern	_INDF3bits
                                           	extern	_INTEbits
                                           	extern	_INTFbits
                                           	extern	_DRVCRbits
                                           	extern	_PFRCCRbits
                                           	extern	_P1KBCRbits
                                           	extern	_PFRCCALbits
                                           	extern	_IOP0bits
                                           	extern	_OEP0bits
                                           	extern	_PUP0bits
                                           	extern	_PDP0bits
                                           	extern	_IOP1bits
                                           	extern	_OEP1bits
                                           	extern	_PUP1bits
                                           	extern	_PDP1bits
                                           	extern	_T0CRbits
                                           	extern	_T0CNTbits
                                           	extern	_T0LOADbits
                                           	extern	_T0DATAbits
                                           	extern	_T1CRbits
                                           	extern	_T1CNTbits
                                           	extern	_T1LOADbits
                                           	extern	_T1DATAbits
                                           	extern	_T2CRbits
                                           	extern	_T2CNTbits
                                           	extern	_T2LOADbits
                                           	extern	_T2DATAbits
                                           	extern	_T3CRbits
                                           	extern	_T3CNTbits
                                           	extern	_T3LOADbits
                                           	extern	_PWM0DRbits
                                           	extern	_PWM1DRbits
                                           	extern	_PWM2DRbits
                                           	extern	_PWMCR0bits
                                           	extern	_PWMCR1bits
                                           	extern	_OSCMRbits
                                           	extern	_LVDCRbits
                                           	extern	_ADCR0bits
                                           	extern	_ADCR1bits
                                           	extern	_ADCR2bits
                                           	extern	_OSADJCRbits
                                           	extern	_ADRHbits
                                           	extern	_ADRLbits
                                           	extern	_ADIOS0bits
                                           	extern	_ADIOS1bits
                                           	extern	_PMODbits
                                           	extern	_PWMCR3bits
                                           	extern	_PWMCR2bits
                                           	extern	_PFRCAUXbits
                                           	extern	_HIRCCALbits
                                           	extern	_INDF0
                                           	extern	_INDF1
                                           	extern	_INDF2
                                           	extern	_HIBYTE
                                           	extern	_FSR0
                                           	extern	_FSR1
                                           	extern	_PCL
                                           	extern	_PFLAG
                                           	extern	_MCR
                                           	extern	_INDF3
                                           	extern	_INTE
                                           	extern	_INTF
                                           	extern	_DRVCR
                                           	extern	_PFRCCR
                                           	extern	_P1KBCR
                                           	extern	_PFRCCAL
                                           	extern	_IOP0
                                           	extern	_OEP0
                                           	extern	_PUP0
                                           	extern	_PDP0
                                           	extern	_IOP1
                                           	extern	_OEP1
                                           	extern	_PUP1
                                           	extern	_PDP1
                                           	extern	_T0CR
                                           	extern	_T0CNT
                                           	extern	_T0LOAD
                                           	extern	_T0DATA
                                           	extern	_T1CR
                                           	extern	_T1CNT
                                           	extern	_T1LOAD
                                           	extern	_T1DATA
                                           	extern	_T2CR
                                           	extern	_T2CNT
                                           	extern	_T2LOAD
                                           	extern	_T2DATA
                                           	extern	_T3CR
                                           	extern	_T3CNT
                                           	extern	_T3LOAD
                                           	extern	_PWM0DR
                                           	extern	_PWM1DR
                                           	extern	_PWM2DR
                                           	extern	_PWMCR0
                                           	extern	_PWMCR1
                                           	extern	_OSCMR
                                           	extern	_LVDCR
                                           	extern	_ADCR0
                                           	extern	_ADCR1
                                           	extern	_ADCR2
                                           	extern	_OSADJCR
                                           	extern	_ADRH
                                           	extern	_ADRL
                                           	extern	_ADIOS0
                                           	extern	_ADIOS1
                                           	extern	_PMOD
                                           	extern	_PWMCR3
                                           	extern	_PWMCR2
                                           	extern	_PFRCAUX
                                           	extern	_HIRCCAL
                                           ;--------------------------------------------------------
                                           ; global declarations
                                           ;--------------------------------------------------------
                                           	global	_delay_ms
                                           	global	_CLR_RAM
                                           	global	_adc_config
                                           	global	_adc_sel_pin
                                           	global	_adc_get_val
                                           	global	_Sys_Init
                                           	global	_key_scan
                                           	global	_key_event_handle
                                           	global	_adc_scan_handle
                                           	global	_turn_dir_scan_handle
                                           	global	_shutdown_scan_handle
                                           	global	_low_power_scan_handle
                                           	global	_main
                                           	global	_int_isr
                                           	global	_key_event
                                           	global	_mode_flag
                                           	global	_key_press_flag
                                           	global	_i
                                           	global	_adc_val
                                           	global	_turn_dir_ms_cnt
                                           	global	_shut_down_ms_cnt
                                           	global	_adc_bat_val
                                           	global	_adc_charging_val
                                           	global	_max_pwm_val
                                           	global	_last_pwm_val
                                           	global	_tmp_val
                                           	global	_tmp_val_l
                                           	global	_tmp_val_cnt
                                           	global	_charge_time_cnt
                                           	global	_tmp_bat_val
                                           	global	_over_charging_cnt
                                           	global	_full_charge_cnt
                                           	global	_inflation_ctl_status
                                           	global	_abuf
                                           	global	_statusbuf
                                           	global	_flag1
                                           	global	_flag2
                                           	global	_flag3
                                           
                                           	global STK06
                                           	global STK05
                                           	global STK04
                                           	global STK03
                                           	global STK02
                                           	global STK01
                                           	global STK00
                                           
                                           sharebank udata_ovr 0x0000
                                           STK06	res 1
                                           STK05	res 1
                                           STK04	res 1
                                           STK03	res 1
                                           STK02	res 1
                                           STK01	res 1
                                           STK00	res 1
                                           
                                           ;--------------------------------------------------------
                                           ; global definitions
                                           ;--------------------------------------------------------
                                           UD_MC32P7351_0	udata
                                           _key_event	res	1
                                           
                                           UD_MC32P7351_1	udata
                                           _mode_flag	res	1
                                           
                                           UD_MC32P7351_2	udata
                                           _key_press_flag	res	1
                                           
                                           UD_MC32P7351_3	udata
                                           _i	res	1
                                           
                                           UD_MC32P7351_4	udata
                                           _adc_val	res	2
                                           
                                           UD_MC32P7351_5	udata
                                           _turn_dir_ms_cnt	res	4
                                           
                                           UD_MC32P7351_6	udata
                                           _shut_down_ms_cnt	res	4
                                           
                                           UD_MC32P7351_7	udata
                                           _adc_bat_val	res	4
                                           
                                           UD_MC32P7351_8	udata
                                           _adc_charging_val	res	2
                                           
                                           UD_MC32P7351_9	udata
                                           _max_pwm_val	res	4
                                           
                                           UD_MC32P7351_10	udata
                                           _last_pwm_val	res	2
                                           
                                           UD_MC32P7351_11	udata
                                           _tmp_val	res	2
                                           
                                           UD_MC32P7351_12	udata
                                           _tmp_val_l	res	16
                                           
                                           UD_MC32P7351_13	udata
                                           _tmp_val_cnt	res	1
                                           
                                           UD_MC32P7351_14	udata
                                           _charge_time_cnt	res	4
                                           
                                           UD_MC32P7351_15	udata
                                           _tmp_bat_val	res	2
                                           
                                           UD_MC32P7351_16	udata
                                           _over_charging_cnt	res	1
                                           
                                           UD_MC32P7351_17	udata
                                           _full_charge_cnt	res	1
                                           
                                           UD_MC32P7351_18	udata
                                           _inflation_ctl_status	res	1
                                           
                                           UD_MC32P7351_19	udata
                                           _abuf	res	1
                                           
                                           UD_MC32P7351_20	udata
                                           _statusbuf	res	1
                                           
                                           UD_MC32P7351_21	udata
                                           _flag1	res	1
                                           
                                           UD_MC32P7351_22	udata
                                           _flag2	res	1
                                           
                                           UD_MC32P7351_23	udata
                                           _flag3	res	1
                                           
                                           ;--------------------------------------------------------
                                           ; absolute symbol definitions
                                           ;--------------------------------------------------------
                                           ;--------------------------------------------------------
                                           ; compiler-defined variables
                                           ;--------------------------------------------------------
                                           UDL_MC32P7351_0	udata
                                           r0x1053	res	1
                                           r0x1052	res	1
                                           r0x1054	res	1
                                           r0x1055	res	1
                                           r0x1056	res	1
                                           r0x1057	res	1
                                           r0x1058	res	1
                                           r0x1059	res	1
                                           r0x105A	res	1
                                           r0x105B	res	1
                                           r0x105C	res	1
                                           r0x105E	res	1
                                           r0x105D	res	1
                                           r0x105F	res	1
                                           r0x1060	res	1
                                           r0x1061	res	1
                                           r0x1062	res	1
                                           r0x1064	res	1
                                           r0x1063	res	1
                                           r0x1065	res	1
                                           r0x1066	res	1
                                           r0x1067	res	1
                                           r0x1068	res	1
                                           r0x1069	res	1
                                           r0x106A	res	1
                                           r0x106B	res	1
                                           r0x106C	res	1
                                           _key_scan_cur_key_id_65536_31	res	1
                                           _key_scan_filter_cnt_65536_31	res	1
                                           _key_scan_filter_key_id_65536_31	res	1
                                           _key_scan_press_cnt_65536_31	res	1
                                           _key_scan_flag_is_key_mode_hold_65536_31	res	1
                                           _key_scan_last_key_id_65536_31	res	1
                                           _adc_scan_handle_cnt_65536_94	res	1
                                           _adc_scan_handle_need_charge_cnt_65536_94	res	1
                                           _int_isr___1ms_cnt_196608_228	res	1
                                           _int_isr_key_scan_cnt_327680_230	res	1
                                           _int_isr_low_bat_cnt_327680_233	res	2
                                           _int_isr_shut_down_bat_cnt_327680_237	res	2
                                           _int_isr_update_current_time_cnt_327680_241	res	2
                                           _int_isr_cnt_327680_245	res	2
                                           _int_isr_cnt_327680_247	res	2
                                           _led_state	res	1
                                           _pwm_counter	res	2
                                           _breath_counter	res	1
                                           _pwm_duty	res	1
                                           _breath_direction	res	1
                                           ;--------------------------------------------------------
                                           ; initialized data
                                           ;--------------------------------------------------------
                                           
                                           ;@Allocation info for local variables in function 'delay_ms'
                                           ;@delay_ms delay_ms                  Allocated to registers ;size:2
                                           ;@delay_ms INDF0bits                 Allocated to registers ;size:1
                                           ;@delay_ms INDF1bits                 Allocated to registers ;size:1
                                           ;@delay_ms INDF2bits                 Allocated to registers ;size:1
                                           ;@delay_ms HIBYTEbits                Allocated to registers ;size:1
                                           ;@delay_ms FSR0bits                  Allocated to registers ;size:1
                                           ;@delay_ms FSR1bits                  Allocated to registers ;size:1
                                           ;@delay_ms PCLbits                   Allocated to registers ;size:1
                                           ;@delay_ms PFLAGbits                 Allocated to registers ;size:1
                                           ;@delay_ms MCRbits                   Allocated to registers ;size:1
                                           ;@delay_ms INDF3bits                 Allocated to registers ;size:1
                                           ;@delay_ms INTEbits                  Allocated to registers ;size:1
                                           ;@delay_ms INTFbits                  Allocated to registers ;size:1
                                           ;@delay_ms DRVCRbits                 Allocated to registers ;size:1
                                           ;@delay_ms PFRCCRbits                Allocated to registers ;size:1
                                           ;@delay_ms P1KBCRbits                Allocated to registers ;size:1
                                           ;@delay_ms PFRCCALbits               Allocated to registers ;size:1
                                           ;@delay_ms IOP0bits                  Allocated to registers ;size:1
                                           ;@delay_ms OEP0bits                  Allocated to registers ;size:1
                                           ;@delay_ms PUP0bits                  Allocated to registers ;size:1
                                           ;@delay_ms PDP0bits                  Allocated to registers ;size:1
                                           ;@delay_ms IOP1bits                  Allocated to registers ;size:1
                                           ;@delay_ms OEP1bits                  Allocated to registers ;size:1
                                           ;@delay_ms PUP1bits                  Allocated to registers ;size:1
                                           ;@delay_ms PDP1bits                  Allocated to registers ;size:1
                                           ;@delay_ms T0CRbits                  Allocated to registers ;size:1
                                           ;@delay_ms T0CNTbits                 Allocated to registers ;size:1
                                           ;@delay_ms T0LOADbits                Allocated to registers ;size:1
                                           ;@delay_ms T0DATAbits                Allocated to registers ;size:1
                                           ;@delay_ms T1CRbits                  Allocated to registers ;size:1
                                           ;@delay_ms T1CNTbits                 Allocated to registers ;size:1
                                           ;@delay_ms T1LOADbits                Allocated to registers ;size:1
                                           ;@delay_ms T1DATAbits                Allocated to registers ;size:1
                                           ;@delay_ms T2CRbits                  Allocated to registers ;size:1
                                           ;@delay_ms T2CNTbits                 Allocated to registers ;size:1
                                           ;@delay_ms T2LOADbits                Allocated to registers ;size:1
                                           ;@delay_ms T2DATAbits                Allocated to registers ;size:1
                                           ;@delay_ms T3CRbits                  Allocated to registers ;size:1
                                           ;@delay_ms T3CNTbits                 Allocated to registers ;size:1
                                           ;@delay_ms T3LOADbits                Allocated to registers ;size:1
                                           ;@delay_ms PWM0DRbits                Allocated to registers ;size:1
                                           ;@delay_ms PWM1DRbits                Allocated to registers ;size:1
                                           ;@delay_ms PWM2DRbits                Allocated to registers ;size:1
                                           ;@delay_ms PWMCR0bits                Allocated to registers ;size:1
                                           ;@delay_ms PWMCR1bits                Allocated to registers ;size:1
                                           ;@delay_ms OSCMRbits                 Allocated to registers ;size:1
                                           ;@delay_ms LVDCRbits                 Allocated to registers ;size:1
                                           ;@delay_ms ADCR0bits                 Allocated to registers ;size:1
                                           ;@delay_ms ADCR1bits                 Allocated to registers ;size:1
                                           ;@delay_ms ADCR2bits                 Allocated to registers ;size:1
                                           ;@delay_ms OSADJCRbits               Allocated to registers ;size:1
                                           ;@delay_ms ADRHbits                  Allocated to registers ;size:1
                                           ;@delay_ms ADRLbits                  Allocated to registers ;size:1
                                           ;@delay_ms ADIOS0bits                Allocated to registers ;size:1
                                           ;@delay_ms ADIOS1bits                Allocated to registers ;size:1
                                           ;@delay_ms PMODbits                  Allocated to registers ;size:1
                                           ;@delay_ms PWMCR3bits                Allocated to registers ;size:1
                                           ;@delay_ms PWMCR2bits                Allocated to registers ;size:1
                                           ;@delay_ms PFRCAUXbits               Allocated to registers ;size:1
                                           ;@delay_ms HIRCCALbits               Allocated to registers ;size:1
                                           ;@delay_ms key_event                 Allocated to registers ;size:1
                                           ;@delay_ms mode_flag                 Allocated to registers ;size:1
                                           ;@delay_ms key_press_flag            Allocated to registers ;size:1
                                           ;@delay_ms i                         Allocated to registers ;size:1
                                           ;@delay_ms adc_val                   Allocated to registers ;size:2
                                           ;@delay_ms turn_dir_ms_cnt           Allocated to registers ;size:4
                                           ;@delay_ms shut_down_ms_cnt          Allocated to registers ;size:4
                                           ;@delay_ms adc_bat_val               Allocated to registers ;size:4
                                           ;@delay_ms adc_charging_val          Allocated to registers ;size:2
                                           ;@delay_ms max_pwm_val               Allocated to registers ;size:4
                                           ;@delay_ms last_pwm_val              Allocated to registers ;size:2
                                           ;@delay_ms tmp_val                   Allocated to registers ;size:2
                                           ;@delay_ms tmp_val_l                 Allocated to registers ;size:16
                                           ;@delay_ms tmp_val_cnt               Allocated to registers ;size:1
                                           ;@delay_ms charge_time_cnt           Allocated to registers ;size:4
                                           ;@delay_ms tmp_bat_val               Allocated to registers ;size:2
                                           ;@delay_ms over_charging_cnt         Allocated to registers ;size:1
                                           ;@delay_ms full_charge_cnt           Allocated to registers ;size:1
                                           ;@delay_ms inflation_ctl_status      Allocated to registers ;size:1
                                           ;@delay_ms pwm_duty                  Allocated to registers ;size:1
                                           ;@delay_ms pwm_counter               Allocated to registers ;size:2
                                           ;@delay_ms breath_counter            Allocated to registers ;size:1
                                           ;@delay_ms breath_direction          Allocated to registers ;size:1
                                           ;@delay_ms led_state                 Allocated to registers ;size:1
                                           ;@delay_ms abuf                      Allocated to registers ;size:1
                                           ;@delay_ms statusbuf                 Allocated to registers ;size:1
                                           ;@delay_ms flag1                     Allocated to registers ;size:1
                                           ;@delay_ms flag2                     Allocated to registers ;size:1
                                           ;@delay_ms flag3                     Allocated to registers ;size:1
                                           ;@delay_ms xms                       Allocated to registers ;size:2
                                           ;@delay_ms i                         Allocated to registers r0x1054 r0x1055 ;size:2
                                           ;@delay_ms INDF0                     Allocated to registers ;size:1
                                           ;@delay_ms INDF1                     Allocated to registers ;size:1
                                           ;@delay_ms INDF2                     Allocated to registers ;size:1
                                           ;@delay_ms HIBYTE                    Allocated to registers ;size:1
                                           ;@delay_ms FSR0                      Allocated to registers ;size:1
                                           ;@delay_ms FSR1                      Allocated to registers ;size:1
                                           ;@delay_ms PCL                       Allocated to registers ;size:1
                                           ;@delay_ms PFLAG                     Allocated to registers ;size:1
                                           ;@delay_ms MCR                       Allocated to registers ;size:1
                                           ;@delay_ms INDF3                     Allocated to registers ;size:1
                                           ;@delay_ms INTE                      Allocated to registers ;size:1
                                           ;@delay_ms INTF                      Allocated to registers ;size:1
                                           ;@delay_ms DRVCR                     Allocated to registers ;size:1
                                           ;@delay_ms PFRCCR                    Allocated to registers ;size:1
                                           ;@delay_ms P1KBCR                    Allocated to registers ;size:1
                                           ;@delay_ms PFRCCAL                   Allocated to registers ;size:1
                                           ;@delay_ms IOP0                      Allocated to registers ;size:1
                                           ;@delay_ms OEP0                      Allocated to registers ;size:1
                                           ;@delay_ms PUP0                      Allocated to registers ;size:1
                                           ;@delay_ms PDP0                      Allocated to registers ;size:1
                                           ;@delay_ms IOP1                      Allocated to registers ;size:1
                                           ;@delay_ms OEP1                      Allocated to registers ;size:1
                                           ;@delay_ms PUP1                      Allocated to registers ;size:1
                                           ;@delay_ms PDP1                      Allocated to registers ;size:1
                                           ;@delay_ms T0CR                      Allocated to registers ;size:1
                                           ;@delay_ms T0CNT                     Allocated to registers ;size:1
                                           ;@delay_ms T0LOAD                    Allocated to registers ;size:1
                                           ;@delay_ms T0DATA                    Allocated to registers ;size:1
                                           ;@delay_ms T1CR                      Allocated to registers ;size:1
                                           ;@delay_ms T1CNT                     Allocated to registers ;size:1
                                           ;@delay_ms T1LOAD                    Allocated to registers ;size:1
                                           ;@delay_ms T1DATA                    Allocated to registers ;size:1
                                           ;@delay_ms T2CR                      Allocated to registers ;size:1
                                           ;@delay_ms T2CNT                     Allocated to registers ;size:1
                                           ;@delay_ms T2LOAD                    Allocated to registers ;size:1
                                           ;@delay_ms T2DATA                    Allocated to registers ;size:1
                                           ;@delay_ms T3CR                      Allocated to registers ;size:1
                                           ;@delay_ms T3CNT                     Allocated to registers ;size:1
                                           ;@delay_ms T3LOAD                    Allocated to registers ;size:1
                                           ;@delay_ms PWM0DR                    Allocated to registers ;size:1
                                           ;@delay_ms PWM1DR                    Allocated to registers ;size:1
                                           ;@delay_ms PWM2DR                    Allocated to registers ;size:1
                                           ;@delay_ms PWMCR0                    Allocated to registers ;size:1
                                           ;@delay_ms PWMCR1                    Allocated to registers ;size:1
                                           ;@delay_ms OSCMR                     Allocated to registers ;size:1
                                           ;@delay_ms LVDCR                     Allocated to registers ;size:1
                                           ;@delay_ms ADCR0                     Allocated to registers ;size:1
                                           ;@delay_ms ADCR1                     Allocated to registers ;size:1
                                           ;@delay_ms ADCR2                     Allocated to registers ;size:1
                                           ;@delay_ms OSADJCR                   Allocated to registers ;size:1
                                           ;@delay_ms ADRH                      Allocated to registers ;size:1
                                           ;@delay_ms ADRL                      Allocated to registers ;size:1
                                           ;@delay_ms ADIOS0                    Allocated to registers ;size:1
                                           ;@delay_ms ADIOS1                    Allocated to registers ;size:1
                                           ;@delay_ms PMOD                      Allocated to registers ;size:1
                                           ;@delay_ms PWMCR3                    Allocated to registers ;size:1
                                           ;@delay_ms PWMCR2                    Allocated to registers ;size:1
                                           ;@delay_ms PFRCAUX                   Allocated to registers ;size:1
                                           ;@delay_ms HIRCCAL                   Allocated to registers ;size:1
                                           ;@end Allocation info for local variables in function 'delay_ms';
                                           ;@Allocation info for local variables in function 'CLR_RAM'
                                           ;@end Allocation info for local variables in function 'CLR_RAM';
                                           ;@Allocation info for local variables in function 'adc_config'
                                           ;@end Allocation info for local variables in function 'adc_config';
                                           ;@Allocation info for local variables in function 'adc_sel_pin'
                                           ;@adc_sel_pin adc_pin                   Allocated to registers r0x1058 ;size:1
                                           ;@end Allocation info for local variables in function 'adc_sel_pin';
                                           ;@Allocation info for local variables in function 'adc_get_val'
                                           ;@adc_get_val i                         Allocated to registers r0x105A ;size:1
                                           ;@adc_get_val g_temp_value              Allocated to registers r0x105B r0x105C ;size:2
                                           ;@adc_get_val g_tmpbuff                 Allocated to registers r0x1056 r0x1057 r0x105D r0x105F ;size:4
                                           ;@adc_get_val g_adcmax                  Allocated to registers r0x1056 r0x1057 ;size:2
                                           ;@adc_get_val g_adcmin                  Allocated to registers r0x1058 r0x1059 ;size:2
                                           ;@end Allocation info for local variables in function 'adc_get_val';
                                           ;@Allocation info for local variables in function 'Sys_Init'
                                           ;@end Allocation info for local variables in function 'Sys_Init';
                                           ;@Allocation info for local variables in function 'key_scan'
                                           ;@key_scan last_key_id               Allocated to registers ;size:1
                                           ;@key_scan press_cnt                 Allocated to registers ;size:1
                                           ;@key_scan filter_cnt                Allocated to registers ;size:1
                                           ;@key_scan filter_key_id             Allocated to registers ;size:1
                                           ;@key_scan cur_key_id                Allocated to registers ;size:1
                                           ;@key_scan flag_is_key_mode_hold     Allocated to registers ;size:1
                                           ;@end Allocation info for local variables in function 'key_scan';
                                           ;@Allocation info for local variables in function 'key_scan'
                                           ;@key_scan last_key_id               Allocated to registers ;size:1
                                           ;@key_scan press_cnt                 Allocated to registers ;size:1
                                           ;@key_scan filter_cnt                Allocated to registers ;size:1
                                           ;@key_scan filter_key_id             Allocated to registers ;size:1
                                           ;@key_scan cur_key_id                Allocated to registers ;size:1
                                           ;@key_scan flag_is_key_mode_hold     Allocated to registers ;size:1
                                           ;@end Allocation info for local variables in function 'key_scan';
                                           ;@Allocation info for local variables in function 'key_event_handle'
                                           ;@end Allocation info for local variables in function 'key_event_handle';
                                           ;@Allocation info for local variables in function 'adc_scan_handle'
                                           ;@adc_scan_handle cnt                       Allocated to registers ;size:1
                                           ;@adc_scan_handle need_charge_cnt           Allocated to registers ;size:1
                                           ;@end Allocation info for local variables in function 'adc_scan_handle';
                                           ;@Allocation info for local variables in function 'turn_dir_scan_handle'
                                           ;@end Allocation info for local variables in function 'turn_dir_scan_handle';
                                           ;@Allocation info for local variables in function 'shutdown_scan_handle'
                                           ;@end Allocation info for local variables in function 'shutdown_scan_handle';
                                           ;@Allocation info for local variables in function 'low_power_scan_handle'
                                           ;@end Allocation info for local variables in function 'low_power_scan_handle';
                                           ;@Allocation info for local variables in function 'main'
                                           ;@main i                         Allocated to registers r0x1061 ;size:1
                                           ;@main i                         Allocated to registers r0x1061 r0x1062 ;size:2
                                           ;@end Allocation info for local variables in function 'main';
                                           ;@Allocation info for local variables in function 'int_isr'
                                           ;@int_isr __1ms_cnt                 Allocated to registers ;size:1
                                           ;@int_isr key_scan_cnt              Allocated to registers ;size:1
                                           ;@int_isr low_bat_cnt               Allocated to registers ;size:2
                                           ;@int_isr shut_down_bat_cnt         Allocated to registers ;size:2
                                           ;@int_isr update_current_time_cnt   Allocated to registers ;size:2
                                           ;@int_isr cnt                       Allocated to registers ;size:2
                                           ;@int_isr cnt                       Allocated to registers ;size:2
                                           ;@end Allocation info for local variables in function 'int_isr';
                                           ;@Allocation info for local variables in function 'int_isr'
                                           ;@int_isr __1ms_cnt                 Allocated to registers ;size:1
                                           ;@int_isr key_scan_cnt              Allocated to registers ;size:1
                                           ;@int_isr low_bat_cnt               Allocated to registers ;size:2
                                           ;@int_isr shut_down_bat_cnt         Allocated to registers ;size:2
                                           ;@int_isr update_current_time_cnt   Allocated to registers ;size:2
                                           ;@int_isr cnt                       Allocated to registers ;size:2
                                           ;@int_isr cnt                       Allocated to registers ;size:2
                                           ;@end Allocation info for local variables in function 'int_isr';
                                           
                                           ;--------------------------------------------------------
                                           ; overlayable items in internal ram 
                                           ;--------------------------------------------------------
                                           ;	udata_ovr
                                           ;--------------------------------------------------------
                                           ; reset vector 
                                           ;--------------------------------------------------------
                                           STARTUP	code 0x0000
                                           	goto	_main
                                           ;--------------------------------------------------------
                                           ; interrupt and initialization code
                                           ;--------------------------------------------------------
                                           c_interrupt	code	0x8
                                           __sdcc_interrupt
                                           ;***
                                           ;  pBlock Stats: dbName = I
                                           ;***
                                           ;entry:  _int_isr	;Function start
                                           ; 0 exit points
                                           ;functions called:
                                           ;   _key_scan
                                           ;   _key_scan
                                           ;2 compiler assigned registers:
                                           ;   r0x106B
                                           ;   r0x106C
                                           ;; Starting pCode block
                                           _int_isr	;Function start
                                           ; 0 exit points
                                           ;	.line	1271; "MC32P7351.c"	__endasm;
                                           	;
                                           	movra	_abuf;
                                           	swapar	_PFLAG;
                                           	movra	_statusbuf;
                                           	
                                           ;	.line	1278; "MC32P7351.c"	if (T3IF & T3IE)
                                           	CLRR	r0x106B
                                           	JBCLR	_INTFbits,7
                                           	INCR	r0x106B
                                           	CLRR	r0x106C
                                           	JBCLR	_INTEbits,7
                                           	INCR	r0x106C
                                           	MOVAR	r0x106C
                                           	ANDRA	r0x106B
                                           	MOVAI	0x00
                                           	ORAR	r0x106B
                                           	JBCLR	PFLAG,2
                                           	GOTO	_01052_DS_
                                           ;	.line	1282; "MC32P7351.c"	__1ms_cnt++;
                                           	INCR	_int_isr___1ms_cnt_196608_228
                                           ;;unsigned compare: left < lit(0xA=10), size=1
                                           ;	.line	1283; "MC32P7351.c"	if (__1ms_cnt >= 10)
                                           	MOVAI	0x0a
                                           	RSUBAR	_int_isr___1ms_cnt_196608_228
                                           	JBSET	PFLAG,0
                                           	GOTO	_01028_DS_
                                           ;;genSkipc:3291: created from rifx:013B5EFC
                                           ;	.line	1285; "MC32P7351.c"	__1ms_cnt = 0;
                                           	CLRR	_int_isr___1ms_cnt_196608_228
                                           ;	.line	1289; "MC32P7351.c"	key_scan_cnt++;
                                           	INCR	_int_isr_key_scan_cnt_327680_230
                                           ;;unsigned compare: left < lit(0xA=10), size=1
                                           ;	.line	1290; "MC32P7351.c"	if (key_scan_cnt >= 10)
                                           	MOVAI	0x0a
                                           	RSUBAR	_int_isr_key_scan_cnt_327680_230
                                           	JBSET	PFLAG,0
                                           	GOTO	_01001_DS_
                                           ;;genSkipc:3291: created from rifx:013B5EFC
                                           ;	.line	1292; "MC32P7351.c"	key_scan_cnt = 0;
                                           	CLRR	_int_isr_key_scan_cnt_327680_230
                                           ;	.line	1293; "MC32P7351.c"	key_scan();
                                           	CALL	_key_scan
                                           _01001_DS_
                                           ;	.line	1297; "MC32P7351.c"	if (FLAG_IS_DEVICE_OPEN)
                                           	JBSET	_flag1,0
                                           	GOTO	_01003_DS_
                                           ;	.line	1299; "MC32P7351.c"	turn_dir_ms_cnt++;  // »áÔÚ turn_dir_scan_handle() ÄÚ´¦Ŕí˛˘ÇĺÁă
                                           	INCR	_turn_dir_ms_cnt
                                           	JBCLR	PFLAG,2
                                           	INCR	(_turn_dir_ms_cnt + 1)
                                           	JBCLR	PFLAG,2
                                           	INCR	(_turn_dir_ms_cnt + 2)
                                           	JBCLR	PFLAG,2
                                           	INCR	(_turn_dir_ms_cnt + 3)
                                           ;	.line	1300; "MC32P7351.c"	shut_down_ms_cnt++; // »áÔÚ shutdown_scan_handle() ÄÚ´¦Ŕí˛˘ÇĺÁă
                                           	INCR	_shut_down_ms_cnt
                                           	JBCLR	PFLAG,2
                                           	INCR	(_shut_down_ms_cnt + 1)
                                           	JBCLR	PFLAG,2
                                           	INCR	(_shut_down_ms_cnt + 2)
                                           	JBCLR	PFLAG,2
                                           	INCR	(_shut_down_ms_cnt + 3)
                                           _01003_DS_
                                           ;	.line	1307; "MC32P7351.c"	if (flag_maybe_low_battery)
                                           	JBSET	_flag3,2
                                           	GOTO	_01007_DS_
                                           ;	.line	1309; "MC32P7351.c"	low_bat_cnt++;
                                           	INCR	_int_isr_low_bat_cnt_327680_233
                                           	JBCLR	PFLAG,2
                                           	INCR	(_int_isr_low_bat_cnt_327680_233 + 1)
                                           ;;unsigned compare: left < lit(0x1388=5000), size=2
                                           ;	.line	1311; "MC32P7351.c"	if (low_bat_cnt >= 5000) // xx ms
                                           	MOVAI	0x13
                                           	RSUBAR	(_int_isr_low_bat_cnt_327680_233 + 1)
                                           	JBSET	PFLAG,2
                                           	GOTO	_01149_DS_
                                           	MOVAI	0x88
                                           	RSUBAR	_int_isr_low_bat_cnt_327680_233
                                           _01149_DS_
                                           	JBSET	PFLAG,0
                                           	GOTO	_01008_DS_
                                           ;;genSkipc:3291: created from rifx:013B5EFC
                                           ;	.line	1313; "MC32P7351.c"	low_bat_cnt = 0;
                                           	CLRR	_int_isr_low_bat_cnt_327680_233
                                           	CLRR	(_int_isr_low_bat_cnt_327680_233 + 1)
                                           ;	.line	1314; "MC32P7351.c"	flag_is_low_battery = 1;
                                           	BSET	_flag2,2
                                           	GOTO	_01008_DS_
                                           _01007_DS_
                                           ;	.line	1319; "MC32P7351.c"	low_bat_cnt = 0;
                                           	CLRR	_int_isr_low_bat_cnt_327680_233
                                           	CLRR	(_int_isr_low_bat_cnt_327680_233 + 1)
                                           _01008_DS_
                                           ;	.line	1325; "MC32P7351.c"	if (flag_tim_scan_maybe_shut_down)
                                           	JBSET	_flag3,3
                                           	GOTO	_01012_DS_
                                           ;	.line	1327; "MC32P7351.c"	shut_down_bat_cnt++;
                                           	INCR	_int_isr_shut_down_bat_cnt_327680_237
                                           	JBCLR	PFLAG,2
                                           	INCR	(_int_isr_shut_down_bat_cnt_327680_237 + 1)
                                           ;;unsigned compare: left < lit(0x3E8=1000), size=2
                                           ;	.line	1328; "MC32P7351.c"	if (shut_down_bat_cnt >= 1000) // xx ms
                                           	MOVAI	0x03
                                           	RSUBAR	(_int_isr_shut_down_bat_cnt_327680_237 + 1)
                                           	JBSET	PFLAG,2
                                           	GOTO	_01150_DS_
                                           	MOVAI	0xe8
                                           	RSUBAR	_int_isr_shut_down_bat_cnt_327680_237
                                           _01150_DS_
                                           	JBSET	PFLAG,0
                                           	GOTO	_01013_DS_
                                           ;;genSkipc:3291: created from rifx:013B5EFC
                                           ;	.line	1330; "MC32P7351.c"	shut_down_bat_cnt = 0;
                                           	CLRR	_int_isr_shut_down_bat_cnt_327680_237
                                           	CLRR	(_int_isr_shut_down_bat_cnt_327680_237 + 1)
                                           ;	.line	1331; "MC32P7351.c"	flag_is_needed_shut_down = 1;
                                           	BSET	_flag3,4
                                           	GOTO	_01013_DS_
                                           _01012_DS_
                                           ;	.line	1336; "MC32P7351.c"	shut_down_bat_cnt = 0;
                                           	CLRR	_int_isr_shut_down_bat_cnt_327680_237
                                           	CLRR	(_int_isr_shut_down_bat_cnt_327680_237 + 1)
                                           _01013_DS_
                                           ;	.line	1343; "MC32P7351.c"	if (FLAG_IS_IN_CHARGING)
                                           	JBSET	_flag1,2
                                           	GOTO	_01017_DS_
                                           ;	.line	1345; "MC32P7351.c"	update_current_time_cnt++;
                                           	INCR	_int_isr_update_current_time_cnt_327680_241
                                           	JBCLR	PFLAG,2
                                           	INCR	(_int_isr_update_current_time_cnt_327680_241 + 1)
                                           ;;unsigned compare: left < lit(0x1F4=500), size=2
                                           ;	.line	1346; "MC32P7351.c"	if (update_current_time_cnt >= 500)
                                           	MOVAI	0x01
                                           	RSUBAR	(_int_isr_update_current_time_cnt_327680_241 + 1)
                                           	JBSET	PFLAG,2
                                           	GOTO	_01151_DS_
                                           	MOVAI	0xf4
                                           	RSUBAR	_int_isr_update_current_time_cnt_327680_241
                                           _01151_DS_
                                           	JBSET	PFLAG,0
                                           	GOTO	_01015_DS_
                                           ;;genSkipc:3291: created from rifx:013B5EFC
                                           ;	.line	1348; "MC32P7351.c"	update_current_time_cnt = 0;
                                           	CLRR	_int_isr_update_current_time_cnt_327680_241
                                           	CLRR	(_int_isr_update_current_time_cnt_327680_241 + 1)
                                           ;	.line	1349; "MC32P7351.c"	flag_is_update_current = 1;
                                           	BSET	_flag3,5
                                           _01015_DS_
                                           ;	.line	1352; "MC32P7351.c"	charge_time_cnt++;
                                           	INCR	_charge_time_cnt
                                           	JBCLR	PFLAG,2
                                           	INCR	(_charge_time_cnt + 1)
                                           	JBCLR	PFLAG,2
                                           	INCR	(_charge_time_cnt + 2)
                                           	JBCLR	PFLAG,2
                                           	INCR	(_charge_time_cnt + 3)
                                           	GOTO	_01018_DS_
                                           _01017_DS_
                                           ;	.line	1356; "MC32P7351.c"	charge_time_cnt = 0;
                                           	CLRR	_charge_time_cnt
                                           	CLRR	(_charge_time_cnt + 1)
                                           	CLRR	(_charge_time_cnt + 2)
                                           	CLRR	(_charge_time_cnt + 3)
                                           _01018_DS_
                                           ;	.line	1367; "MC32P7351.c"	cnt++;
                                           	INCR	_int_isr_cnt_327680_245
                                           	JBCLR	PFLAG,2
                                           	INCR	(_int_isr_cnt_327680_245 + 1)
                                           ;;swapping arguments (AOP_TYPEs 1/3)
                                           ;;unsigned compare: left >= lit(0x1F5=501), size=2
                                           ;	.line	1368; "MC32P7351.c"	if (cnt > 500)
                                           	MOVAI	0x01
                                           	RSUBAR	(_int_isr_cnt_327680_245 + 1)
                                           	JBSET	PFLAG,2
                                           	GOTO	_01152_DS_
                                           	MOVAI	0xf5
                                           	RSUBAR	_int_isr_cnt_327680_245
                                           _01152_DS_
                                           	JBSET	PFLAG,0
                                           	GOTO	_01020_DS_
                                           ;;genSkipc:3291: created from rifx:013B5EFC
                                           ;	.line	1370; "MC32P7351.c"	cnt = 0;
                                           	CLRR	_int_isr_cnt_327680_245
                                           	CLRR	(_int_isr_cnt_327680_245 + 1)
                                           ;	.line	1371; "MC32P7351.c"	flag_is_adjust_pwm_time_comes = 1;
                                           	BSET	_flag3,6
                                           _01020_DS_
                                           ;	.line	1377; "MC32P7351.c"	cnt++;
                                           	INCR	_int_isr_cnt_327680_247
                                           	JBCLR	PFLAG,2
                                           	INCR	(_int_isr_cnt_327680_247 + 1)
                                           ;	.line	1378; "MC32P7351.c"	switch (inflation_ctl_status)
                                           	MOVAR	_inflation_ctl_status
                                           	MOVRA	r0x106B
                                           ;;swapping arguments (AOP_TYPEs 1/2)
                                           ;;unsigned compare: left >= lit(0x3=3), size=1
                                           	MOVAI	0x03
                                           	RSUBAR	r0x106B
                                           	JBCLR	PFLAG,0
                                           	GOTO	_01024_DS_
                                           ;;genSkipc:3291: created from rifx:013B5EFC
                                           	MOVAR	r0x106B
                                           	ADDRA	PCL
                                           	GOTO	_01021_DS_
                                           	GOTO	_01022_DS_
                                           	GOTO	_01023_DS_
                                           _01021_DS_
                                           ;	.line	1382; "MC32P7351.c"	cnt = 0;
                                           	CLRR	_int_isr_cnt_327680_247
                                           	CLRR	(_int_isr_cnt_327680_247 + 1)
                                           ;	.line	1383; "MC32P7351.c"	INFLATION_CTL_OFF();
                                           	BCLR	_IOP0bits,3
                                           ;	.line	1384; "MC32P7351.c"	DEFLATION_CTL_OFF();
                                           	BCLR	_IOP1bits,3
                                           ;	.line	1386; "MC32P7351.c"	break;
                                           	GOTO	_01024_DS_
                                           _01022_DS_
                                           ;	.line	1391; "MC32P7351.c"	cnt = 0;
                                           	CLRR	_int_isr_cnt_327680_247
                                           	CLRR	(_int_isr_cnt_327680_247 + 1)
                                           ;	.line	1392; "MC32P7351.c"	DEFLATION_CTL_OFF();
                                           	BCLR	_IOP1bits,3
                                           ;	.line	1393; "MC32P7351.c"	INFLATION_CTL_ON();
                                           	BSET	_IOP0bits,3
                                           ;	.line	1394; "MC32P7351.c"	inflation_ctl_status = INFLATION_CTL_STATUS_INFLATION_HANDLING;
                                           	MOVAI	0x03
                                           	MOVRA	_inflation_ctl_status
                                           ;	.line	1396; "MC32P7351.c"	break;
                                           	GOTO	_01024_DS_
                                           _01023_DS_
                                           ;	.line	1401; "MC32P7351.c"	cnt = 0;
                                           	CLRR	_int_isr_cnt_327680_247
                                           	CLRR	(_int_isr_cnt_327680_247 + 1)
                                           ;	.line	1402; "MC32P7351.c"	INFLATION_CTL_OFF();
                                           	BCLR	_IOP0bits,3
                                           ;	.line	1403; "MC32P7351.c"	DEFLATION_CTL_ON();
                                           	BSET	_IOP1bits,3
                                           ;	.line	1404; "MC32P7351.c"	inflation_ctl_status = INFLATION_CTL_STATUS_DEFLATION_HANDLING;
                                           	MOVAI	0x04
                                           	MOVRA	_inflation_ctl_status
                                           ;;unsigned compare: left < lit(0x3A98=15000), size=2
                                           _01024_DS_
                                           ;	.line	1410; "MC32P7351.c"	if (cnt >= (u16)15000)
                                           	MOVAI	0x3a
                                           	RSUBAR	(_int_isr_cnt_327680_247 + 1)
                                           	JBSET	PFLAG,2
                                           	GOTO	_01155_DS_
                                           	MOVAI	0x98
                                           	RSUBAR	_int_isr_cnt_327680_247
                                           _01155_DS_
                                           	JBSET	PFLAG,0
                                           	GOTO	_01028_DS_
                                           ;;genSkipc:3291: created from rifx:013B5EFC
                                           ;	.line	1412; "MC32P7351.c"	inflation_ctl_status = INFLATION_CTL_STATUS_NONE;
                                           	CLRR	_inflation_ctl_status
                                           _01028_DS_
                                           ;	.line	1419; "MC32P7351.c"	if (FLAG_IS_IN_CHARGING && 0 == FLAG_BAT_IS_FULL && 0 == flag_is_led_breath_disable)
                                           	JBSET	_flag1,2
                                           	GOTO	_01048_DS_
                                           	JBCLR	_flag1,5
                                           	GOTO	_01048_DS_
                                           	JBCLR	_flag1,7
                                           	GOTO	_01048_DS_
                                           ;	.line	1422; "MC32P7351.c"	if (pwm_counter < pwm_duty)
                                           	MOVAR	_pwm_duty
                                           	MOVRA	r0x106B
                                           	CLRR	r0x106C
                                           	MOVAI	0x00
                                           	RSUBAR	(_pwm_counter + 1)
                                           	JBSET	PFLAG,2
                                           	GOTO	_01156_DS_
                                           	MOVAR	r0x106B
                                           	RSUBAR	_pwm_counter
                                           _01156_DS_
                                           	JBCLR	PFLAG,0
                                           	GOTO	_01030_DS_
                                           ;;genSkipc:3291: created from rifx:013B5EFC
                                           ;	.line	1424; "MC32P7351.c"	led_state = 1; // LEDÁÁ
                                           	MOVAI	0x01
                                           	MOVRA	_led_state
                                           	GOTO	_01031_DS_
                                           _01030_DS_
                                           ;	.line	1428; "MC32P7351.c"	led_state = 0; // LEDĂđ
                                           	CLRR	_led_state
                                           _01031_DS_
                                           ;	.line	1432; "MC32P7351.c"	pwm_counter++;
                                           	INCR	_pwm_counter
                                           	JBCLR	PFLAG,2
                                           	INCR	(_pwm_counter + 1)
                                           ;;unsigned compare: left < lit(0x64=100), size=2
                                           ;	.line	1433; "MC32P7351.c"	if (pwm_counter >= PWM_MAX_LEVEL)
                                           	MOVAI	0x00
                                           	RSUBAR	(_pwm_counter + 1)
                                           	JBSET	PFLAG,2
                                           	GOTO	_01157_DS_
                                           	MOVAI	0x64
                                           	RSUBAR	_pwm_counter
                                           _01157_DS_
                                           	JBSET	PFLAG,0
                                           	GOTO	_01033_DS_
                                           ;;genSkipc:3291: created from rifx:013B5EFC
                                           ;	.line	1435; "MC32P7351.c"	pwm_counter = 0;
                                           	CLRR	_pwm_counter
                                           	CLRR	(_pwm_counter + 1)
                                           _01033_DS_
                                           ;	.line	1439; "MC32P7351.c"	breath_counter++;
                                           	INCR	_breath_counter
                                           ;;unsigned compare: left < lit(0xC8=200), size=1
                                           ;	.line	1440; "MC32P7351.c"	if (breath_counter >= BREATH_PERIOD)
                                           	MOVAI	0xc8
                                           	RSUBAR	_breath_counter
                                           	JBSET	PFLAG,0
                                           	GOTO	_01043_DS_
                                           ;;genSkipc:3291: created from rifx:013B5EFC
                                           ;	.line	1442; "MC32P7351.c"	breath_counter = 0;
                                           	CLRR	_breath_counter
                                           ;	.line	1445; "MC32P7351.c"	if (breath_direction == 0)
                                           	MOVAI	0x00
                                           	ORAR	_breath_direction
                                           	JBSET	PFLAG,2
                                           	GOTO	_01040_DS_
                                           ;	.line	1448; "MC32P7351.c"	pwm_duty++;
                                           	INCR	_pwm_duty
                                           ;;unsigned compare: left < lit(0x64=100), size=1
                                           ;	.line	1449; "MC32P7351.c"	if (pwm_duty >= PWM_MAX_LEVEL)
                                           	MOVAI	0x64
                                           	RSUBAR	_pwm_duty
                                           	JBSET	PFLAG,0
                                           	GOTO	_01043_DS_
                                           ;;genSkipc:3291: created from rifx:013B5EFC
                                           ;	.line	1451; "MC32P7351.c"	pwm_duty = PWM_MAX_LEVEL;
                                           	MOVAI	0x64
                                           	MOVRA	_pwm_duty
                                           ;	.line	1452; "MC32P7351.c"	breath_direction = 1; // ÇĐ»»µ˝˝Ą°µ
                                           	MOVAI	0x01
                                           	MOVRA	_breath_direction
                                           	GOTO	_01043_DS_
                                           _01040_DS_
                                           ;	.line	1458; "MC32P7351.c"	if (pwm_duty > 0)
                                           	MOVAI	0x00
                                           	ORAR	_pwm_duty
                                           	JBCLR	PFLAG,2
                                           	GOTO	_01037_DS_
                                           ;	.line	1460; "MC32P7351.c"	pwm_duty--;
                                           	DECR	_pwm_duty
                                           	GOTO	_01043_DS_
                                           _01037_DS_
                                           ;	.line	1464; "MC32P7351.c"	pwm_duty = 0;
                                           	CLRR	_pwm_duty
                                           ;	.line	1465; "MC32P7351.c"	breath_direction = 0; // ÇĐ»»µ˝˝ĄÁÁ
                                           	CLRR	_breath_direction
                                           _01043_DS_
                                           ;	.line	1472; "MC32P7351.c"	if (led_state)
                                           	MOVAI	0x00
                                           	ORAR	_led_state
                                           	JBCLR	PFLAG,2
                                           	GOTO	_01045_DS_
                                           ;	.line	1474; "MC32P7351.c"	LED_CHARGING_PIN = LED_ON;
                                           	BCLR	_IOP0bits,4
                                           	GOTO	_01048_DS_
                                           _01045_DS_
                                           ;	.line	1478; "MC32P7351.c"	LED_CHARGING_PIN = LED_OFF;
                                           	BSET	_IOP0bits,4
                                           _01048_DS_
                                           ;	.line	1482; "MC32P7351.c"	T3IF = 0;
                                           	BCLR	_INTFbits,7
                                           _01052_DS_
                                           ;	.line	1490; "MC32P7351.c"	__endasm;
                                           	;
                                           	swapar	_statusbuf;
                                           	movra	_PFLAG;
                                           	swapr	_abuf;
                                           	swapar	_abuf;
                                           	
                                           END_OF_INTERRUPT
                                           ;	.line	1491; "MC32P7351.c"	}
                                           	RETIE	
                                           
                                           ;--------------------------------------------------------
                                           ; code
                                           ;--------------------------------------------------------
                                           code_MC32P7351	code
                                           ;***
                                           ;  pBlock Stats: dbName = M
                                           ;***
                                           ;entry:  _main	;Function start
                                           ; 2 exit points
                                           ;has an exit
                                           ;functions called:
                                           ;   _Sys_Init
                                           ;   _adc_sel_pin
                                           ;   _adc_get_val
                                           ;   _delay_ms
                                           ;   _delay_ms
                                           ;   _key_event_handle
                                           ;   _adc_scan_handle
                                           ;   _turn_dir_scan_handle
                                           ;   _shutdown_scan_handle
                                           ;   __mullong
                                           ;   __divulong
                                           ;   __mullong
                                           ;   __mullong
                                           ;   __divulong
                                           ;   __divulong
                                           ;   _key_event_handle
                                           ;   _delay_ms
                                           ;   _key_event_handle
                                           ;   _delay_ms
                                           ;   _low_power_scan_handle
                                           ;   _Sys_Init
                                           ;   _adc_sel_pin
                                           ;   _adc_get_val
                                           ;   _delay_ms
                                           ;   _delay_ms
                                           ;   _key_event_handle
                                           ;   _adc_scan_handle
                                           ;   _turn_dir_scan_handle
                                           ;   _shutdown_scan_handle
                                           ;   __mullong
                                           ;   __divulong
                                           ;   __mullong
                                           ;   __mullong
                                           ;   __divulong
                                           ;   __divulong
                                           ;   _key_event_handle
                                           ;   _delay_ms
                                           ;   _key_event_handle
                                           ;   _delay_ms
                                           ;   _low_power_scan_handle
                                           ;17 compiler assigned registers:
                                           ;   STK00
                                           ;   r0x1061
                                           ;   r0x1062
                                           ;   STK06
                                           ;   STK05
                                           ;   STK04
                                           ;   STK03
                                           ;   STK02
                                           ;   STK01
                                           ;   r0x1063
                                           ;   r0x1064
                                           ;   r0x1065
                                           ;   r0x1066
                                           ;   r0x1067
                                           ;   r0x1068
                                           ;   r0x1069
                                           ;   r0x106A
                                           ;; Starting pCode block
                                           _main	;Function start
                                           ; 2 exit points
                                           ;	.line	989; "MC32P7351.c"	Sys_Init();
                                           	CALL	_Sys_Init
                                           ;	.line	996; "MC32P7351.c"	PWM2EC = 1; // ´ňżŞżŘÖĆÉýŃąµçÂ·µÄpwm
                                           	BSET	_T2CRbits,6
                                           ;	.line	997; "MC32P7351.c"	T2DATA = 100;
                                           	MOVAI	0x64
                                           	MOVRA	_T2DATA
                                           ;	.line	998; "MC32P7351.c"	adc_sel_pin(ADC_PIN_P02_AN1); // ÇĐ»»µ˝Ľě˛âµçłŘ˝µŃąşóµÄµçŃąµÄĽě˛âŇý˝Ĺ
                                           	MOVAI	0x02
                                           	CALL	_adc_sel_pin
                                           ;	.line	999; "MC32P7351.c"	for (i = 0; i < 10; i++)      // Ăż55ms˝řČëŇ»´ÎŁ¬Ń­»·ÄÚĂż´ÎĽä¸ôÔĽ4.8ms
                                           	CLRR	_i
                                           ;;unsigned compare: left < lit(0xA=10), size=1
                                           _00854_DS_
                                           	MOVAI	0x0a
                                           	RSUBAR	_i
                                           	JBCLR	PFLAG,0
                                           	GOTO	_00802_DS_
                                           ;;genSkipc:3291: created from rifx:013B5EFC
                                           ;	.line	1001; "MC32P7351.c"	adc_val = adc_get_val();
                                           	CALL	_adc_get_val
                                           	MOVRA	(_adc_val + 1)
                                           	MOVAR	STK00
                                           	MOVRA	_adc_val
                                           ;;unsigned compare: left < lit(0xF52=3922), size=2
                                           ;	.line	1002; "MC32P7351.c"	if (adc_val >= ADCDETECT_BAT_FULL + ADCDETECT_BAT_NULL_EX)
                                           	MOVAI	0x0f
                                           	RSUBAR	(_adc_val + 1)
                                           	JBSET	PFLAG,2
                                           	GOTO	_00982_DS_
                                           	MOVAI	0x52
                                           	RSUBAR	_adc_val
                                           _00982_DS_
                                           	JBSET	PFLAG,0
                                           	GOTO	_00855_DS_
                                           ;;genSkipc:3291: created from rifx:013B5EFC
                                           ;	.line	1004; "MC32P7351.c"	flag_bat_is_empty = 1;
                                           	BSET	_flag3,7
                                           _00855_DS_
                                           ;	.line	999; "MC32P7351.c"	for (i = 0; i < 10; i++)      // Ăż55ms˝řČëŇ»´ÎŁ¬Ń­»·ÄÚĂż´ÎĽä¸ôÔĽ4.8ms
                                           	INCR	_i
                                           	GOTO	_00854_DS_
                                           _00802_DS_
                                           ;	.line	1008; "MC32P7351.c"	PWM2EC = 0; // ąŘ±ŐżŘÖĆÉýŃąµçÂ·µÄpwm
                                           	BCLR	_T2CRbits,6
                                           ;	.line	1009; "MC32P7351.c"	T2DATA = 0;
                                           	CLRR	_T2DATA
                                           _00851_DS_
                                           ;	.line	1018; "MC32P7351.c"	if (flag_bat_is_empty)
                                           	JBSET	_flag3,7
                                           	GOTO	_00804_DS_
                                           ;	.line	1021; "MC32P7351.c"	LED_CHARGING_PIN = LED_ON;
                                           	BCLR	_IOP0bits,4
                                           ;	.line	1022; "MC32P7351.c"	delay_ms(500);
                                           	MOVAI	0xf4
                                           	MOVRA	STK00
                                           	MOVAI	0x01
                                           	CALL	_delay_ms
                                           ;	.line	1023; "MC32P7351.c"	LED_CHARGING_PIN = LED_OFF;
                                           	BSET	_IOP0bits,4
                                           ;	.line	1024; "MC32P7351.c"	delay_ms(500);
                                           	MOVAI	0xf4
                                           	MOVRA	STK00
                                           	MOVAI	0x01
                                           	CALL	_delay_ms
                                           ;	.line	1025; "MC32P7351.c"	continue;
                                           	GOTO	_00851_DS_
                                           _00804_DS_
                                           ;	.line	1029; "MC32P7351.c"	key_event_handle(); // °´ĽüĘÂĽţ´¦ŔíşŻĘýŁ¬É¨ĂčÔÚÖĐ¶Ď·ţÎńşŻĘýÄÚÖ´ĐĐ
                                           	CALL	_key_event_handle
                                           ;	.line	1030; "MC32P7351.c"	adc_scan_handle();  // łäµçÉ¨ĂčşÍ´¦ŔíşŻĘý(ÔĽŐĽÓĂ89ms)
                                           	CALL	_adc_scan_handle
                                           ;	.line	1032; "MC32P7351.c"	turn_dir_scan_handle();
                                           	CALL	_turn_dir_scan_handle
                                           ;	.line	1033; "MC32P7351.c"	shutdown_scan_handle(); // ×Ô¶ŻąŘ»úĽě˛âşÍ´¦ŔíşŻĘý
                                           	CALL	_shutdown_scan_handle
                                           ;	.line	1037; "MC32P7351.c"	if (FLAG_IS_IN_CHARGING)
                                           	JBSET	_flag1,2
                                           	GOTO	_00836_DS_
                                           ;	.line	1039; "MC32P7351.c"	last_pwm_val = T2DATA;      // ¶ÁłöÉĎŇ»´ÎPWMŐĽżŐ±Č¶ÔÓ¦µÄÖµ
                                           	MOVAR	_T2DATA
                                           	MOVRA	_last_pwm_val
                                           	CLRR	(_last_pwm_val + 1)
                                           ;	.line	1040; "MC32P7351.c"	max_pwm_val = (T2LOAD + 1); // ¶ÁłöPWMŐĽżŐ±ČÉč¶¨µÄˇ˘×î´óµÄÖµ
                                           	MOVAR	_T2LOAD
                                           	MOVRA	r0x1061
                                           	CLRR	r0x1062
                                           	MOVAI	0x01
                                           	ADDAR	r0x1061
                                           	MOVRA	_max_pwm_val
                                           	CLRR	(_max_pwm_val + 1)
                                           	RLR	(_max_pwm_val + 1)
                                           	MOVAI	0x00
                                           	ADDRA	(_max_pwm_val + 1)
                                           	CLRR	(_max_pwm_val + 2)
                                           	CLRR	(_max_pwm_val + 3)
                                           ;	.line	1062; "MC32P7351.c"	tmp_bat_val = adc_bat_val;
                                           	MOVAR	_adc_bat_val
                                           	MOVRA	_tmp_bat_val
                                           	MOVAR	(_adc_bat_val + 1)
                                           	MOVRA	(_tmp_bat_val + 1)
                                           ;;swapping arguments (AOP_TYPEs 1/3)
                                           ;;unsigned compare: left >= lit(0xB16=2838), size=4
                                           ;	.line	1063; "MC32P7351.c"	if (adc_bat_val <= 2837) // ČçąűĽě˛âµçłŘµçŃąĐˇÓÚ 6.5V
                                           	MOVAI	0x00
                                           	RSUBAR	(_adc_bat_val + 3)
                                           	JBSET	PFLAG,2
                                           	GOTO	_00983_DS_
                                           	MOVAI	0x00
                                           	RSUBAR	(_adc_bat_val + 2)
                                           	JBSET	PFLAG,2
                                           	GOTO	_00983_DS_
                                           	MOVAI	0x0b
                                           	RSUBAR	(_adc_bat_val + 1)
                                           	JBSET	PFLAG,2
                                           	GOTO	_00983_DS_
                                           	MOVAI	0x16
                                           	RSUBAR	_adc_bat_val
                                           _00983_DS_
                                           	JBCLR	PFLAG,0
                                           	GOTO	_00815_DS_
                                           ;;genSkipc:3291: created from rifx:013B5EFC
                                           ;	.line	1065; "MC32P7351.c"	tmp_bat_val += 310;
                                           	MOVAI	0x36
                                           	ADDRA	_tmp_bat_val
                                           	JBCLR	PFLAG,0
                                           	INCR	(_tmp_bat_val + 1)
                                           	INCR	(_tmp_bat_val + 1)
                                           	GOTO	_00882_DS_
                                           ;;swapping arguments (AOP_TYPEs 1/3)
                                           ;;unsigned compare: left >= lit(0xBF1=3057), size=4
                                           _00815_DS_
                                           ;	.line	1067; "MC32P7351.c"	else if (adc_bat_val <= 3056) // ČçąűĽě˛âµçłŘµçŃąĐˇÓÚ 7.0V
                                           	MOVAI	0x00
                                           	RSUBAR	(_adc_bat_val + 3)
                                           	JBSET	PFLAG,2
                                           	GOTO	_00984_DS_
                                           	MOVAI	0x00
                                           	RSUBAR	(_adc_bat_val + 2)
                                           	JBSET	PFLAG,2
                                           	GOTO	_00984_DS_
                                           	MOVAI	0x0b
                                           	RSUBAR	(_adc_bat_val + 1)
                                           	JBSET	PFLAG,2
                                           	GOTO	_00984_DS_
                                           	MOVAI	0xf1
                                           	RSUBAR	_adc_bat_val
                                           _00984_DS_
                                           	JBCLR	PFLAG,0
                                           	GOTO	_00812_DS_
                                           ;;genSkipc:3291: created from rifx:013B5EFC
                                           ;	.line	1069; "MC32P7351.c"	tmp_bat_val += 290;
                                           	MOVAI	0x22
                                           	ADDRA	_tmp_bat_val
                                           	JBCLR	PFLAG,0
                                           	INCR	(_tmp_bat_val + 1)
                                           	INCR	(_tmp_bat_val + 1)
                                           	GOTO	_00882_DS_
                                           ;;swapping arguments (AOP_TYPEs 1/3)
                                           ;;unsigned compare: left >= lit(0xC75=3189), size=4
                                           _00812_DS_
                                           ;	.line	1071; "MC32P7351.c"	else if (adc_bat_val <= 3188) // ČçąűĽě˛âµçłŘµçŃąĐˇÓÚ 7.3V
                                           	MOVAI	0x00
                                           	RSUBAR	(_adc_bat_val + 3)
                                           	JBSET	PFLAG,2
                                           	GOTO	_00985_DS_
                                           	MOVAI	0x00
                                           	RSUBAR	(_adc_bat_val + 2)
                                           	JBSET	PFLAG,2
                                           	GOTO	_00985_DS_
                                           	MOVAI	0x0c
                                           	RSUBAR	(_adc_bat_val + 1)
                                           	JBSET	PFLAG,2
                                           	GOTO	_00985_DS_
                                           	MOVAI	0x75
                                           	RSUBAR	_adc_bat_val
                                           _00985_DS_
                                           	JBCLR	PFLAG,0
                                           	GOTO	_00809_DS_
                                           ;;genSkipc:3291: created from rifx:013B5EFC
                                           ;	.line	1073; "MC32P7351.c"	tmp_bat_val += 250; //
                                           	MOVAI	0xfa
                                           	ADDRA	_tmp_bat_val
                                           	JBCLR	PFLAG,0
                                           	INCR	(_tmp_bat_val + 1)
                                           	GOTO	_00882_DS_
                                           ;;swapping arguments (AOP_TYPEs 1/3)
                                           ;;unsigned compare: left >= lit(0xCFF=3327), size=4
                                           _00809_DS_
                                           ;	.line	1075; "MC32P7351.c"	else if (adc_bat_val <= 3326) // ČçąűĽě˛âµçłŘµçŃąĐˇÓÚ 7.62V
                                           	MOVAI	0x00
                                           	RSUBAR	(_adc_bat_val + 3)
                                           	JBSET	PFLAG,2
                                           	GOTO	_00986_DS_
                                           	MOVAI	0x00
                                           	RSUBAR	(_adc_bat_val + 2)
                                           	JBSET	PFLAG,2
                                           	GOTO	_00986_DS_
                                           	MOVAI	0x0c
                                           	RSUBAR	(_adc_bat_val + 1)
                                           	JBSET	PFLAG,2
                                           	GOTO	_00986_DS_
                                           	MOVAI	0xff
                                           	RSUBAR	_adc_bat_val
                                           _00986_DS_
                                           	JBCLR	PFLAG,0
                                           	GOTO	_00806_DS_
                                           ;;genSkipc:3291: created from rifx:013B5EFC
                                           ;	.line	1077; "MC32P7351.c"	tmp_bat_val += 200;
                                           	MOVAI	0xc8
                                           	ADDRA	_tmp_bat_val
                                           	JBCLR	PFLAG,0
                                           	INCR	(_tmp_bat_val + 1)
                                           	GOTO	_00882_DS_
                                           _00806_DS_
                                           ;	.line	1081; "MC32P7351.c"	tmp_bat_val -= ((u32)adc_bat_val * 157 / 1000 - 522);
                                           	MOVAR	_adc_bat_val
                                           	MOVRA	STK06
                                           	MOVAR	(_adc_bat_val + 1)
                                           	MOVRA	STK05
                                           	MOVAR	(_adc_bat_val + 2)
                                           	MOVRA	STK04
                                           	MOVAR	(_adc_bat_val + 3)
                                           	MOVRA	STK03
                                           	MOVAI	0x9d
                                           	MOVRA	STK02
                                           	MOVAI	0x00
                                           	MOVRA	STK01
                                           	MOVAI	0x00
                                           	MOVRA	STK00
                                           	MOVAI	0x00
                                           	CALL	__mullong
                                           	MOVRA	r0x1063
                                           	MOVAR	STK00
                                           	MOVRA	r0x1064
                                           	MOVAR	STK01
                                           	MOVRA	r0x1062
                                           	MOVAR	STK02
                                           	MOVRA	r0x1061
                                           	MOVAI	0xe8
                                           	MOVRA	STK06
                                           	MOVAI	0x03
                                           	MOVRA	STK05
                                           	MOVAI	0x00
                                           	MOVRA	STK04
                                           	MOVAI	0x00
                                           	MOVRA	STK03
                                           	MOVAR	r0x1061
                                           	MOVRA	STK02
                                           	MOVAR	r0x1062
                                           	MOVRA	STK01
                                           	MOVAR	r0x1064
                                           	MOVRA	STK00
                                           	MOVAR	r0x1063
                                           	CALL	__divulong
                                           	MOVRA	r0x1063
                                           	MOVAR	STK00
                                           	MOVRA	r0x1064
                                           	MOVAR	STK01
                                           	MOVRA	r0x1066
                                           	MOVRA	r0x1062
                                           	MOVAR	STK02
                                           	MOVRA	r0x1065
                                           	MOVRA	r0x1061
                                           ;;118	MOVAR	r0x1061
                                           ;;119	MOVAR	r0x1062
                                           	MOVAI	0xf6
                                           	ADDAR	r0x1065
                                           	MOVRA	r0x1061
                                           	MOVAI	0xfd
                                           	MOVRA	r0x1062
                                           	MOVAR	r0x1066
                                           	JBCLR	PFLAG,0
                                           	JZAR	r0x1066
                                           	ADDRA	r0x1062
                                           	MOVAR	r0x1061
                                           	RSUBRA	_tmp_bat_val
                                           	MOVAR	r0x1062
                                           	JBSET	PFLAG,0
                                           	JZAR	r0x1062
                                           	RSUBRA	(_tmp_bat_val + 1)
                                           _00882_DS_
                                           ;	.line	1086; "MC32P7351.c"	for (i = 0; i < 50; i++)
                                           	CLRR	r0x1061
                                           ;;swapping arguments (AOP_TYPEs 1/3)
                                           ;;unsigned compare: left >= lit(0x3=3), size=2
                                           _00856_DS_
                                           ;	.line	1088; "MC32P7351.c"	if (tmp_bat_val > 2)
                                           	MOVAI	0x00
                                           	RSUBAR	(_tmp_bat_val + 1)
                                           	JBSET	PFLAG,2
                                           	GOTO	_00987_DS_
                                           	MOVAI	0x03
                                           	RSUBAR	_tmp_bat_val
                                           _00987_DS_
                                           	JBSET	PFLAG,0
                                           	GOTO	_00857_DS_
                                           ;;genSkipc:3291: created from rifx:013B5EFC
                                           ;	.line	1090; "MC32P7351.c"	tmp_bat_val--;
                                           	MOVAI	0xff
                                           	ADDRA	_tmp_bat_val
                                           	JBSET	PFLAG,0
                                           	DECR	(_tmp_bat_val + 1)
                                           _00857_DS_
                                           ;	.line	1086; "MC32P7351.c"	for (i = 0; i < 50; i++)
                                           	INCR	r0x1061
                                           ;;unsigned compare: left < lit(0x32=50), size=1
                                           	MOVAI	0x32
                                           	RSUBAR	r0x1061
                                           	JBSET	PFLAG,0
                                           	GOTO	_00856_DS_
                                           ;;genSkipc:3291: created from rifx:013B5EFC
                                           ;;unsigned compare: left < lit(0xE27=3623), size=4
                                           ;	.line	1096; "MC32P7351.c"	if (adc_bat_val >= 3623) // 8.30VĽ°ŇÔÉĎ , ˝µµÍµçÁ÷
                                           	MOVAI	0x00
                                           	RSUBAR	(_adc_bat_val + 3)
                                           	JBSET	PFLAG,2
                                           	GOTO	_00989_DS_
                                           	MOVAI	0x00
                                           	RSUBAR	(_adc_bat_val + 2)
                                           	JBSET	PFLAG,2
                                           	GOTO	_00989_DS_
                                           	MOVAI	0x0e
                                           	RSUBAR	(_adc_bat_val + 1)
                                           	JBSET	PFLAG,2
                                           	GOTO	_00989_DS_
                                           	MOVAI	0x27
                                           	RSUBAR	_adc_bat_val
                                           _00989_DS_
                                           	JBSET	PFLAG,0
                                           	GOTO	_00824_DS_
                                           ;;genSkipc:3291: created from rifx:013B5EFC
                                           ;	.line	1099; "MC32P7351.c"	for (i = 0; i < 260; i++) //
                                           	CLRR	r0x1061
                                           	CLRR	r0x1062
                                           ;;swapping arguments (AOP_TYPEs 1/3)
                                           ;;unsigned compare: left >= lit(0x3=3), size=2
                                           _00858_DS_
                                           ;	.line	1101; "MC32P7351.c"	if (tmp_bat_val > 2)
                                           	MOVAI	0x00
                                           	RSUBAR	(_tmp_bat_val + 1)
                                           	JBSET	PFLAG,2
                                           	GOTO	_00990_DS_
                                           	MOVAI	0x03
                                           	RSUBAR	_tmp_bat_val
                                           _00990_DS_
                                           	JBSET	PFLAG,0
                                           	GOTO	_00859_DS_
                                           ;;genSkipc:3291: created from rifx:013B5EFC
                                           ;	.line	1103; "MC32P7351.c"	tmp_bat_val--;
                                           	MOVAI	0xff
                                           	ADDRA	_tmp_bat_val
                                           	JBSET	PFLAG,0
                                           	DECR	(_tmp_bat_val + 1)
                                           _00859_DS_
                                           ;	.line	1099; "MC32P7351.c"	for (i = 0; i < 260; i++) //
                                           	INCR	r0x1061
                                           	JBCLR	PFLAG,2
                                           	INCR	r0x1062
                                           ;;unsigned compare: left < lit(0x104=260), size=2
                                           	MOVAI	0x01
                                           	RSUBAR	r0x1062
                                           	JBSET	PFLAG,2
                                           	GOTO	_00991_DS_
                                           	MOVAI	0x04
                                           	RSUBAR	r0x1061
                                           _00991_DS_
                                           	JBSET	PFLAG,0
                                           	GOTO	_00858_DS_
                                           ;;genSkipc:3291: created from rifx:013B5EFC
                                           _00824_DS_
                                           ;	.line	1137; "MC32P7351.c"	tmp_val = max_pwm_val - (adc_charging_val * max_pwm_val * 94 / 147) / tmp_bat_val;
                                           	MOVAR	_adc_charging_val
                                           	MOVRA	r0x1061
                                           	MOVAR	(_adc_charging_val + 1)
                                           	MOVRA	r0x1062
                                           	CLRR	r0x1065
                                           	CLRR	r0x1066
                                           	MOVAR	_max_pwm_val
                                           	MOVRA	STK06
                                           	MOVAR	(_max_pwm_val + 1)
                                           	MOVRA	STK05
                                           	MOVAR	(_max_pwm_val + 2)
                                           	MOVRA	STK04
                                           	MOVAR	(_max_pwm_val + 3)
                                           	MOVRA	STK03
                                           	MOVAR	r0x1061
                                           	MOVRA	STK02
                                           	MOVAR	r0x1062
                                           	MOVRA	STK01
                                           	MOVAI	0x00
                                           	MOVRA	STK00
                                           	MOVAI	0x00
                                           	CALL	__mullong
                                           	MOVRA	r0x1066
                                           	MOVAR	STK00
                                           	MOVRA	r0x1065
                                           	MOVAR	STK01
                                           	MOVRA	r0x1062
                                           	MOVAR	STK02
                                           	MOVRA	r0x1061
                                           	MOVAR	r0x1061
                                           	MOVRA	STK06
                                           	MOVAR	r0x1062
                                           	MOVRA	STK05
                                           	MOVAR	r0x1065
                                           	MOVRA	STK04
                                           	MOVAR	r0x1066
                                           	MOVRA	STK03
                                           	MOVAI	0x5e
                                           	MOVRA	STK02
                                           	MOVAI	0x00
                                           	MOVRA	STK01
                                           	MOVAI	0x00
                                           	MOVRA	STK00
                                           	MOVAI	0x00
                                           	CALL	__mullong
                                           	MOVRA	r0x1066
                                           	MOVAR	STK00
                                           	MOVRA	r0x1065
                                           	MOVAR	STK01
                                           	MOVRA	r0x1062
                                           	MOVAR	STK02
                                           	MOVRA	r0x1061
                                           	MOVAI	0x93
                                           	MOVRA	STK06
                                           	MOVAI	0x00
                                           	MOVRA	STK05
                                           	MOVAI	0x00
                                           	MOVRA	STK04
                                           	MOVAI	0x00
                                           	MOVRA	STK03
                                           	MOVAR	r0x1061
                                           	MOVRA	STK02
                                           	MOVAR	r0x1062
                                           	MOVRA	STK01
                                           	MOVAR	r0x1065
                                           	MOVRA	STK00
                                           	MOVAR	r0x1066
                                           	CALL	__divulong
                                           	MOVRA	r0x1066
                                           	MOVAR	STK00
                                           	MOVRA	r0x1065
                                           	MOVAR	STK01
                                           	MOVRA	r0x1062
                                           	MOVAR	STK02
                                           	MOVRA	r0x1061
                                           	MOVAR	_tmp_bat_val
                                           	MOVRA	r0x1067
                                           	MOVAR	(_tmp_bat_val + 1)
                                           	MOVRA	r0x1068
                                           	CLRR	r0x1069
                                           	CLRR	r0x106A
                                           	MOVAR	r0x1067
                                           	MOVRA	STK06
                                           	MOVAR	r0x1068
                                           	MOVRA	STK05
                                           	MOVAI	0x00
                                           	MOVRA	STK04
                                           	MOVAI	0x00
                                           	MOVRA	STK03
                                           	MOVAR	r0x1061
                                           	MOVRA	STK02
                                           	MOVAR	r0x1062
                                           	MOVRA	STK01
                                           	MOVAR	r0x1065
                                           	MOVRA	STK00
                                           	MOVAR	r0x1066
                                           	CALL	__divulong
                                           	MOVRA	r0x1066
                                           	MOVAR	STK00
                                           	MOVRA	r0x1065
                                           	MOVAR	STK01
                                           	MOVRA	r0x106A
                                           	MOVRA	r0x1062
                                           	MOVAR	STK02
                                           	MOVRA	r0x1069
                                           	MOVRA	r0x1061
                                           	MOVAR	_max_pwm_val
                                           	MOVRA	r0x1067
                                           	MOVAR	(_max_pwm_val + 1)
                                           	MOVRA	r0x1068
                                           ;;115	MOVAR	r0x1061
                                           ;;116	MOVAR	r0x1062
                                           	MOVAR	r0x1069
                                           	RSUBAR	r0x1067
                                           	MOVRA	_tmp_val
                                           	MOVAR	r0x106A
                                           	JBSET	PFLAG,0
                                           	INCAR	r0x106A
                                           	RSUBAR	r0x1068
                                           	MOVRA	(_tmp_val + 1)
                                           ;	.line	1142; "MC32P7351.c"	if (tmp_val >= max_pwm_val)
                                           	MOVAR	_tmp_val
                                           	MOVRA	r0x1061
                                           	MOVAR	(_tmp_val + 1)
                                           	MOVRA	r0x1062
                                           	CLRR	r0x1065
                                           	CLRR	r0x1066
                                           	MOVAR	(_max_pwm_val + 3)
                                           	RSUBAR	r0x1066
                                           	JBSET	PFLAG,2
                                           	GOTO	_00992_DS_
                                           	MOVAR	(_max_pwm_val + 2)
                                           	RSUBAR	r0x1065
                                           	JBSET	PFLAG,2
                                           	GOTO	_00992_DS_
                                           	MOVAR	(_max_pwm_val + 1)
                                           	RSUBAR	r0x1062
                                           	JBSET	PFLAG,2
                                           	GOTO	_00992_DS_
                                           	MOVAR	_max_pwm_val
                                           	RSUBAR	r0x1061
                                           _00992_DS_
                                           	JBSET	PFLAG,0
                                           	GOTO	_00826_DS_
                                           ;;genSkipc:3291: created from rifx:013B5EFC
                                           ;	.line	1145; "MC32P7351.c"	tmp_val = 0;
                                           	CLRR	_tmp_val
                                           	CLRR	(_tmp_val + 1)
                                           _00826_DS_
                                           ;	.line	1149; "MC32P7351.c"	tmp_val_cnt++;
                                           	INCR	_tmp_val_cnt
                                           ;	.line	1150; "MC32P7351.c"	tmp_val_cnt &= 0x07;
                                           	MOVAI	0x07
                                           	ANDRA	_tmp_val_cnt
                                           ;	.line	1151; "MC32P7351.c"	tmp_val_l[tmp_val_cnt] = (tmp_val_l[tmp_val_cnt] + tmp_val) >> 1;
                                           	BCLR	PFLAG,0
                                           	RLAR	_tmp_val_cnt
                                           	MOVRA	r0x1061
                                           	MOVAR	r0x1061
                                           	ADDAI	(_tmp_val_l + 0)
                                           	MOVRA	r0x1061
                                           	MOVAI	high (_tmp_val_l + 0)
                                           	JBCLR	PFLAG,0
                                           	ADDAI	0x01
                                           	MOVRA	r0x1062
                                           	BCLR	PFLAG,0
                                           	RLAR	_tmp_val_cnt
                                           	MOVRA	r0x1065
                                           	MOVAR	r0x1065
                                           	ADDAI	(_tmp_val_l + 0)
                                           	MOVRA	r0x1065
                                           	MOVAI	high (_tmp_val_l + 0)
                                           	JBCLR	PFLAG,0
                                           	ADDAI	0x01
                                           	MOVRA	r0x1066
                                           	MOVAR	r0x1065
                                           	MOVRA	FSR0
                                           	MOVAR	r0x1066
                                           	MOVRA	FSR1
                                           	MOVAR	INDF2
                                           	MOVRA	r0x1067
                                           	INCR	FSR0
                                           	JBCLR	PFLAG,2
                                           	INCR	FSR1
                                           	MOVAR	INDF2
                                           	MOVRA	r0x1066
                                           	MOVRA	r0x1068
                                           	MOVAR	_tmp_val
                                           	ADDAR	r0x1067
                                           	MOVRA	r0x1065
                                           ;;117	MOVAR	r0x1068
                                           	MOVAR	(_tmp_val + 1)
                                           	JBCLR	PFLAG,0
                                           	JZAR	(_tmp_val + 1)
                                           	ADDRA	r0x1066
                                           ;;shiftRight_Left2ResultLit:5339: shCount=1, size=2, sign=0, same=0, offr=0
                                           	BCLR	PFLAG,0
                                           	RRAR	r0x1066
                                           	MOVRA	r0x1068
                                           	RRAR	r0x1065
                                           	MOVRA	r0x1067
                                           	MOVAR	r0x1061
                                           	MOVRA	FSR0
                                           	MOVAR	r0x1062
                                           	MOVRA	FSR1
                                           	MOVAR	r0x1067
                                           	MOVRA	INDF2
                                           	INCR	FSR0
                                           	JBCLR	PFLAG,2
                                           	INCR	FSR1
                                           	MOVAR	r0x1068
                                           	MOVRA	INDF2
                                           ;	.line	1152; "MC32P7351.c"	tmp_val = 0;
                                           	CLRR	_tmp_val
                                           	CLRR	(_tmp_val + 1)
                                           ;	.line	1153; "MC32P7351.c"	for (i = 0; i < 8; i++)
                                           	CLRR	_i
                                           ;;unsigned compare: left < lit(0x8=8), size=1
                                           _00861_DS_
                                           	MOVAI	0x08
                                           	RSUBAR	_i
                                           	JBCLR	PFLAG,0
                                           	GOTO	_00827_DS_
                                           ;;genSkipc:3291: created from rifx:013B5EFC
                                           ;	.line	1155; "MC32P7351.c"	tmp_val += tmp_val_l[i];
                                           	BCLR	PFLAG,0
                                           	RLAR	_i
                                           	MOVRA	r0x1061
                                           	MOVAR	r0x1061
                                           	ADDAI	(_tmp_val_l + 0)
                                           	MOVRA	r0x1061
                                           	MOVAI	high (_tmp_val_l + 0)
                                           	JBCLR	PFLAG,0
                                           	ADDAI	0x01
                                           	MOVRA	r0x1062
                                           	MOVAR	r0x1061
                                           	MOVRA	FSR0
                                           	MOVAR	r0x1062
                                           	MOVRA	FSR1
                                           	MOVAR	INDF2
                                           	MOVRA	r0x1065
                                           	INCR	FSR0
                                           	JBCLR	PFLAG,2
                                           	INCR	FSR1
                                           	MOVAR	INDF2
                                           	MOVRA	r0x1066
                                           	MOVAR	r0x1065
                                           	ADDRA	_tmp_val
                                           	MOVAR	r0x1066
                                           	JBCLR	PFLAG,0
                                           	JZAR	r0x1066
                                           	ADDRA	(_tmp_val + 1)
                                           ;	.line	1153; "MC32P7351.c"	for (i = 0; i < 8; i++)
                                           	INCR	_i
                                           	GOTO	_00861_DS_
                                           ;;shiftRight_Left2ResultLit:5339: shCount=1, size=2, sign=0, same=1, offr=0
                                           _00827_DS_
                                           ;	.line	1157; "MC32P7351.c"	tmp_val >>= 3;
                                           	BCLR	PFLAG,0
                                           	RRR	(_tmp_val + 1)
                                           	RRR	_tmp_val
                                           ;;shiftRight_Left2ResultLit:5339: shCount=1, size=2, sign=0, same=1, offr=0
                                           	BCLR	PFLAG,0
                                           	RRR	(_tmp_val + 1)
                                           	RRR	_tmp_val
                                           ;;shiftRight_Left2ResultLit:5339: shCount=1, size=2, sign=0, same=1, offr=0
                                           	BCLR	PFLAG,0
                                           	RRR	(_tmp_val + 1)
                                           	RRR	_tmp_val
                                           ;	.line	1195; "MC32P7351.c"	if (flag_is_adjust_pwm_time_comes)
                                           	JBSET	_flag3,6
                                           	GOTO	_00834_DS_
                                           ;	.line	1197; "MC32P7351.c"	flag_is_adjust_pwm_time_comes = 0;
                                           	BCLR	_flag3,6
                                           ;	.line	1199; "MC32P7351.c"	if (tmp_val > last_pwm_val)
                                           	MOVAR	(_tmp_val + 1)
                                           	RSUBAR	(_last_pwm_val + 1)
                                           	JBSET	PFLAG,2
                                           	GOTO	_00994_DS_
                                           	MOVAR	_tmp_val
                                           	RSUBAR	_last_pwm_val
                                           _00994_DS_
                                           	JBCLR	PFLAG,0
                                           	GOTO	_00831_DS_
                                           ;;genSkipc:3291: created from rifx:013B5EFC
                                           ;	.line	1204; "MC32P7351.c"	last_pwm_val++;
                                           	INCR	_last_pwm_val
                                           	JBCLR	PFLAG,2
                                           	INCR	(_last_pwm_val + 1)
                                           	GOTO	_00834_DS_
                                           _00831_DS_
                                           ;	.line	1208; "MC32P7351.c"	else if (tmp_val < last_pwm_val)
                                           	MOVAR	(_last_pwm_val + 1)
                                           	RSUBAR	(_tmp_val + 1)
                                           	JBSET	PFLAG,2
                                           	GOTO	_00995_DS_
                                           	MOVAR	_last_pwm_val
                                           	RSUBAR	_tmp_val
                                           _00995_DS_
                                           	JBCLR	PFLAG,0
                                           	GOTO	_00834_DS_
                                           ;;genSkipc:3291: created from rifx:013B5EFC
                                           ;	.line	1213; "MC32P7351.c"	last_pwm_val--;
                                           	MOVAI	0xff
                                           	ADDRA	_last_pwm_val
                                           	JBSET	PFLAG,0
                                           	DECR	(_last_pwm_val + 1)
                                           _00834_DS_
                                           ;	.line	1220; "MC32P7351.c"	T2DATA = last_pwm_val;
                                           	MOVAR	_last_pwm_val
                                           	MOVRA	_T2DATA
                                           _00836_DS_
                                           ;	.line	1223; "MC32P7351.c"	if (flag_is_low_battery)
                                           	JBSET	_flag2,2
                                           	GOTO	_00849_DS_
                                           ;	.line	1225; "MC32P7351.c"	LED_WORKING_OFF();
                                           	BSET	_IOP1bits,4
                                           ;	.line	1228; "MC32P7351.c"	LED_CHARGING_ON();
                                           	BCLR	_IOP0bits,4
                                           ;	.line	1230; "MC32P7351.c"	for (i = 0; i < 20; i++)
                                           	CLRR	_i
                                           ;;unsigned compare: left < lit(0x14=20), size=1
                                           _00864_DS_
                                           	MOVAI	0x14
                                           	RSUBAR	_i
                                           	JBCLR	PFLAG,0
                                           	GOTO	_00844_DS_
                                           ;;genSkipc:3291: created from rifx:013B5EFC
                                           ;	.line	1233; "MC32P7351.c"	key_event_handle();
                                           	CALL	_key_event_handle
                                           ;	.line	1234; "MC32P7351.c"	delay_ms(10);
                                           	MOVAI	0x0a
                                           	MOVRA	STK00
                                           	MOVAI	0x00
                                           	CALL	_delay_ms
                                           ;	.line	1230; "MC32P7351.c"	for (i = 0; i < 20; i++)
                                           	INCR	_i
                                           	GOTO	_00864_DS_
                                           _00844_DS_
                                           ;	.line	1237; "MC32P7351.c"	LED_CHARGING_OFF();
                                           	BSET	_IOP0bits,4
                                           ;	.line	1239; "MC32P7351.c"	for (i = 0; i < 20; i++)
                                           	CLRR	_i
                                           ;;unsigned compare: left < lit(0x14=20), size=1
                                           _00867_DS_
                                           	MOVAI	0x14
                                           	RSUBAR	_i
                                           	JBCLR	PFLAG,0
                                           	GOTO	_00849_DS_
                                           ;;genSkipc:3291: created from rifx:013B5EFC
                                           ;	.line	1242; "MC32P7351.c"	key_event_handle();
                                           	CALL	_key_event_handle
                                           ;	.line	1243; "MC32P7351.c"	delay_ms(10);
                                           	MOVAI	0x0a
                                           	MOVRA	STK00
                                           	MOVAI	0x00
                                           	CALL	_delay_ms
                                           ;	.line	1239; "MC32P7351.c"	for (i = 0; i < 20; i++)
                                           	INCR	_i
                                           	GOTO	_00867_DS_
                                           _00849_DS_
                                           ;	.line	1247; "MC32P7351.c"	low_power_scan_handle();
                                           	CALL	_low_power_scan_handle
                                           ;	.line	1254; "MC32P7351.c"	__endasm;
                                           	;
                                           	CLRWDT;
                                           	
                                           	GOTO	_00851_DS_
                                           ;	.line	1257; "MC32P7351.c"	}
                                           	RETURN	
                                           ; exit point of _main
                                           
                                           ;***
                                           ;  pBlock Stats: dbName = C
                                           ;***
                                           ;entry:  _low_power_scan_handle	;Function start
                                           ; 2 exit points
                                           ;has an exit
                                           ;functions called:
                                           ;   _CLR_RAM
                                           ;   _adc_config
                                           ;   _adc_sel_pin
                                           ;   _adc_get_val
                                           ;   _Sys_Init
                                           ;   _CLR_RAM
                                           ;   _adc_config
                                           ;   _adc_sel_pin
                                           ;   _adc_get_val
                                           ;   _Sys_Init
                                           ;1 compiler assigned register :
                                           ;   STK00
                                           ;; Starting pCode block
                                           _low_power_scan_handle	;Function start
                                           ; 2 exit points
                                           ;	.line	882; "MC32P7351.c"	FLAG_IS_DEVICE_OPEN ||                            // ČçąűÉč±¸ŇŃľ­Ćô¶ŻŁ¬˛»˝řČëµÍą¦şÄ
                                           	JBCLR	_flag1,0
                                           	GOTO	_00758_DS_
                                           ;	.line	883; "MC32P7351.c"	FLAG_IS_IN_CHARGING ||                            // ČçąűŐýÔÚłäµçŁ¬˛»˝řČëµÍą¦şÄŁ¬ŇňÎŞ»ąĐčŇŞĘäłöPWMŔ´żŘÖĆłäµç
                                           	JBCLR	_flag1,2
                                           	GOTO	_00758_DS_
                                           ;	.line	884; "MC32P7351.c"	(0 == P01D) ||                                    // ČçąűĽě˛âµ˝ żŞąŘ/ÄŁĘ˝ °´Ľü°´ĎÂŁ¬˛»˝řČëµÍą¦şÄ(˝»¸ř°´ĽüĘÂĽţ´¦ŔíşŻĘýŔ´ĹĐ¶ĎĘÇ·ńŇŞżŞ»ú)
                                           	JBSET	_IOP0bits,1
                                           	GOTO	_00758_DS_
                                           ;	.line	885; "MC32P7351.c"	INFLATION_CTL_STATUS_NONE != inflation_ctl_status // Ćř±Ăˇ˘Ćř·§»ąÔÚą¤×÷Ł¬˛»˝řČëµÍą¦şÄ
                                           	MOVAI	0x00
                                           	ORAR	_inflation_ctl_status
                                           	JBCLR	PFLAG,2
                                           	GOTO	_00763_DS_
                                           _00758_DS_
                                           ;	.line	888; "MC32P7351.c"	return;
                                           	GOTO	_00773_DS_
                                           _00763_DS_
                                           ;	.line	906; "MC32P7351.c"	GIE = 0;  // ˝űÓĂËůÓĐÖĐ¶Ď
                                           	BCLR	_MCRbits,7
                                           ;	.line	907; "MC32P7351.c"	T0EN = 0; // ąŘ±Ő¶¨Ę±Ć÷şÍPWMĘäłö
                                           	BCLR	_T0CRbits,7
                                           ;	.line	908; "MC32P7351.c"	T1EN = 0;
                                           	BCLR	_T1CRbits,7
                                           ;	.line	909; "MC32P7351.c"	T2EN = 0;
                                           	BCLR	_T2CRbits,7
                                           ;	.line	910; "MC32P7351.c"	T3EN = 0;
                                           	BCLR	_T3CRbits,7
                                           ;	.line	912; "MC32P7351.c"	PWM0EC = 0;
                                           	BCLR	_T0CRbits,6
                                           ;	.line	913; "MC32P7351.c"	PWM1EC = 0;
                                           	BCLR	_T1CRbits,6
                                           ;	.line	914; "MC32P7351.c"	PWM2EC = 0;
                                           	BCLR	_T2CRbits,6
                                           ;	.line	915; "MC32P7351.c"	T2DATA = 0;
                                           	CLRR	_T2DATA
                                           ;	.line	916; "MC32P7351.c"	ADEN = 0; // ˛»ĘąÄÜad
                                           	BCLR	_ADCR0bits,0
                                           ;	.line	923; "MC32P7351.c"	LED_WORKING_OFF();
                                           	BSET	_IOP1bits,4
                                           ;	.line	924; "MC32P7351.c"	LED_CHARGING_OFF();
                                           	BSET	_IOP0bits,4
                                           ;	.line	926; "MC32P7351.c"	INFLATION_CTL_OFF();
                                           	BCLR	_IOP0bits,3
                                           ;	.line	927; "MC32P7351.c"	DEFLATION_CTL_OFF();
                                           	BCLR	_IOP1bits,3
                                           ;	.line	930; "MC32P7351.c"	P01PU = 1;
                                           	BSET	_PUP0bits,1
                                           ;	.line	931; "MC32P7351.c"	P01OE = 0;
                                           	BCLR	_OEP0bits,1
                                           ;	.line	934; "MC32P7351.c"	P00PD = 1;
                                           	BSET	_PDP0bits,0
                                           ;	.line	935; "MC32P7351.c"	P00OE = 0;
                                           	BCLR	_OEP0bits,0
                                           ;	.line	937; "MC32P7351.c"	HFEN = 0; // ąŘ±Ő¸ßËŮĘ±ÖÓ
                                           	BCLR	_OSCMRbits,0
                                           ;	.line	938; "MC32P7351.c"	LFEN = 1;
                                           	BSET	_OSCMRbits,1
                                           ;	.line	941; "MC32P7351.c"	Nop();
                                           	nop	
                                           ;	.line	942; "MC32P7351.c"	Nop();
                                           	nop	
                                           ;	.line	943; "MC32P7351.c"	Stop();
                                           	stop	
                                           ;	.line	944; "MC32P7351.c"	Nop();
                                           	nop	
                                           ;	.line	945; "MC32P7351.c"	Nop();
                                           	nop	
                                           ;	.line	947; "MC32P7351.c"	HFEN = 1; // żŞĆô¸ßËŮĘ±ÖÓ
                                           	BSET	_OSCMRbits,0
                                           ;	.line	949; "MC32P7351.c"	CLR_RAM();
                                           	CALL	_CLR_RAM
                                           ;	.line	951; "MC32P7351.c"	adc_config();
                                           	CALL	_adc_config
                                           ;	.line	952; "MC32P7351.c"	adc_sel_pin(ADC_PIN_P00_AN0);
                                           	MOVAI	0x01
                                           	CALL	_adc_sel_pin
                                           ;	.line	953; "MC32P7351.c"	adc_val = adc_get_val();
                                           	CALL	_adc_get_val
                                           	MOVRA	(_adc_val + 1)
                                           	MOVAR	STK00
                                           	MOVRA	_adc_val
                                           ;;unsigned compare: left < lit(0x800=2048), size=2
                                           ;	.line	955; "MC32P7351.c"	if (adc_val < ADCDETECT_CHARING_THRESHOLD && P01D)
                                           	MOVAI	0x08
                                           	RSUBAR	(_adc_val + 1)
                                           	JBSET	PFLAG,2
                                           	GOTO	_00795_DS_
                                           	MOVAI	0x00
                                           	RSUBAR	_adc_val
                                           _00795_DS_
                                           	JBCLR	PFLAG,0
                                           	GOTO	_00771_DS_
                                           ;;genSkipc:3291: created from rifx:013B5EFC
                                           	JBCLR	_IOP0bits,1
                                           	GOTO	_00763_DS_
                                           _00771_DS_
                                           ;	.line	981; "MC32P7351.c"	Sys_Init();
                                           	CALL	_Sys_Init
                                           _00773_DS_
                                           ;	.line	985; "MC32P7351.c"	}
                                           	RETURN	
                                           ; exit point of _low_power_scan_handle
                                           
                                           ;***
                                           ;  pBlock Stats: dbName = C
                                           ;***
                                           ;entry:  _shutdown_scan_handle	;Function start
                                           ; 2 exit points
                                           ;has an exit
                                           ;; Starting pCode block
                                           _shutdown_scan_handle	;Function start
                                           ; 2 exit points
                                           ;	.line	850; "MC32P7351.c"	if (FLAG_IS_DEVICE_OPEN)
                                           	JBSET	_flag1,0
                                           	GOTO	_00741_DS_
                                           ;;unsigned compare: left < lit(0xDBBA0=900000), size=4
                                           ;	.line	854; "MC32P7351.c"	if (shut_down_ms_cnt >= 900000)
                                           	MOVAI	0x00
                                           	RSUBAR	(_shut_down_ms_cnt + 3)
                                           	JBSET	PFLAG,2
                                           	GOTO	_00753_DS_
                                           	MOVAI	0x0d
                                           	RSUBAR	(_shut_down_ms_cnt + 2)
                                           	JBSET	PFLAG,2
                                           	GOTO	_00753_DS_
                                           	MOVAI	0xbb
                                           	RSUBAR	(_shut_down_ms_cnt + 1)
                                           	JBSET	PFLAG,2
                                           	GOTO	_00753_DS_
                                           	MOVAI	0xa0
                                           	RSUBAR	_shut_down_ms_cnt
                                           _00753_DS_
                                           	JBSET	PFLAG,0
                                           	GOTO	_00743_DS_
                                           ;;genSkipc:3291: created from rifx:013B5EFC
                                           ;	.line	857; "MC32P7351.c"	LED_WORKING_OFF(); // ąŘ±ŐµçÔ´Ö¸ĘľµĆ
                                           	BSET	_IOP1bits,4
                                           ;	.line	858; "MC32P7351.c"	LED_CHARGING_OFF();
                                           	BSET	_IOP0bits,4
                                           ;	.line	859; "MC32P7351.c"	HEATING_OFF(); // ąŘ±ŐĽÓČČ
                                           	BCLR	_IOP1bits,2
                                           ;	.line	860; "MC32P7351.c"	FLAG_IS_HEATING = 0;
                                           	BCLR	_flag1,1
                                           ;	.line	861; "MC32P7351.c"	mode_flag = MODE_4; // ĎÂŇ»´ÎÇĐ»»ÄŁĘ˝Ę±Ł¬»á±äłÉ MODE_1
                                           	MOVAI	0x03
                                           	MOVRA	_mode_flag
                                           ;	.line	863; "MC32P7351.c"	PWM0EC = 0;
                                           	BCLR	_T0CRbits,6
                                           ;	.line	864; "MC32P7351.c"	PWM1EC = 0;
                                           	BCLR	_T1CRbits,6
                                           ;	.line	866; "MC32P7351.c"	FLAG_IS_DEVICE_OPEN = 0;
                                           	BCLR	_flag1,0
                                           ;	.line	867; "MC32P7351.c"	inflation_ctl_status = INFLATION_CTL_STATUS_DEFLATION;
                                           	MOVAI	0x02
                                           	MOVRA	_inflation_ctl_status
                                           	GOTO	_00743_DS_
                                           _00741_DS_
                                           ;	.line	873; "MC32P7351.c"	shut_down_ms_cnt = 0;
                                           	CLRR	_shut_down_ms_cnt
                                           	CLRR	(_shut_down_ms_cnt + 1)
                                           	CLRR	(_shut_down_ms_cnt + 2)
                                           	CLRR	(_shut_down_ms_cnt + 3)
                                           _00743_DS_
                                           ;	.line	875; "MC32P7351.c"	}
                                           	RETURN	
                                           ; exit point of _shutdown_scan_handle
                                           
                                           ;***
                                           ;  pBlock Stats: dbName = C
                                           ;***
                                           ;entry:  _turn_dir_scan_handle	;Function start
                                           ; 2 exit points
                                           ;has an exit
                                           ;functions called:
                                           ;   _delay_ms
                                           ;   _delay_ms
                                           ;   _delay_ms
                                           ;   _delay_ms
                                           ;1 compiler assigned register :
                                           ;   STK00
                                           ;; Starting pCode block
                                           _turn_dir_scan_handle	;Function start
                                           ; 2 exit points
                                           ;	.line	815; "MC32P7351.c"	if (FLAG_IS_DEVICE_OPEN)
                                           	JBSET	_flag1,0
                                           	GOTO	_00708_DS_
                                           ;;unsigned compare: left < lit(0x1D4C0=120000), size=4
                                           ;	.line	819; "MC32P7351.c"	if (turn_dir_ms_cnt >= (120000) ||
                                           	MOVAI	0x00
                                           	RSUBAR	(_turn_dir_ms_cnt + 3)
                                           	JBSET	PFLAG,2
                                           	GOTO	_00724_DS_
                                           	MOVAI	0x01
                                           	RSUBAR	(_turn_dir_ms_cnt + 2)
                                           	JBSET	PFLAG,2
                                           	GOTO	_00724_DS_
                                           	MOVAI	0xd4
                                           	RSUBAR	(_turn_dir_ms_cnt + 1)
                                           	JBSET	PFLAG,2
                                           	GOTO	_00724_DS_
                                           	MOVAI	0xc0
                                           	RSUBAR	_turn_dir_ms_cnt
                                           _00724_DS_
                                           	JBCLR	PFLAG,0
                                           	GOTO	_00704_DS_
                                           ;;genSkipc:3291: created from rifx:013B5EFC
                                           ;	.line	820; "MC32P7351.c"	flag_ctl_dir)
                                           	JBSET	_flag3,0
                                           	GOTO	_00710_DS_
                                           _00704_DS_
                                           ;	.line	822; "MC32P7351.c"	if (0 == FLAG_DIR)
                                           	JBCLR	_flag1,3
                                           	GOTO	_00702_DS_
                                           ;	.line	824; "MC32P7351.c"	PWM1EC = 0;
                                           	BCLR	_T1CRbits,6
                                           ;	.line	825; "MC32P7351.c"	delay_ms(1000);
                                           	MOVAI	0xe8
                                           	MOVRA	STK00
                                           	MOVAI	0x03
                                           	CALL	_delay_ms
                                           ;	.line	826; "MC32P7351.c"	PWM0EC = 1;
                                           	BSET	_T0CRbits,6
                                           ;	.line	827; "MC32P7351.c"	FLAG_DIR = 1; //
                                           	BSET	_flag1,3
                                           	GOTO	_00703_DS_
                                           _00702_DS_
                                           ;	.line	831; "MC32P7351.c"	PWM0EC = 0; //
                                           	BCLR	_T0CRbits,6
                                           ;	.line	832; "MC32P7351.c"	delay_ms(1000);
                                           	MOVAI	0xe8
                                           	MOVRA	STK00
                                           	MOVAI	0x03
                                           	CALL	_delay_ms
                                           ;	.line	833; "MC32P7351.c"	PWM1EC = 1;   //
                                           	BSET	_T1CRbits,6
                                           ;	.line	834; "MC32P7351.c"	FLAG_DIR = 0; //
                                           	BCLR	_flag1,3
                                           _00703_DS_
                                           ;	.line	837; "MC32P7351.c"	flag_ctl_dir = 0;
                                           	BCLR	_flag3,0
                                           ;	.line	838; "MC32P7351.c"	turn_dir_ms_cnt = 0;
                                           	CLRR	_turn_dir_ms_cnt
                                           	CLRR	(_turn_dir_ms_cnt + 1)
                                           	CLRR	(_turn_dir_ms_cnt + 2)
                                           	CLRR	(_turn_dir_ms_cnt + 3)
                                           	GOTO	_00710_DS_
                                           _00708_DS_
                                           ;	.line	843; "MC32P7351.c"	turn_dir_ms_cnt = 0; // Éč±¸Î´ÔËĐĐĘ±Ł¬ÇĺżŐĽĆĘýÖµ
                                           	CLRR	_turn_dir_ms_cnt
                                           	CLRR	(_turn_dir_ms_cnt + 1)
                                           	CLRR	(_turn_dir_ms_cnt + 2)
                                           	CLRR	(_turn_dir_ms_cnt + 3)
                                           _00710_DS_
                                           ;	.line	845; "MC32P7351.c"	}
                                           	RETURN	
                                           ; exit point of _turn_dir_scan_handle
                                           
                                           ;***
                                           ;  pBlock Stats: dbName = C
                                           ;***
                                           ;entry:  _adc_scan_handle	;Function start
                                           ; 2 exit points
                                           ;has an exit
                                           ;functions called:
                                           ;   _adc_sel_pin
                                           ;   _adc_get_val
                                           ;   _key_event_handle
                                           ;   _adc_sel_pin
                                           ;   _adc_get_val
                                           ;   _key_event_handle
                                           ;   _adc_sel_pin
                                           ;   _adc_get_val
                                           ;   _key_event_handle
                                           ;   _adc_sel_pin
                                           ;   _adc_get_val
                                           ;   _key_event_handle
                                           ;1 compiler assigned register :
                                           ;   STK00
                                           ;; Starting pCode block
                                           _adc_scan_handle	;Function start
                                           ; 2 exit points
                                           ;	.line	532; "MC32P7351.c"	volatile u8 cnt = 0;             // ĽĆĘýÖµŁ¬ÓĂÓÚĽě˛âµçłŘĘÇ·ńÂúµçŁ¬Ň˛ĘÇÓĂÓÚĽě˛âĘÇ·ń˛ĺČë/°ÎłöłäµçĆ÷µÄĽĆĘýÖµ
                                           	CLRR	_adc_scan_handle_cnt_65536_94
                                           ;	.line	533; "MC32P7351.c"	volatile u8 need_charge_cnt = 0; // ĽĆĘýÖµŁ¬ÓĂÓÚĽě˛âĘÇ·ńŇŞżěËŮłäµç
                                           	CLRR	_adc_scan_handle_need_charge_cnt_65536_94
                                           ;	.line	535; "MC32P7351.c"	adc_bat_val = 0;
                                           	CLRR	_adc_bat_val
                                           	CLRR	(_adc_bat_val + 1)
                                           	CLRR	(_adc_bat_val + 2)
                                           	CLRR	(_adc_bat_val + 3)
                                           ;	.line	536; "MC32P7351.c"	adc_charging_val = 0;
                                           	CLRR	_adc_charging_val
                                           	CLRR	(_adc_charging_val + 1)
                                           ;	.line	538; "MC32P7351.c"	adc_sel_pin(ADC_PIN_P02_AN1); // ÇĐ»»µ˝Ľě˛âµçłŘ˝µŃąşóµÄµçŃąµÄĽě˛âŇý˝Ĺ
                                           	MOVAI	0x02
                                           	CALL	_adc_sel_pin
                                           ;	.line	539; "MC32P7351.c"	for (i = 0; i < 10; i++)      //  // Ăż55ms˝řČëŇ»´ÎŁ¬Ń­»·ÄÚĂż´ÎĽä¸ôÔĽ4.8ms
                                           	CLRR	_i
                                           ;;unsigned compare: left < lit(0xA=10), size=1
                                           _00524_DS_
                                           	MOVAI	0x0a
                                           	RSUBAR	_i
                                           	JBCLR	PFLAG,0
                                           	GOTO	_00483_DS_
                                           ;;genSkipc:3291: created from rifx:013B5EFC
                                           ;	.line	541; "MC32P7351.c"	adc_val = adc_get_val();
                                           	CALL	_adc_get_val
                                           	MOVRA	(_adc_val + 1)
                                           	MOVAR	STK00
                                           	MOVRA	_adc_val
                                           ;	.line	543; "MC32P7351.c"	if (i == 0)
                                           	MOVAI	0x00
                                           	ORAR	_i
                                           	JBSET	PFLAG,2
                                           	GOTO	_00410_DS_
                                           ;	.line	545; "MC32P7351.c"	adc_bat_val = adc_val;
                                           	MOVAR	_adc_val
                                           	MOVRA	_adc_bat_val
                                           	MOVAR	(_adc_val + 1)
                                           	MOVRA	(_adc_bat_val + 1)
                                           	CLRR	(_adc_bat_val + 2)
                                           	CLRR	(_adc_bat_val + 3)
                                           _00410_DS_
                                           ;	.line	548; "MC32P7351.c"	if (FLAG_IS_IN_CHARGING)
                                           	JBSET	_flag1,2
                                           	GOTO	_00481_DS_
                                           ;;unsigned compare: left < lit(0xF52=3922), size=2
                                           ;	.line	551; "MC32P7351.c"	if (adc_val >= ADCDETECT_BAT_FULL + ADCDETECT_BAT_NULL_EX)
                                           	MOVAI	0x0f
                                           	RSUBAR	(_adc_val + 1)
                                           	JBSET	PFLAG,2
                                           	GOTO	_00680_DS_
                                           	MOVAI	0x52
                                           	RSUBAR	_adc_val
                                           _00680_DS_
                                           	JBSET	PFLAG,0
                                           	GOTO	_00412_DS_
                                           ;;genSkipc:3291: created from rifx:013B5EFC
                                           ;	.line	554; "MC32P7351.c"	T2DATA = 0;
                                           	CLRR	_T2DATA
                                           ;	.line	555; "MC32P7351.c"	over_charging_cnt++;
                                           	INCR	_over_charging_cnt
                                           ;;unsigned compare: left < lit(0xE3A=3642), size=2
                                           _00412_DS_
                                           ;	.line	558; "MC32P7351.c"	if (adc_val >= ADCDETECT_BAT_FULL) // Ľě˛âµçłŘĘÇ·ńÂúµç
                                           	MOVAI	0x0e
                                           	RSUBAR	(_adc_val + 1)
                                           	JBSET	PFLAG,2
                                           	GOTO	_00681_DS_
                                           	MOVAI	0x3a
                                           	RSUBAR	_adc_val
                                           _00681_DS_
                                           	JBSET	PFLAG,0
                                           	GOTO	_00416_DS_
                                           ;;genSkipc:3291: created from rifx:013B5EFC
                                           ;	.line	560; "MC32P7351.c"	cnt++;
                                           	INCR	_adc_scan_handle_cnt_65536_94
                                           	GOTO	_00417_DS_
                                           ;;unsigned compare: left < lit(0xD90=3472), size=2
                                           _00416_DS_
                                           ;	.line	562; "MC32P7351.c"	else if (adc_val < ADCDETECT_BAT_WILL_FULL) // Ľě˛âĘÇ·ńŇŞżěËŮłäµç
                                           	MOVAI	0x0d
                                           	RSUBAR	(_adc_val + 1)
                                           	JBSET	PFLAG,2
                                           	GOTO	_00682_DS_
                                           	MOVAI	0x90
                                           	RSUBAR	_adc_val
                                           _00682_DS_
                                           	JBCLR	PFLAG,0
                                           	GOTO	_00417_DS_
                                           ;;genSkipc:3291: created from rifx:013B5EFC
                                           ;	.line	564; "MC32P7351.c"	need_charge_cnt++;
                                           	INCR	_adc_scan_handle_need_charge_cnt_65536_94
                                           ;;unsigned compare: left < lit(0xAB3420=11220000), size=4
                                           _00417_DS_
                                           ;	.line	568; "MC32P7351.c"	if (charge_time_cnt >= ((u32)3 * 60 * 60 * 1000 + (u32)7 * 60 * 1000) && 0 == flag_is_led_breath_disable) // 3h7min
                                           	MOVAI	0x00
                                           	RSUBAR	(_charge_time_cnt + 3)
                                           	JBSET	PFLAG,2
                                           	GOTO	_00683_DS_
                                           	MOVAI	0xab
                                           	RSUBAR	(_charge_time_cnt + 2)
                                           	JBSET	PFLAG,2
                                           	GOTO	_00683_DS_
                                           	MOVAI	0x34
                                           	RSUBAR	(_charge_time_cnt + 1)
                                           	JBSET	PFLAG,2
                                           	GOTO	_00683_DS_
                                           	MOVAI	0x20
                                           	RSUBAR	_charge_time_cnt
                                           _00683_DS_
                                           	JBSET	PFLAG,0
                                           	GOTO	_00425_DS_
                                           ;;genSkipc:3291: created from rifx:013B5EFC
                                           	JBCLR	_flag1,7
                                           	GOTO	_00425_DS_
                                           ;	.line	574; "MC32P7351.c"	flag_is_led_breath_disable = 1;
                                           	BSET	_flag1,7
                                           ;	.line	575; "MC32P7351.c"	LED_CHARGING_OFF(); // ąŘ±ŐłäµçÖ¸ĘľµĆ
                                           	BSET	_IOP0bits,4
                                           ;	.line	576; "MC32P7351.c"	LED_WORKING_ON();   // ´ňżŞµçÔ´Ö¸ĘľµĆŁ¬±íĘľłäÂúµç
                                           	BCLR	_IOP1bits,4
                                           _00425_DS_
                                           ;	.line	579; "MC32P7351.c"	if (flag_bat_is_empty)
                                           	JBSET	_flag3,7
                                           	GOTO	_00446_DS_
                                           ;	.line	583; "MC32P7351.c"	LED_CHARGING_OFF(); // ąŘ±ŐłäµçÖ¸ĘľµĆ
                                           	BSET	_IOP0bits,4
                                           ;	.line	584; "MC32P7351.c"	PWM2EC = 0;         // ąŘ±ŐżŘÖĆÉýŃąµçÂ·µÄpwmŁ¨˝¨ŇéĘÇŁ¬˛ĺÉĎłäÇ®Ć÷Ę±Ł¬˛»ąŘ±ŐżŘÖĆÉýŃąµçÂ·µÄPWMŁ¬µ«ĘÇÔÚ˛âĘÔĘ±Ł¬łäµçŇ»˛ŕ»áŃĎÖŘ·˘ČČŁ©
                                           	BCLR	_T2CRbits,6
                                           ;	.line	585; "MC32P7351.c"	T2DATA = 0;
                                           	CLRR	_T2DATA
                                           ;	.line	586; "MC32P7351.c"	FLAG_BAT_IS_NEED_CHARGE = 0;
                                           	BCLR	_flag1,4
                                           ;	.line	587; "MC32P7351.c"	flag_bat_is_empty = 1; // ±ęÖľÎ»ÖĂŇ»Ł¬ÔÚÖ÷Ń­»·ČĂÂĚµĆżěÉÁ
                                           	BSET	_flag3,7
                                           ;	.line	589; "MC32P7351.c"	break;
                                           	GOTO	_00483_DS_
                                           ;;unsigned compare: left < lit(0x8=8), size=1
                                           _00446_DS_
                                           ;	.line	591; "MC32P7351.c"	else if (cnt >= 8 || over_charging_cnt >= 8)
                                           	MOVAI	0x08
                                           	RSUBAR	_adc_scan_handle_cnt_65536_94
                                           	JBCLR	PFLAG,0
                                           	GOTO	_00441_DS_
                                           ;;genSkipc:3291: created from rifx:013B5EFC
                                           ;;unsigned compare: left < lit(0x8=8), size=1
                                           	MOVAI	0x08
                                           	RSUBAR	_over_charging_cnt
                                           	JBSET	PFLAG,0
                                           	GOTO	_00442_DS_
                                           ;;genSkipc:3291: created from rifx:013B5EFC
                                           _00441_DS_
                                           ;	.line	594; "MC32P7351.c"	full_charge_cnt++;
                                           	INCR	_full_charge_cnt
                                           ;;unsigned compare: left < lit(0x64=100), size=1
                                           ;	.line	595; "MC32P7351.c"	if (full_charge_cnt >= 100 || over_charging_cnt >= 8) // 5.5s»ňŐßĘÇÁ¬Đř´Ą·˘ÁËČô¸É´Îąýłä±Ł»¤
                                           	MOVAI	0x64
                                           	RSUBAR	_full_charge_cnt
                                           	JBCLR	PFLAG,0
                                           	GOTO	_00436_DS_
                                           ;;genSkipc:3291: created from rifx:013B5EFC
                                           ;;unsigned compare: left < lit(0x8=8), size=1
                                           	MOVAI	0x08
                                           	RSUBAR	_over_charging_cnt
                                           	JBSET	PFLAG,0
                                           	GOTO	_00482_DS_
                                           ;;genSkipc:3291: created from rifx:013B5EFC
                                           _00436_DS_
                                           ;	.line	597; "MC32P7351.c"	full_charge_cnt = 0; //
                                           	CLRR	_full_charge_cnt
                                           ;	.line	599; "MC32P7351.c"	PWM2EC = 0; // ąŘ±ŐżŘÖĆÉýŃąµçÂ·µÄpwm
                                           	BCLR	_T2CRbits,6
                                           ;	.line	600; "MC32P7351.c"	T2DATA = 0;
                                           	CLRR	_T2DATA
                                           ;	.line	602; "MC32P7351.c"	FLAG_BAT_IS_NEED_CHARGE = 0;
                                           	BCLR	_flag1,4
                                           ;	.line	603; "MC32P7351.c"	FLAG_BAT_IS_FULL = 1;
                                           	BSET	_flag1,5
                                           ;	.line	605; "MC32P7351.c"	LED_CHARGING_OFF(); // ąŘ±ŐłäµçÖ¸ĘľµĆ
                                           	BSET	_IOP0bits,4
                                           ;	.line	608; "MC32P7351.c"	LED_WORKING_ON(); // ´ňżŞµçÔ´Ö¸ĘľµĆŁ¬±íĘľłäÂúµç
                                           	BCLR	_IOP1bits,4
                                           ;	.line	609; "MC32P7351.c"	break;
                                           	GOTO	_00483_DS_
                                           ;;unsigned compare: left < lit(0x8=8), size=1
                                           _00442_DS_
                                           ;	.line	612; "MC32P7351.c"	else if (need_charge_cnt >= 8)
                                           	MOVAI	0x08
                                           	RSUBAR	_adc_scan_handle_need_charge_cnt_65536_94
                                           	JBSET	PFLAG,0
                                           	GOTO	_00482_DS_
                                           ;;genSkipc:3291: created from rifx:013B5EFC
                                           ;	.line	617; "MC32P7351.c"	FLAG_BAT_IS_NEED_CHARGE = 1;
                                           	BSET	_flag1,4
                                           ;	.line	618; "MC32P7351.c"	FLAG_BAT_IS_FULL = 0;
                                           	BCLR	_flag1,5
                                           ;	.line	619; "MC32P7351.c"	break;
                                           	GOTO	_00483_DS_
                                           _00481_DS_
                                           ;	.line	625; "MC32P7351.c"	if (flag_bat_is_empty == 0 && adc_val <= ADCDETECT_BAT_FULL - ((ADCDETECT_BAT_FULL - ADCDETECT_BAT_WILL_FULL) / 2))
                                           	JBCLR	_flag3,7
                                           	GOTO	_00449_DS_
                                           ;;swapping arguments (AOP_TYPEs 1/3)
                                           ;;unsigned compare: left >= lit(0xDE6=3558), size=2
                                           	MOVAI	0x0d
                                           	RSUBAR	(_adc_val + 1)
                                           	JBSET	PFLAG,2
                                           	GOTO	_00689_DS_
                                           	MOVAI	0xe6
                                           	RSUBAR	_adc_val
                                           _00689_DS_
                                           	JBCLR	PFLAG,0
                                           	GOTO	_00449_DS_
                                           ;;genSkipc:3291: created from rifx:013B5EFC
                                           ;	.line	627; "MC32P7351.c"	cnt++;
                                           	INCR	_adc_scan_handle_cnt_65536_94
                                           ;;unsigned compare: left < lit(0x8=8), size=1
                                           _00449_DS_
                                           ;	.line	630; "MC32P7351.c"	if (cnt >= 8)
                                           	MOVAI	0x08
                                           	RSUBAR	_adc_scan_handle_cnt_65536_94
                                           	JBSET	PFLAG,0
                                           	GOTO	_00452_DS_
                                           ;;genSkipc:3291: created from rifx:013B5EFC
                                           ;	.line	633; "MC32P7351.c"	FLAG_BAT_IS_NEED_CHARGE = 1;
                                           	BSET	_flag1,4
                                           ;	.line	634; "MC32P7351.c"	FLAG_BAT_IS_FULL = 0;
                                           	BCLR	_flag1,5
                                           ;	.line	635; "MC32P7351.c"	break;
                                           	GOTO	_00483_DS_
                                           _00452_DS_
                                           ;	.line	639; "MC32P7351.c"	flag_bat_is_empty == 0 &&  /* µçłŘ˛»ÎŞżŐ */
                                           	JBCLR	_flag3,7
                                           	GOTO	_00459_DS_
                                           ;	.line	640; "MC32P7351.c"	FLAG_IS_DEVICE_OPEN &&     /* Éč±¸ŐýÔÚÔËĐĐ */
                                           	JBSET	_flag1,0
                                           	GOTO	_00459_DS_
                                           ;;unsigned compare: left < lit(0xA93=2707), size=2
                                           ;	.line	642; "MC32P7351.c"	)
                                           	MOVAI	0x0a
                                           	RSUBAR	(_adc_val + 1)
                                           	JBSET	PFLAG,2
                                           	GOTO	_00691_DS_
                                           	MOVAI	0x93
                                           	RSUBAR	_adc_val
                                           _00691_DS_
                                           	JBCLR	PFLAG,0
                                           	GOTO	_00459_DS_
                                           ;;genSkipc:3291: created from rifx:013B5EFC
                                           ;	.line	644; "MC32P7351.c"	flag_tim_scan_maybe_shut_down = 1;
                                           	BSET	_flag3,3
                                           	GOTO	_00460_DS_
                                           _00459_DS_
                                           ;	.line	646; "MC32P7351.c"	else if (flag_bat_is_empty == 0 &&
                                           	JBCLR	_flag3,7
                                           	GOTO	_00454_DS_
                                           ;	.line	647; "MC32P7351.c"	FLAG_IS_DEVICE_OPEN &&
                                           	JBSET	_flag1,0
                                           	GOTO	_00454_DS_
                                           ;;unsigned compare: left < lit(0xB15=2837), size=2
                                           ;	.line	648; "MC32P7351.c"	adc_val < LOW_BATTERY_AD_VAL)
                                           	MOVAI	0x0b
                                           	RSUBAR	(_adc_val + 1)
                                           	JBSET	PFLAG,2
                                           	GOTO	_00692_DS_
                                           	MOVAI	0x15
                                           	RSUBAR	_adc_val
                                           _00692_DS_
                                           	JBCLR	PFLAG,0
                                           	GOTO	_00454_DS_
                                           ;;genSkipc:3291: created from rifx:013B5EFC
                                           ;	.line	651; "MC32P7351.c"	flag_maybe_low_battery = 1;
                                           	BSET	_flag3,2
                                           ;	.line	652; "MC32P7351.c"	flag_tim_scan_maybe_shut_down = 0;
                                           	BCLR	_flag3,3
                                           	GOTO	_00460_DS_
                                           _00454_DS_
                                           ;	.line	656; "MC32P7351.c"	flag_maybe_low_battery = 0;
                                           	BCLR	_flag3,2
                                           ;	.line	657; "MC32P7351.c"	flag_tim_scan_maybe_shut_down = 0;
                                           	BCLR	_flag3,3
                                           _00460_DS_
                                           ;	.line	661; "MC32P7351.c"	if (flag_is_needed_shut_down && FLAG_IS_DEVICE_OPEN)
                                           	JBSET	_flag3,4
                                           	GOTO	_00482_DS_
                                           	JBSET	_flag1,0
                                           	GOTO	_00482_DS_
                                           ;	.line	663; "MC32P7351.c"	flag_is_needed_shut_down = 0;
                                           	BCLR	_flag3,4
                                           ;	.line	665; "MC32P7351.c"	LED_WORKING_OFF(); // ąŘ±ŐµçÔ´Ö¸ĘľµĆ
                                           	BSET	_IOP1bits,4
                                           ;	.line	666; "MC32P7351.c"	LED_CHARGING_OFF();
                                           	BSET	_IOP0bits,4
                                           ;	.line	667; "MC32P7351.c"	HEATING_OFF(); // ąŘ±ŐĽÓČČ
                                           	BCLR	_IOP1bits,2
                                           ;	.line	668; "MC32P7351.c"	FLAG_IS_DEVICE_OPEN = 0;
                                           	BCLR	_flag1,0
                                           ;	.line	669; "MC32P7351.c"	FLAG_IS_HEATING = 0;
                                           	BCLR	_flag1,1
                                           ;	.line	671; "MC32P7351.c"	if (flag_is_low_battery)
                                           	JBSET	_flag2,2
                                           	GOTO	_00476_DS_
                                           ;	.line	674; "MC32P7351.c"	flag_is_low_battery = 0;
                                           	BCLR	_flag2,2
                                           ;	.line	675; "MC32P7351.c"	LED_CHARGING_OFF(); // ąŘ±ŐÓĂÓÚ±¨ľŻµÄLED
                                           	BSET	_IOP0bits,4
                                           _00476_DS_
                                           ;	.line	678; "MC32P7351.c"	mode_flag = MODE_1; // ĎÂŇ»´ÎÇĐ»»ÄŁĘ˝Ę±Ł¬»á±äłÉ MODE_2
                                           	CLRR	_mode_flag
                                           ;	.line	681; "MC32P7351.c"	PWM0EC = 0;
                                           	BCLR	_T0CRbits,6
                                           ;	.line	682; "MC32P7351.c"	PWM1EC = 0;
                                           	BCLR	_T1CRbits,6
                                           ;	.line	684; "MC32P7351.c"	inflation_ctl_status = INFLATION_CTL_STATUS_DEFLATION; // ·ĹĆř
                                           	MOVAI	0x02
                                           	MOVRA	_inflation_ctl_status
                                           _00482_DS_
                                           ;	.line	689; "MC32P7351.c"	key_event_handle();
                                           	CALL	_key_event_handle
                                           ;	.line	539; "MC32P7351.c"	for (i = 0; i < 10; i++)      //  // Ăż55ms˝řČëŇ»´ÎŁ¬Ń­»·ÄÚĂż´ÎĽä¸ôÔĽ4.8ms
                                           	INCR	_i
                                           	GOTO	_00524_DS_
                                           _00483_DS_
                                           ;	.line	692; "MC32P7351.c"	cnt = 0;
                                           	CLRR	_adc_scan_handle_cnt_65536_94
                                           ;	.line	693; "MC32P7351.c"	adc_sel_pin(ADC_PIN_P00_AN0); // ÇĐ»»µ˝Ľě˛âłäµçµÄµçŃąĽě˛âŇý˝Ĺ(Ľě˛âµ˝µÄłäµçµçŃą == USB-CżÚµçŃą / 2)
                                           	MOVAI	0x01
                                           	CALL	_adc_sel_pin
                                           ;	.line	694; "MC32P7351.c"	for (i = 0; i < 10; i++)
                                           	CLRR	_i
                                           ;;unsigned compare: left < lit(0xA=10), size=1
                                           _00527_DS_
                                           	MOVAI	0x0a
                                           	RSUBAR	_i
                                           	JBCLR	PFLAG,0
                                           	GOTO	_00529_DS_
                                           ;;genSkipc:3291: created from rifx:013B5EFC
                                           ;	.line	696; "MC32P7351.c"	adc_val = adc_get_val();
                                           	CALL	_adc_get_val
                                           	MOVRA	(_adc_val + 1)
                                           	MOVAR	STK00
                                           	MOVRA	_adc_val
                                           ;	.line	697; "MC32P7351.c"	if (flag_bat_is_empty) // ČçąűµçłŘÎŞżŐ
                                           	JBSET	_flag3,7
                                           	GOTO	_00485_DS_
                                           ;	.line	699; "MC32P7351.c"	adc_val = 4095; // ·ŔÖą˝řČëĎÂĂćµÄif (adc_val < ADCDETECT_CHARING_THRESHOLD)
                                           	MOVAI	0xff
                                           	MOVRA	_adc_val
                                           	MOVAI	0x0f
                                           	MOVRA	(_adc_val + 1)
                                           _00485_DS_
                                           ;	.line	702; "MC32P7351.c"	if (adc_charging_val != 0)
                                           	MOVAR	_adc_charging_val
                                           	ORAR	(_adc_charging_val + 1)
                                           	JBCLR	PFLAG,2
                                           	GOTO	_00487_DS_
                                           ;	.line	704; "MC32P7351.c"	adc_charging_val += adc_val;
                                           	MOVAR	_adc_val
                                           	ADDRA	_adc_charging_val
                                           	MOVAR	(_adc_val + 1)
                                           	JBCLR	PFLAG,0
                                           	JZAR	(_adc_val + 1)
                                           	ADDRA	(_adc_charging_val + 1)
                                           ;;shiftRight_Left2ResultLit:5339: shCount=1, size=2, sign=0, same=1, offr=0
                                           ;	.line	705; "MC32P7351.c"	adc_charging_val /= 2;
                                           	BCLR	PFLAG,0
                                           	RRR	(_adc_charging_val + 1)
                                           	RRR	_adc_charging_val
                                           	GOTO	_00488_DS_
                                           _00487_DS_
                                           ;	.line	709; "MC32P7351.c"	adc_charging_val += adc_val;
                                           	MOVAR	_adc_val
                                           	ADDRA	_adc_charging_val
                                           	MOVAR	(_adc_val + 1)
                                           	JBCLR	PFLAG,0
                                           	JZAR	(_adc_val + 1)
                                           	ADDRA	(_adc_charging_val + 1)
                                           _00488_DS_
                                           ;	.line	712; "MC32P7351.c"	if (FLAG_IS_IN_CHARGING)
                                           	JBSET	_flag1,2
                                           	GOTO	_00520_DS_
                                           ;;unsigned compare: left < lit(0x800=2048), size=2
                                           ;	.line	715; "MC32P7351.c"	if (adc_val < ADCDETECT_CHARING_THRESHOLD)
                                           	MOVAI	0x08
                                           	RSUBAR	(_adc_val + 1)
                                           	JBSET	PFLAG,2
                                           	GOTO	_00694_DS_
                                           	MOVAI	0x00
                                           	RSUBAR	_adc_val
                                           _00694_DS_
                                           	JBCLR	PFLAG,0
                                           	GOTO	_00490_DS_
                                           ;;genSkipc:3291: created from rifx:013B5EFC
                                           ;	.line	717; "MC32P7351.c"	cnt++;
                                           	INCR	_adc_scan_handle_cnt_65536_94
                                           ;;unsigned compare: left < lit(0x8=8), size=1
                                           _00490_DS_
                                           ;	.line	720; "MC32P7351.c"	if (cnt >= 8)
                                           	MOVAI	0x08
                                           	RSUBAR	_adc_scan_handle_cnt_65536_94
                                           	JBSET	PFLAG,0
                                           	GOTO	_00498_DS_
                                           ;;genSkipc:3291: created from rifx:013B5EFC
                                           ;	.line	723; "MC32P7351.c"	FLAG_IS_IN_CHARGING = 0;
                                           	BCLR	_flag1,2
                                           ;	.line	724; "MC32P7351.c"	LED_CHARGING_OFF(); // ąŘ±ŐłäµçÖ¸ĘľµĆ
                                           	BSET	_IOP0bits,4
                                           ;	.line	725; "MC32P7351.c"	PWM2EC = 0;         // ąŘ±ŐżŘÖĆÉýŃąµçÂ·µÄpwm
                                           	BCLR	_T2CRbits,6
                                           ;	.line	726; "MC32P7351.c"	T2DATA = 0;
                                           	CLRR	_T2DATA
                                           ;	.line	728; "MC32P7351.c"	LED_WORKING_OFF(); // ąŘ±ŐµçłŘłäÂúµçµÄÖ¸ĘľµĆŁ¨°×µĆŁ©
                                           	BSET	_IOP1bits,4
                                           ;	.line	731; "MC32P7351.c"	break;
                                           	GOTO	_00529_DS_
                                           _00498_DS_
                                           ;	.line	734; "MC32P7351.c"	if (FLAG_IS_DEVICE_OPEN)
                                           	JBCLR	_flag1,0
                                           	GOTO	_00521_DS_
                                           ;	.line	739; "MC32P7351.c"	if (FLAG_BAT_IS_FULL)
                                           	JBCLR	_flag1,5
                                           	GOTO	_00521_DS_
                                           ;	.line	746; "MC32P7351.c"	LED_WORKING_OFF();
                                           	BSET	_IOP1bits,4
                                           	GOTO	_00521_DS_
                                           _00520_DS_
                                           ;	.line	754; "MC32P7351.c"	if (flag_bat_is_empty == 0 && adc_val >= ADCDETECT_CHARING_THRESHOLD)
                                           	JBCLR	_flag3,7
                                           	GOTO	_00509_DS_
                                           ;;unsigned compare: left < lit(0x800=2048), size=2
                                           	MOVAI	0x08
                                           	RSUBAR	(_adc_val + 1)
                                           	JBSET	PFLAG,2
                                           	GOTO	_00696_DS_
                                           	MOVAI	0x00
                                           	RSUBAR	_adc_val
                                           _00696_DS_
                                           	JBSET	PFLAG,0
                                           	GOTO	_00509_DS_
                                           ;;genSkipc:3291: created from rifx:013B5EFC
                                           ;	.line	756; "MC32P7351.c"	cnt++;
                                           	INCR	_adc_scan_handle_cnt_65536_94
                                           ;;unsigned compare: left < lit(0x8=8), size=1
                                           _00509_DS_
                                           ;	.line	759; "MC32P7351.c"	if (cnt >= 8)
                                           	MOVAI	0x08
                                           	RSUBAR	_adc_scan_handle_cnt_65536_94
                                           	JBSET	PFLAG,0
                                           	GOTO	_00521_DS_
                                           ;;genSkipc:3291: created from rifx:013B5EFC
                                           ;	.line	765; "MC32P7351.c"	full_charge_cnt = 0;
                                           	CLRR	_full_charge_cnt
                                           ;	.line	766; "MC32P7351.c"	over_charging_cnt = 0;
                                           	CLRR	_over_charging_cnt
                                           ;	.line	768; "MC32P7351.c"	FLAG_IS_IN_CHARGING = 1;
                                           	BSET	_flag1,2
                                           ;	.line	771; "MC32P7351.c"	PWM2EC = 1; // żŞĆôżŘÖĆÉýŃąµçÂ·µÄpwm
                                           	BSET	_T2CRbits,6
                                           ;	.line	773; "MC32P7351.c"	LED_WORKING_OFF(); // ąŘ±ŐµçÔ´Ö¸ĘľµĆ
                                           	BSET	_IOP1bits,4
                                           ;	.line	774; "MC32P7351.c"	HEATING_OFF();     // ąŘ±ŐĽÓČČ
                                           	BCLR	_IOP1bits,2
                                           ;	.line	775; "MC32P7351.c"	FLAG_IS_DEVICE_OPEN = 0;
                                           	BCLR	_flag1,0
                                           ;	.line	776; "MC32P7351.c"	FLAG_IS_HEATING = 0;
                                           	BCLR	_flag1,1
                                           ;	.line	777; "MC32P7351.c"	mode_flag = MODE_1; // ĎÂŇ»´ÎÇĐ»»ÄŁĘ˝Ę±Ł¬»á±äłÉ MODE_2
                                           	CLRR	_mode_flag
                                           ;	.line	779; "MC32P7351.c"	PWM0EC = 0;
                                           	BCLR	_T0CRbits,6
                                           ;	.line	780; "MC32P7351.c"	PWM1EC = 0;
                                           	BCLR	_T1CRbits,6
                                           ;	.line	781; "MC32P7351.c"	inflation_ctl_status = INFLATION_CTL_STATUS_DEFLATION; // ·ĹĆř
                                           	MOVAI	0x02
                                           	MOVRA	_inflation_ctl_status
                                           ;	.line	783; "MC32P7351.c"	flag_is_low_battery = 0; // Çĺłý¸Ă±ęÖľÎ»
                                           	BCLR	_flag2,2
                                           ;	.line	784; "MC32P7351.c"	break;
                                           	GOTO	_00529_DS_
                                           _00521_DS_
                                           ;	.line	809; "MC32P7351.c"	key_event_handle();
                                           	CALL	_key_event_handle
                                           ;	.line	694; "MC32P7351.c"	for (i = 0; i < 10; i++)
                                           	INCR	_i
                                           	GOTO	_00527_DS_
                                           _00529_DS_
                                           ;	.line	811; "MC32P7351.c"	}
                                           	RETURN	
                                           ; exit point of _adc_scan_handle
                                           
                                           ;***
                                           ;  pBlock Stats: dbName = C
                                           ;***
                                           ;entry:  _key_event_handle	;Function start
                                           ; 2 exit points
                                           ;has an exit
                                           ;; Starting pCode block
                                           _key_event_handle	;Function start
                                           ; 2 exit points
                                           ;	.line	403; "MC32P7351.c"	if (FLAG_IS_DEVICE_OPEN)
                                           	JBSET	_flag1,0
                                           	GOTO	_00403_DS_
                                           ;	.line	406; "MC32P7351.c"	if (KEY_EVENT_MODE_HOLD == key_event)
                                           	MOVAR	_key_event
                                           	XORAI	0x03
                                           	JBSET	PFLAG,2
                                           	GOTO	_00391_DS_
                                           ;	.line	409; "MC32P7351.c"	LED_WORKING_OFF(); // ąŘ±ŐµçÔ´Ö¸ĘľµĆ
                                           	BSET	_IOP1bits,4
                                           ;	.line	410; "MC32P7351.c"	LED_CHARGING_OFF();
                                           	BSET	_IOP0bits,4
                                           ;	.line	411; "MC32P7351.c"	HEATING_OFF(); // ąŘ±ŐĽÓČČ
                                           	BCLR	_IOP1bits,2
                                           ;	.line	412; "MC32P7351.c"	FLAG_IS_DEVICE_OPEN = 0;
                                           	BCLR	_flag1,0
                                           ;	.line	413; "MC32P7351.c"	FLAG_IS_HEATING = 0;
                                           	BCLR	_flag1,1
                                           ;	.line	415; "MC32P7351.c"	if (flag_is_low_battery)
                                           	JBSET	_flag2,2
                                           	GOTO	_00352_DS_
                                           ;	.line	418; "MC32P7351.c"	flag_is_low_battery = 0;
                                           	BCLR	_flag2,2
                                           ;	.line	419; "MC32P7351.c"	LED_CHARGING_OFF(); // ąŘ±ŐÓĂÓÚ±¨ľŻµÄLED
                                           	BSET	_IOP0bits,4
                                           _00352_DS_
                                           ;	.line	422; "MC32P7351.c"	mode_flag = MODE_1; // ĎÂŇ»´ÎÇĐ»»ÄŁĘ˝Ę±Ł¬»á±äłÉ MODE_2
                                           	CLRR	_mode_flag
                                           ;	.line	425; "MC32P7351.c"	PWM0EC = 0;
                                           	BCLR	_T0CRbits,6
                                           ;	.line	426; "MC32P7351.c"	PWM1EC = 0;
                                           	BCLR	_T1CRbits,6
                                           ;	.line	428; "MC32P7351.c"	inflation_ctl_status = INFLATION_CTL_STATUS_DEFLATION; // ·ĹĆř
                                           	MOVAI	0x02
                                           	MOVRA	_inflation_ctl_status
                                           	GOTO	_00404_DS_
                                           _00391_DS_
                                           ;	.line	430; "MC32P7351.c"	else if (KEY_EVENT_MODE_PRESS == key_event)
                                           	MOVAR	_key_event
                                           	XORAI	0x02
                                           	JBSET	PFLAG,2
                                           	GOTO	_00388_DS_
                                           ;	.line	432; "MC32P7351.c"	if (MODE_1 == mode_flag)
                                           	MOVAI	0x00
                                           	ORAR	_mode_flag
                                           	JBSET	PFLAG,2
                                           	GOTO	_00362_DS_
                                           ;	.line	438; "MC32P7351.c"	T0DATA = (u8)((u32)172 * 87 / 100);
                                           	MOVAI	0x95
                                           	MOVRA	_T0DATA
                                           ;	.line	439; "MC32P7351.c"	T1DATA = (u8)((u32)172 * 87 / 100);
                                           	MOVAI	0x95
                                           	MOVRA	_T1DATA
                                           ;	.line	441; "MC32P7351.c"	mode_flag = MODE_2;
                                           	MOVAI	0x01
                                           	MOVRA	_mode_flag
                                           ;	.line	442; "MC32P7351.c"	flag_ctl_dir = 1;
                                           	BSET	_flag3,0
                                           	GOTO	_00363_DS_
                                           _00362_DS_
                                           ;	.line	444; "MC32P7351.c"	else if (MODE_2 == mode_flag)
                                           	MOVAR	_mode_flag
                                           	XORAI	0x01
                                           	JBSET	PFLAG,2
                                           	GOTO	_00359_DS_
                                           ;	.line	447; "MC32P7351.c"	T0DATA = 255;
                                           	MOVAI	0xff
                                           	MOVRA	_T0DATA
                                           ;	.line	448; "MC32P7351.c"	T1DATA = 255; // 100%ŐĽżŐ±ČŁ¨Č·±Ł´óÓÚTxLOADµÄÖµľÍżÉŇÔŁ©
                                           	MOVAI	0xff
                                           	MOVRA	_T1DATA
                                           ;	.line	450; "MC32P7351.c"	mode_flag = MODE_3;
                                           	MOVAI	0x02
                                           	MOVRA	_mode_flag
                                           ;	.line	451; "MC32P7351.c"	flag_ctl_dir = 1;
                                           	BSET	_flag3,0
                                           	GOTO	_00363_DS_
                                           _00359_DS_
                                           ;	.line	453; "MC32P7351.c"	else if (MODE_3 == mode_flag)
                                           	MOVAR	_mode_flag
                                           	XORAI	0x02
                                           	JBSET	PFLAG,2
                                           	GOTO	_00356_DS_
                                           ;	.line	456; "MC32P7351.c"	T0DATA = 0;
                                           	CLRR	_T0DATA
                                           ;	.line	457; "MC32P7351.c"	T1DATA = 0;
                                           	CLRR	_T1DATA
                                           ;	.line	458; "MC32P7351.c"	PWM0EC = 0;
                                           	BCLR	_T0CRbits,6
                                           ;	.line	459; "MC32P7351.c"	PWM1EC = 0;
                                           	BCLR	_T1CRbits,6
                                           ;	.line	460; "MC32P7351.c"	mode_flag = MODE_4;
                                           	MOVAI	0x03
                                           	MOVRA	_mode_flag
                                           ;	.line	462; "MC32P7351.c"	inflation_ctl_status = INFLATION_CTL_STATUS_DEFLATION; // ·ĹĆř
                                           	MOVAI	0x02
                                           	MOVRA	_inflation_ctl_status
                                           	GOTO	_00363_DS_
                                           _00356_DS_
                                           ;	.line	464; "MC32P7351.c"	else if (MODE_4 == mode_flag)
                                           	MOVAR	_mode_flag
                                           	XORAI	0x03
                                           	JBSET	PFLAG,2
                                           	GOTO	_00363_DS_
                                           ;	.line	471; "MC32P7351.c"	T0DATA = (u8)((u32)172 * 80 / 100);
                                           	MOVAI	0x89
                                           	MOVRA	_T0DATA
                                           ;	.line	472; "MC32P7351.c"	T1DATA = (u8)((u32)172 * 80 / 100);
                                           	MOVAI	0x89
                                           	MOVRA	_T1DATA
                                           ;	.line	473; "MC32P7351.c"	mode_flag = MODE_1;
                                           	CLRR	_mode_flag
                                           ;	.line	474; "MC32P7351.c"	flag_ctl_dir = 1;
                                           	BSET	_flag3,0
                                           ;	.line	476; "MC32P7351.c"	inflation_ctl_status = INFLATION_CTL_STATUS_INFLATION; // łäĆř
                                           	MOVAI	0x01
                                           	MOVRA	_inflation_ctl_status
                                           _00363_DS_
                                           ;	.line	479; "MC32P7351.c"	turn_dir_ms_cnt = 0; // ÖŘÖĂÇĐ»»·˝ĎňµÄĽĆĘý
                                           	CLRR	_turn_dir_ms_cnt
                                           	CLRR	(_turn_dir_ms_cnt + 1)
                                           	CLRR	(_turn_dir_ms_cnt + 2)
                                           	CLRR	(_turn_dir_ms_cnt + 3)
                                           	GOTO	_00404_DS_
                                           _00388_DS_
                                           ;	.line	481; "MC32P7351.c"	else if (KEY_EVENT_HEAT_PRESS == key_event)
                                           	MOVAR	_key_event
                                           	XORAI	0x01
                                           	JBSET	PFLAG,2
                                           	GOTO	_00404_DS_
                                           ;	.line	483; "MC32P7351.c"	if (0 == FLAG_IS_HEATING)
                                           	JBCLR	_flag1,1
                                           	GOTO	_00373_DS_
                                           ;	.line	485; "MC32P7351.c"	HEATING_ON(); // ´ňżŞĽÓČČ
                                           	BSET	_IOP1bits,2
                                           ;	.line	486; "MC32P7351.c"	LED_WORKING_OFF();
                                           	BSET	_IOP1bits,4
                                           ;	.line	487; "MC32P7351.c"	LED_CHARGING_ON();
                                           	BCLR	_IOP0bits,4
                                           ;	.line	488; "MC32P7351.c"	FLAG_IS_HEATING = 1;
                                           	BSET	_flag1,1
                                           	GOTO	_00404_DS_
                                           _00373_DS_
                                           ;	.line	492; "MC32P7351.c"	HEATING_OFF(); // ąŘ±ŐĽÓČČ
                                           	BCLR	_IOP1bits,2
                                           ;	.line	493; "MC32P7351.c"	LED_CHARGING_OFF();
                                           	BSET	_IOP0bits,4
                                           ;	.line	494; "MC32P7351.c"	LED_WORKING_ON();
                                           	BCLR	_IOP1bits,4
                                           ;	.line	495; "MC32P7351.c"	FLAG_IS_HEATING = 0;
                                           	BCLR	_flag1,1
                                           	GOTO	_00404_DS_
                                           _00403_DS_
                                           ;	.line	502; "MC32P7351.c"	if (KEY_EVENT_MODE_HOLD == key_event && 0 == FLAG_IS_IN_CHARGING)
                                           	MOVAR	_key_event
                                           	XORAI	0x03
                                           	JBSET	PFLAG,2
                                           	GOTO	_00404_DS_
                                           	JBCLR	_flag1,2
                                           	GOTO	_00404_DS_
                                           ;	.line	505; "MC32P7351.c"	LED_CHARGING_OFF(); // ąŘ±ŐłäµçÖ¸ĘľµĆ
                                           	BSET	_IOP0bits,4
                                           ;	.line	506; "MC32P7351.c"	LED_WORKING_ON();   // ´ňżŞµçÔ´Ö¸ĘľµĆ
                                           	BCLR	_IOP1bits,4
                                           ;	.line	507; "MC32P7351.c"	FLAG_IS_DEVICE_OPEN = 1;
                                           	BSET	_flag1,0
                                           ;	.line	513; "MC32P7351.c"	T0DATA = (u8)((u32)172 * 80 / 100);
                                           	MOVAI	0x89
                                           	MOVRA	_T0DATA
                                           ;	.line	514; "MC32P7351.c"	T1DATA = (u8)((u32)172 * 80 / 100);
                                           	MOVAI	0x89
                                           	MOVRA	_T1DATA
                                           ;	.line	515; "MC32P7351.c"	mode_flag = MODE_1; // ĎÂŇ»´ÎÇĐ»»ÄŁĘ˝Ę±Ł¬»á±äłÉ MODE_2
                                           	CLRR	_mode_flag
                                           ;	.line	520; "MC32P7351.c"	PWM1EC = 1;
                                           	BSET	_T1CRbits,6
                                           ;	.line	522; "MC32P7351.c"	inflation_ctl_status = INFLATION_CTL_STATUS_INFLATION; // łäĆř
                                           	MOVAI	0x01
                                           	MOVRA	_inflation_ctl_status
                                           _00404_DS_
                                           ;	.line	527; "MC32P7351.c"	key_event = KEY_EVENT_NONE;
                                           	CLRR	_key_event
                                           ;	.line	528; "MC32P7351.c"	}
                                           	RETURN	
                                           ; exit point of _key_event_handle
                                           
                                           ;***
                                           ;  pBlock Stats: dbName = C
                                           ;***
                                           ;entry:  _key_scan	;Function start
                                           ; 2 exit points
                                           ;has an exit
                                           ;; Starting pCode block
                                           _key_scan	;Function start
                                           ; 2 exit points
                                           ;	.line	286; "MC32P7351.c"	volatile u8 cur_key_id = KEY_ID_NONE;
                                           	CLRR	_key_scan_cur_key_id_65536_31
                                           ;	.line	290; "MC32P7351.c"	if (0 == KEY_MODE_PIN)
                                           	JBCLR	_IOP0bits,1
                                           	GOTO	_00211_DS_
                                           ;	.line	292; "MC32P7351.c"	cur_key_id = KEY_ID_MODE;
                                           	MOVAI	0x01
                                           	MOVRA	_key_scan_cur_key_id_65536_31
                                           	GOTO	_00212_DS_
                                           _00211_DS_
                                           ;	.line	294; "MC32P7351.c"	else if (0 == KEY_HEAT_PIN)
                                           	JBCLR	_IOP1bits,1
                                           	GOTO	_00212_DS_
                                           ;	.line	296; "MC32P7351.c"	cur_key_id = KEY_ID_HEAT;
                                           	MOVAI	0x02
                                           	MOVRA	_key_scan_cur_key_id_65536_31
                                           _00212_DS_
                                           ;	.line	299; "MC32P7351.c"	if (cur_key_id != filter_key_id)
                                           	MOVAR	_key_scan_filter_key_id_65536_31
                                           	XORAR	_key_scan_cur_key_id_65536_31
                                           	JBSET	PFLAG,2
                                           	GOTO	_00332_DS_
                                           	GOTO	_00214_DS_
                                           _00332_DS_
                                           ;	.line	302; "MC32P7351.c"	filter_cnt = 0;
                                           	CLRR	_key_scan_filter_cnt_65536_31
                                           ;	.line	303; "MC32P7351.c"	filter_key_id = cur_key_id;
                                           	MOVAR	_key_scan_cur_key_id_65536_31
                                           	MOVRA	_key_scan_filter_key_id_65536_31
                                           ;	.line	304; "MC32P7351.c"	return;
                                           	GOTO	_00254_DS_
                                           ;;unsigned compare: left < lit(0x3=3), size=1
                                           _00214_DS_
                                           ;	.line	307; "MC32P7351.c"	if (filter_cnt < KEY_FILTER_TIMES)
                                           	MOVAI	0x03
                                           	RSUBAR	_key_scan_filter_cnt_65536_31
                                           	JBCLR	PFLAG,0
                                           	GOTO	_00216_DS_
                                           ;;genSkipc:3291: created from rifx:013B5EFC
                                           ;	.line	311; "MC32P7351.c"	filter_cnt++;
                                           	INCR	_key_scan_filter_cnt_65536_31
                                           ;	.line	312; "MC32P7351.c"	return;
                                           	GOTO	_00254_DS_
                                           _00216_DS_
                                           ;	.line	317; "MC32P7351.c"	if (last_key_id != cur_key_id)
                                           	MOVAR	_key_scan_cur_key_id_65536_31
                                           	XORAR	_key_scan_last_key_id_65536_31
                                           	JBSET	PFLAG,2
                                           	GOTO	_00334_DS_
                                           	GOTO	_00252_DS_
                                           _00334_DS_
                                           ;	.line	319; "MC32P7351.c"	if (last_key_id == KEY_ID_NONE)
                                           	MOVAI	0x00
                                           	ORAR	_key_scan_last_key_id_65536_31
                                           	JBSET	PFLAG,2
                                           	GOTO	_00230_DS_
                                           ;	.line	322; "MC32P7351.c"	press_cnt = 0;
                                           	CLRR	_key_scan_press_cnt_65536_31
                                           	GOTO	_00253_DS_
                                           _00230_DS_
                                           ;	.line	324; "MC32P7351.c"	else if (cur_key_id == KEY_ID_NONE)
                                           	MOVAI	0x00
                                           	ORAR	_key_scan_cur_key_id_65536_31
                                           	JBSET	PFLAG,2
                                           	GOTO	_00253_DS_
                                           ;;unsigned compare: left < lit(0x4B=75), size=1
                                           ;	.line	327; "MC32P7351.c"	if (press_cnt < 75)
                                           	MOVAI	0x4b
                                           	RSUBAR	_key_scan_press_cnt_65536_31
                                           	JBCLR	PFLAG,0
                                           	GOTO	_00225_DS_
                                           ;;genSkipc:3291: created from rifx:013B5EFC
                                           ;	.line	330; "MC32P7351.c"	if (KEY_ID_MODE == last_key_id)
                                           	MOVAR	_key_scan_last_key_id_65536_31
                                           	XORAI	0x01
                                           	JBSET	PFLAG,2
                                           	GOTO	_00220_DS_
                                           ;	.line	333; "MC32P7351.c"	key_event = KEY_EVENT_MODE_PRESS;
                                           	MOVAI	0x02
                                           	MOVRA	_key_event
                                           	GOTO	_00253_DS_
                                           _00220_DS_
                                           ;	.line	339; "MC32P7351.c"	else if (KEY_ID_HEAT == last_key_id)
                                           	MOVAR	_key_scan_last_key_id_65536_31
                                           	XORAI	0x02
                                           	JBSET	PFLAG,2
                                           	GOTO	_00253_DS_
                                           ;	.line	342; "MC32P7351.c"	key_event = KEY_EVENT_HEAT_PRESS;
                                           	MOVAI	0x01
                                           	MOVRA	_key_event
                                           	GOTO	_00253_DS_
                                           _00225_DS_
                                           ;	.line	350; "MC32P7351.c"	if (KEY_ID_MODE == last_key_id)
                                           	MOVAR	_key_scan_last_key_id_65536_31
                                           	XORAI	0x01
                                           	JBSET	PFLAG,2
                                           	GOTO	_00253_DS_
                                           ;	.line	352; "MC32P7351.c"	flag_is_key_mode_hold = 0;
                                           	CLRR	_key_scan_flag_is_key_mode_hold_65536_31
                                           	GOTO	_00253_DS_
                                           _00252_DS_
                                           ;	.line	357; "MC32P7351.c"	else if (cur_key_id != KEY_ID_NONE)
                                           	MOVAI	0x00
                                           	ORAR	_key_scan_cur_key_id_65536_31
                                           	JBCLR	PFLAG,2
                                           	GOTO	_00253_DS_
                                           ;;unsigned compare: left < lit(0xFF=255), size=1
                                           ;	.line	360; "MC32P7351.c"	if (press_cnt < 255)
                                           	MOVAI	0xff
                                           	RSUBAR	_key_scan_press_cnt_65536_31
                                           	JBCLR	PFLAG,0
                                           	GOTO	_00233_DS_
                                           ;;genSkipc:3291: created from rifx:013B5EFC
                                           ;	.line	361; "MC32P7351.c"	press_cnt++;
                                           	INCR	_key_scan_press_cnt_65536_31
                                           _00233_DS_
                                           ;	.line	363; "MC32P7351.c"	if (KEY_ID_MODE == cur_key_id)
                                           	MOVAR	_key_scan_cur_key_id_65536_31
                                           	XORAI	0x01
                                           	JBSET	PFLAG,2
                                           	GOTO	_00253_DS_
                                           ;	.line	365; "MC32P7351.c"	if (FLAG_IS_DEVICE_OPEN)
                                           	JBSET	_flag1,0
                                           	GOTO	_00245_DS_
                                           ;;unsigned compare: left < lit(0xC8=200), size=1
                                           ;	.line	367; "MC32P7351.c"	if (press_cnt >= 200) // 2000ms
                                           	MOVAI	0xc8
                                           	RSUBAR	_key_scan_press_cnt_65536_31
                                           	JBSET	PFLAG,0
                                           	GOTO	_00253_DS_
                                           ;;genSkipc:3291: created from rifx:013B5EFC
                                           ;	.line	369; "MC32P7351.c"	if (flag_is_key_mode_hold)
                                           	MOVAI	0x00
                                           	ORAR	_key_scan_flag_is_key_mode_hold_65536_31
                                           	JBSET	PFLAG,2
                                           	GOTO	_00253_DS_
                                           ;	.line	374; "MC32P7351.c"	key_event = KEY_EVENT_MODE_HOLD;
                                           	MOVAI	0x03
                                           	MOVRA	_key_event
                                           ;	.line	375; "MC32P7351.c"	flag_is_key_mode_hold = 1;
                                           	MOVAI	0x01
                                           	MOVRA	_key_scan_flag_is_key_mode_hold_65536_31
                                           	GOTO	_00253_DS_
                                           ;;unsigned compare: left < lit(0x64=100), size=1
                                           _00245_DS_
                                           ;	.line	382; "MC32P7351.c"	if (press_cnt >= 100) // 1000msĽÓÉĎż´ĂĹą·»˝ĐŃµÄ1024ms
                                           	MOVAI	0x64
                                           	RSUBAR	_key_scan_press_cnt_65536_31
                                           	JBSET	PFLAG,0
                                           	GOTO	_00253_DS_
                                           ;;genSkipc:3291: created from rifx:013B5EFC
                                           ;	.line	384; "MC32P7351.c"	if (flag_is_key_mode_hold)
                                           	MOVAI	0x00
                                           	ORAR	_key_scan_flag_is_key_mode_hold_65536_31
                                           	JBSET	PFLAG,2
                                           	GOTO	_00253_DS_
                                           ;	.line	389; "MC32P7351.c"	key_event = KEY_EVENT_MODE_HOLD;
                                           	MOVAI	0x03
                                           	MOVRA	_key_event
                                           ;	.line	390; "MC32P7351.c"	flag_is_key_mode_hold = 1;
                                           	MOVAI	0x01
                                           	MOVRA	_key_scan_flag_is_key_mode_hold_65536_31
                                           _00253_DS_
                                           ;	.line	397; "MC32P7351.c"	last_key_id = cur_key_id;
                                           	MOVAR	_key_scan_cur_key_id_65536_31
                                           	MOVRA	_key_scan_last_key_id_65536_31
                                           _00254_DS_
                                           ;	.line	398; "MC32P7351.c"	}
                                           	RETURN	
                                           ; exit point of _key_scan
                                           
                                           ;***
                                           ;  pBlock Stats: dbName = C
                                           ;***
                                           ;entry:  _Sys_Init	;Function start
                                           ; 2 exit points
                                           ;has an exit
                                           ;functions called:
                                           ;   _CLR_RAM
                                           ;   _adc_config
                                           ;   _delay_ms
                                           ;   _CLR_RAM
                                           ;   _adc_config
                                           ;   _delay_ms
                                           ;1 compiler assigned register :
                                           ;   STK00
                                           ;; Starting pCode block
                                           _Sys_Init	;Function start
                                           ; 2 exit points
                                           ;	.line	171; "MC32P7351.c"	GIE = 0;
                                           	BCLR	_MCRbits,7
                                           ;	.line	172; "MC32P7351.c"	CLR_RAM();
                                           	CALL	_CLR_RAM
                                           ;	.line	175; "MC32P7351.c"	IOP0 = 0x00;   // iożÚĘýľÝÎ»
                                           	CLRR	_IOP0
                                           ;	.line	176; "MC32P7351.c"	OEP0 = 0x3F;   // iożÚ·˝Ďň 1:out  0:in
                                           	MOVAI	0x3f
                                           	MOVRA	_OEP0
                                           ;	.line	177; "MC32P7351.c"	PUP0 = 0x00;   // iożÚÉĎŔ­µç×č   1:enable  0:disable
                                           	CLRR	_PUP0
                                           ;	.line	178; "MC32P7351.c"	PDP0 = 0x00;   // iożÚĎÂŔ­µç×č   1:enable  0:disable
                                           	CLRR	_PDP0
                                           ;	.line	179; "MC32P7351.c"	ADIOS0 = 0x00; // ioŔŕĐÍŃˇÔń  1:ÄŁÄâĘäČë  0:Í¨ÓĂio
                                           	CLRR	_ADIOS0
                                           ;	.line	181; "MC32P7351.c"	IOP1 = 0x00;   // iożÚĘýľÝÎ»
                                           	CLRR	_IOP1
                                           ;	.line	182; "MC32P7351.c"	OEP1 = 0xFF;   // iożÚ·˝Ďň 1:out  0:in
                                           	MOVAI	0xff
                                           	MOVRA	_OEP1
                                           ;	.line	183; "MC32P7351.c"	PUP1 = 0x00;   // iożÚÉĎŔ­µç×č   1:enable  0:disable
                                           	CLRR	_PUP1
                                           ;	.line	184; "MC32P7351.c"	PDP1 = 0x00;   // iożÚĎÂŔ­µç×č   1:enable  0:disable
                                           	CLRR	_PDP1
                                           ;	.line	185; "MC32P7351.c"	ADIOS1 = 0x00; // ioŔŕĐÍŃˇÔń  1:ÄŁÄâĘäČë  0:Í¨ÓĂio
                                           	CLRR	_ADIOS1
                                           ;	.line	192; "MC32P7351.c"	PMOD = 0x00 | (0x01 << 2); // P00ˇ˘P01ˇ˘P13 ĘąÄÜĘý×Öą¦ÄÜŁ¬P13ĹäÖĂÎŞÍĆÍěĘäłö
                                           	MOVAI	0x04
                                           	MOVRA	_PMOD
                                           ;	.line	193; "MC32P7351.c"	DRVCR = 0x80;              // ĆŐÍ¨Çý¶Ż
                                           	MOVAI	0x80
                                           	MOVRA	_DRVCR
                                           ;	.line	196; "MC32P7351.c"	LED_WORKING_OFF();
                                           	BSET	_IOP1bits,4
                                           ;	.line	197; "MC32P7351.c"	LED_CHARGING_OFF();
                                           	BSET	_IOP0bits,4
                                           ;	.line	198; "MC32P7351.c"	INFLATION_CTL_OFF();
                                           	BCLR	_IOP0bits,3
                                           ;	.line	199; "MC32P7351.c"	DEFLATION_CTL_OFF();
                                           	BCLR	_IOP1bits,3
                                           ;	.line	203; "MC32P7351.c"	T0LOAD = 172 - 1;
                                           	MOVAI	0xab
                                           	MOVRA	_T0LOAD
                                           ;	.line	205; "MC32P7351.c"	PWM0EC = 0;  // ˝űÖąPWMĘäłö
                                           	BCLR	_T0CRbits,6
                                           ;	.line	206; "MC32P7351.c"	T0CR = 0x81; // ĘąÄÜ¶¨Ę±Ć÷Ł¬Ę±ÖÓÔ´ÎŞFCPUŁ¬2·ÖĆµ
                                           	MOVAI	0x81
                                           	MOVRA	_T0CR
                                           ;	.line	213; "MC32P7351.c"	T1LOAD = 172 - 1;
                                           	MOVAI	0xab
                                           	MOVRA	_T1LOAD
                                           ;	.line	215; "MC32P7351.c"	PWM1EC = 0;  // ˝űÖąPWM1Ęäłö
                                           	BCLR	_T1CRbits,6
                                           ;	.line	216; "MC32P7351.c"	T1CR = 0x81; // ĘąÄÜ¶¨Ę±Ć÷Ł¬Ę±ÖÓÔ´ÎŞFCPUŁ¬2·ÖĆµ
                                           	MOVAI	0x81
                                           	MOVRA	_T1CR
                                           ;	.line	221; "MC32P7351.c"	T2CKS0 = 1;
                                           	BSET	_T2CRbits,3
                                           ;	.line	222; "MC32P7351.c"	T2CKS1 = 0;
                                           	BCLR	_T2CRbits,4
                                           ;	.line	224; "MC32P7351.c"	TMRCKS0 = 0;
                                           	BCLR	_PWMCR1bits,3
                                           ;	.line	225; "MC32P7351.c"	TMRCKS1 = 0;
                                           	BCLR	_PWMCR1bits,4
                                           ;	.line	226; "MC32P7351.c"	T2LOAD = 209;
                                           	MOVAI	0xd1
                                           	MOVRA	_T2LOAD
                                           ;	.line	228; "MC32P7351.c"	T2DATA = 0;
                                           	CLRR	_T2DATA
                                           ;	.line	229; "MC32P7351.c"	PWM2EC = 0; // ˝űÖąPWMĘäłö
                                           	BCLR	_T2CRbits,6
                                           ;	.line	230; "MC32P7351.c"	T2EN = 1;
                                           	BSET	_T2CRbits,7
                                           ;	.line	239; "MC32P7351.c"	T3LOAD = 25 - 1; //
                                           	MOVAI	0x18
                                           	MOVRA	_T3LOAD
                                           ;	.line	240; "MC32P7351.c"	T3CR = 0x85;     // ĘąÄÜ¶¨Ę±Ć÷Ł¬Ę±ÖÓÔ´ŃˇÔńFCPUŁ¬32·ÖĆµ
                                           	MOVAI	0x85
                                           	MOVRA	_T3CR
                                           ;	.line	241; "MC32P7351.c"	T3IE = 1;
                                           	BSET	_INTEbits,7
                                           ;	.line	247; "MC32P7351.c"	P11PU = 1; // ÉĎŔ­
                                           	BSET	_PUP1bits,1
                                           ;	.line	248; "MC32P7351.c"	P11OE = 0; // ĘäČëÄŁĘ˝
                                           	BCLR	_OEP1bits,1
                                           ;	.line	251; "MC32P7351.c"	P01PU = 1; // ÉĎŔ­
                                           	BSET	_PUP0bits,1
                                           ;	.line	252; "MC32P7351.c"	P01OE = 0; // ĘäČëÄŁĘ˝
                                           	BCLR	_OEP0bits,1
                                           ;	.line	254; "MC32P7351.c"	adc_config();
                                           	CALL	_adc_config
                                           ;	.line	256; "MC32P7351.c"	GIE = 1;
                                           	BSET	_MCRbits,7
                                           ;	.line	258; "MC32P7351.c"	delay_ms(1); // µČ´ýĎµÍłÎČ¶¨
                                           	MOVAI	0x01
                                           	MOVRA	STK00
                                           	MOVAI	0x00
                                           	CALL	_delay_ms
                                           ;	.line	259; "MC32P7351.c"	}
                                           	RETURN	
                                           ; exit point of _Sys_Init
                                           
                                           ;***
                                           ;  pBlock Stats: dbName = C
                                           ;***
                                           ;entry:  _adc_get_val	;Function start
                                           ; 2 exit points
                                           ;has an exit
                                           ;16 compiler assigned registers:
                                           ;   r0x1052
                                           ;   r0x1053
                                           ;   r0x1054
                                           ;   r0x1055
                                           ;   r0x1056
                                           ;   r0x1057
                                           ;   r0x1058
                                           ;   r0x1059
                                           ;   r0x105A
                                           ;   r0x105B
                                           ;   r0x105C
                                           ;   r0x105D
                                           ;   r0x105E
                                           ;   r0x105F
                                           ;   r0x1060
                                           ;   STK00
                                           ;; Starting pCode block
                                           _adc_get_val	;Function start
                                           ; 2 exit points
                                           ;	.line	77; "MC32P7351.c"	u32 g_tmpbuff = 0;
                                           	CLRR	r0x1052
                                           	CLRR	r0x1053
                                           	CLRR	r0x1054
                                           	CLRR	r0x1055
                                           ;	.line	78; "MC32P7351.c"	u16 g_adcmax = 0;
                                           	CLRR	r0x1056
                                           	CLRR	r0x1057
                                           ;	.line	79; "MC32P7351.c"	u16 g_adcmin = 0xFFFF;
                                           	MOVAI	0xff
                                           	MOVRA	r0x1058
                                           	MOVRA	r0x1059
                                           ;	.line	82; "MC32P7351.c"	for (i = 0; i < 20; i++)
                                           	CLRR	r0x105A
                                           _00158_DS_
                                           ;	.line	84; "MC32P7351.c"	ADEOC = 0; // ÇĺłýADC×Ş»»ÍęłÉ±ęÖľÎ»Ł¬Ćô¶ŻAD×Ş»»
                                           	BCLR	_ADCR0bits,1
                                           _00147_DS_
                                           ;	.line	85; "MC32P7351.c"	while (!ADEOC)
                                           	JBSET	_ADCR0bits,1
                                           	GOTO	_00147_DS_
                                           ;	.line	87; "MC32P7351.c"	g_temp_value = ADRH; // Čˇłö×Ş»»şóµÄÖµ
                                           	MOVAR	_ADRH
                                           	MOVRA	r0x105B
                                           	CLRR	r0x105C
                                           ;	.line	88; "MC32P7351.c"	g_temp_value = g_temp_value << 4 | (ADRL & 0x0F);
                                           	SWAPAR	r0x105C
                                           	ANDAI	0xf0
                                           	MOVRA	r0x105D
                                           	SWAPAR	r0x105B
                                           	MOVRA	r0x105E
                                           	ANDAI	0x0f
                                           	ORRA	r0x105D
                                           	XORRA	r0x105E
                                           	MOVAR	_ADRL
                                           	MOVRA	r0x105B
                                           	CLRR	r0x105C
                                           	MOVAI	0x0f
                                           	ANDRA	r0x105B
                                           	CLRR	r0x105C
                                           ;;114	MOVAR	r0x105B
                                           	MOVAI	0x00
                                           	MOVRA	r0x1060
                                           ;;113	MOVAR	r0x105F
                                           	MOVAR	r0x105B
                                           	MOVRA	r0x105F
                                           	ORAR	r0x105E
                                           	MOVRA	r0x105B
                                           	MOVAR	r0x1060
                                           	ORAR	r0x105D
                                           	MOVRA	r0x105C
                                           ;;unsigned compare: left < lit(0x2=2), size=1
                                           ;	.line	89; "MC32P7351.c"	if (i < 2)
                                           	MOVAI	0x02
                                           	RSUBAR	r0x105A
                                           	JBSET	PFLAG,0
                                           	GOTO	_00156_DS_
                                           ;;genSkipc:3291: created from rifx:013B5EFC
                                           ;	.line	91; "MC32P7351.c"	if (g_temp_value > g_adcmax)
                                           	MOVAR	r0x105C
                                           	RSUBAR	r0x1057
                                           	JBSET	PFLAG,2
                                           	GOTO	_00198_DS_
                                           	MOVAR	r0x105B
                                           	RSUBAR	r0x1056
                                           _00198_DS_
                                           	JBCLR	PFLAG,0
                                           	GOTO	_00153_DS_
                                           ;;genSkipc:3291: created from rifx:013B5EFC
                                           ;	.line	92; "MC32P7351.c"	g_adcmax = g_temp_value; // ×î´ó
                                           	MOVAR	r0x105B
                                           	MOVRA	r0x1056
                                           	MOVAR	r0x105C
                                           	MOVRA	r0x1057
                                           _00153_DS_
                                           ;	.line	93; "MC32P7351.c"	if (g_temp_value < g_adcmin)
                                           	MOVAR	r0x1059
                                           	RSUBAR	r0x105C
                                           	JBSET	PFLAG,2
                                           	GOTO	_00199_DS_
                                           	MOVAR	r0x1058
                                           	RSUBAR	r0x105B
                                           _00199_DS_
                                           	JBCLR	PFLAG,0
                                           	GOTO	_00155_DS_
                                           ;;genSkipc:3291: created from rifx:013B5EFC
                                           ;	.line	94; "MC32P7351.c"	g_adcmin = g_temp_value; // ×îĐˇ
                                           	MOVAR	r0x105B
                                           	MOVRA	r0x1058
                                           	MOVAR	r0x105C
                                           	MOVRA	r0x1059
                                           ;;110	MOVAR	r0x105B
                                           ;;112	MOVAR	r0x105C
                                           _00155_DS_
                                           ;	.line	95; "MC32P7351.c"	g_tmpbuff += g_temp_value;
                                           	CLRR	r0x105F
                                           	CLRR	r0x1060
                                           ;;109	MOVAR	r0x105E
                                           	MOVAR	r0x105B
                                           	MOVRA	r0x105E
                                           	ADDRA	r0x1052
                                           ;;111	MOVAR	r0x105D
                                           	MOVAR	r0x105C
                                           	MOVRA	r0x105D
                                           	JBCLR	PFLAG,0
                                           	JZAR	r0x105D
                                           	ADDRA	r0x1053
                                           	MOVAR	r0x105F
                                           	JBCLR	PFLAG,0
                                           	JZAR	r0x105F
                                           	ADDRA	r0x1054
                                           	MOVAR	r0x1060
                                           	JBCLR	PFLAG,0
                                           	JZAR	r0x1060
                                           	ADDRA	r0x1055
                                           _00156_DS_
                                           ;	.line	82; "MC32P7351.c"	for (i = 0; i < 20; i++)
                                           	INCR	r0x105A
                                           ;;unsigned compare: left < lit(0x14=20), size=1
                                           	MOVAI	0x14
                                           	RSUBAR	r0x105A
                                           	JBSET	PFLAG,0
                                           	GOTO	_00158_DS_
                                           ;;genSkipc:3291: created from rifx:013B5EFC
                                           ;;108	MOVAR	r0x1056
                                           ;	.line	97; "MC32P7351.c"	g_tmpbuff -= g_adcmax;           // ČĄµôŇ»¸ö×î´ó
                                           	MOVAR	r0x1057
                                           	MOVRA	r0x105B
                                           	CLRR	r0x105C
                                           	CLRR	r0x105E
                                           ;;107	MOVAR	r0x105A
                                           	MOVAR	r0x1056
                                           	MOVRA	r0x105A
                                           	RSUBAR	r0x1052
                                           	MOVRA	r0x1056
                                           	MOVAR	r0x1053
                                           	MOVRA	r0x1057
                                           	MOVAR	r0x105B
                                           	JBSET	PFLAG,0
                                           	JZAR	r0x105B
                                           	RSUBRA	r0x1057
                                           	MOVAR	r0x1054
                                           	MOVRA	r0x105D
                                           	MOVAR	r0x105C
                                           	JBSET	PFLAG,0
                                           	JZAR	r0x105C
                                           	RSUBRA	r0x105D
                                           	MOVAR	r0x105E
                                           	JBSET	PFLAG,0
                                           	INCAR	r0x105E
                                           	RSUBAR	r0x1055
                                           	MOVRA	r0x105F
                                           ;;100	MOVAR	r0x1058
                                           ;;102	MOVAR	r0x1059
                                           ;	.line	98; "MC32P7351.c"	g_tmpbuff -= g_adcmin;           // ČĄµôŇ»¸ö×îĐˇ
                                           	CLRR	r0x1054
                                           	CLRR	r0x1055
                                           ;;99	MOVAR	r0x1052
                                           	MOVAR	r0x1058
                                           	MOVRA	r0x1052
                                           	RSUBRA	r0x1056
                                           ;;101	MOVAR	r0x1053
                                           	MOVAR	r0x1059
                                           	MOVRA	r0x1053
                                           	JBSET	PFLAG,0
                                           	JZAR	r0x1053
                                           	RSUBRA	r0x1057
                                           	MOVAR	r0x1054
                                           	JBSET	PFLAG,0
                                           	JZAR	r0x1054
                                           	RSUBRA	r0x105D
                                           	MOVAR	r0x1055
                                           	JBSET	PFLAG,0
                                           	JZAR	r0x1055
                                           	RSUBRA	r0x105F
                                           ;	.line	99; "MC32P7351.c"	g_temp_value = (g_tmpbuff >> 4); // łýŇÔ16Ł¬ČˇĆ˝ľůÖµ
                                           	SWAPAR	r0x1056
                                           	ANDAI	0x0f
                                           	MOVRA	r0x1052
                                           	SWAPAR	r0x1057
                                           	MOVRA	r0x1053
                                           	ANDAI	0xf0
                                           	ORRA	r0x1052
                                           	XORRA	r0x1053
                                           	SWAPAR	r0x105D
                                           	MOVRA	r0x1054
                                           	ANDAI	0xf0
                                           	ORRA	r0x1053
                                           	XORRA	r0x1054
                                           	SWAPAR	r0x105F
                                           	MOVRA	r0x1055
                                           	ANDAI	0xf0
                                           	ORRA	r0x1054
                                           	XORRA	r0x1055
                                           ;;104	MOVAR	r0x1052
                                           ;;106	MOVAR	r0x1053
                                           ;;103	MOVAR	r0x1056
                                           ;	.line	123; "MC32P7351.c"	return g_temp_value;
                                           	MOVAR	r0x1052
                                           	MOVRA	r0x1056
                                           	MOVRA	STK00
                                           ;;105	MOVAR	r0x1057
                                           	MOVAR	r0x1053
                                           	MOVRA	r0x1057
                                           ;	.line	124; "MC32P7351.c"	}
                                           	RETURN	
                                           ; exit point of _adc_get_val
                                           
                                           ;***
                                           ;  pBlock Stats: dbName = C
                                           ;***
                                           ;entry:  _adc_sel_pin	;Function start
                                           ; 2 exit points
                                           ;has an exit
                                           ;functions called:
                                           ;   _delay_ms
                                           ;   _delay_ms
                                           ;2 compiler assigned registers:
                                           ;   r0x1058
                                           ;   STK00
                                           ;; Starting pCode block
                                           _adc_sel_pin	;Function start
                                           ; 2 exit points
                                           ;	.line	48; "MC32P7351.c"	void adc_sel_pin(u8 adc_pin)
                                           	MOVRA	r0x1058
                                           ;	.line	51; "MC32P7351.c"	switch (adc_pin)
                                           	MOVAR	r0x1058
                                           	XORAI	0x01
                                           	JBSET	PFLAG,2
                                           	GOTO	_00141_DS_
                                           	GOTO	_00127_DS_
                                           _00141_DS_
                                           	MOVAR	r0x1058
                                           	XORAI	0x02
                                           	JBSET	PFLAG,2
                                           	GOTO	_00142_DS_
                                           	GOTO	_00128_DS_
                                           _00142_DS_
                                           	GOTO	_00130_DS_
                                           _00127_DS_
                                           ;	.line	54; "MC32P7351.c"	ADCR0 &= ~(0x0F << 4); // ÇĺżŐĽÄ´ćĆ÷µÄÍ¨µŔŃˇÔńÎ»
                                           	MOVAI	0x0f
                                           	ANDRA	_ADCR0
                                           ;	.line	57; "MC32P7351.c"	break;
                                           	GOTO	_00130_DS_
                                           _00128_DS_
                                           ;	.line	60; "MC32P7351.c"	ADCR0 &= ~(0x0F << 4); // ÇĺżŐĽÄ´ćĆ÷µÄÍ¨µŔŃˇÔńÎ»
                                           	MOVAI	0x0f
                                           	ANDRA	_ADCR0
                                           ;	.line	61; "MC32P7351.c"	ADCR0 |= 0x01 << 4;    // AIN1--P02;
                                           	BSET	_ADCR0,4
                                           _00130_DS_
                                           ;	.line	69; "MC32P7351.c"	delay_ms(1); // ÇĐ»»adcĽě˛âµÄŇý˝ĹşóŁ¬ŇŞŃÓĘ±Ň»¶ÎĘ±ĽäŁ¬µČ´ýadcÎČ¶¨Ł¬·ŔÖąŇâÁĎÖ®ÍâµÄĽě˛â˝áąű
                                           	MOVAI	0x01
                                           	MOVRA	STK00
                                           	MOVAI	0x00
                                           	CALL	_delay_ms
                                           ;	.line	70; "MC32P7351.c"	}
                                           	RETURN	
                                           ; exit point of _adc_sel_pin
                                           
                                           ;***
                                           ;  pBlock Stats: dbName = C
                                           ;***
                                           ;entry:  _adc_config	;Function start
                                           ; 2 exit points
                                           ;has an exit
                                           ;; Starting pCode block
                                           _adc_config	;Function start
                                           ; 2 exit points
                                           ;	.line	34; "MC32P7351.c"	P00OE = 0; // ĘäČëÄŁĘ˝
                                           	BCLR	_OEP0bits,0
                                           ;	.line	35; "MC32P7351.c"	P00DC = 1; // ÄŁÄâÄŁĘ˝
                                           	BSET	_ADIOS0bits,0
                                           ;	.line	38; "MC32P7351.c"	P02OE = 0; // ĘäČëÄŁĘ˝
                                           	BCLR	_OEP0bits,2
                                           ;	.line	39; "MC32P7351.c"	P02DC = 1; // ÄŁÄâÄŁĘ˝
                                           	BSET	_ADIOS0bits,1
                                           ;	.line	41; "MC32P7351.c"	ADCR0 = 0x0A; // 12Î»ľ«¶Čˇ˘˛»ĆôÓĂADC×Ş»»Ł¬˛»ĘąÄÜADC
                                           	MOVAI	0x0a
                                           	MOVRA	_ADCR0
                                           ;	.line	42; "MC32P7351.c"	ADCR1 = 0xE1; // 125K˛ÉŃůŁ¨×î¸ßľ«¶ČŁ©  ÄÚ˛ż3V˛ÎżĽµçŃą
                                           	MOVAI	0xe1
                                           	MOVRA	_ADCR1
                                           ;	.line	43; "MC32P7351.c"	ADCR2 = 0xFF; // ADC˛ÉŃůĘ±ĽäÎŞ15¸öADCĘ±ÖÓ
                                           	MOVAI	0xff
                                           	MOVRA	_ADCR2
                                           ;	.line	44; "MC32P7351.c"	ADEN = 1;     // ĘąÄÜADC
                                           	BSET	_ADCR0bits,0
                                           ;	.line	45; "MC32P7351.c"	}
                                           	RETURN	
                                           ; exit point of _adc_config
                                           
                                           ;***
                                           ;  pBlock Stats: dbName = C
                                           ;***
                                           ;entry:  _CLR_RAM	;Function start
                                           ; 2 exit points
                                           ;has an exit
                                           ;; Starting pCode block
                                           _CLR_RAM	;Function start
                                           ; 2 exit points
                                           ;	.line	22; "MC32P7351.c"	for (FSR0 = 0; FSR0 < 0xff; FSR0++)
                                           	CLRR	_FSR0
                                           ;;unsigned compare: left < lit(0xFF=255), size=1
                                           _00118_DS_
                                           	MOVAI	0xff
                                           	RSUBAR	_FSR0
                                           	JBCLR	PFLAG,0
                                           	GOTO	_00116_DS_
                                           ;;genSkipc:3291: created from rifx:013B5EFC
                                           ;	.line	24; "MC32P7351.c"	INDF0 = 0x00;
                                           	CLRR	_INDF0
                                           ;	.line	22; "MC32P7351.c"	for (FSR0 = 0; FSR0 < 0xff; FSR0++)
                                           	INCR	_FSR0
                                           	GOTO	_00118_DS_
                                           _00116_DS_
                                           ;	.line	26; "MC32P7351.c"	FSR0 = 0xFF;
                                           	MOVAI	0xff
                                           	MOVRA	_FSR0
                                           ;	.line	27; "MC32P7351.c"	INDF0 = 0x00;
                                           	CLRR	_INDF0
                                           ;	.line	28; "MC32P7351.c"	}
                                           	RETURN	
                                           ; exit point of _CLR_RAM
                                           
                                           ;***
                                           ;  pBlock Stats: dbName = C
                                           ;***
                                           ;entry:  _delay_ms	;Function start
                                           ; 2 exit points
                                           ;has an exit
                                           ;7 compiler assigned registers:
                                           ;   r0x1052
                                           ;   STK00
                                           ;   r0x1053
                                           ;   r0x1054
                                           ;   r0x1055
                                           ;   r0x1056
                                           ;   r0x1057
                                           ;; Starting pCode block
                                           _delay_ms	;Function start
                                           ; 2 exit points
                                           ;	.line	393; "user.h"	void delay_ms(u16 xms)
                                           	MOVRA	r0x1052
                                           	MOVAR	STK00
                                           	MOVRA	r0x1053
                                           _00108_DS_
                                           ;	.line	395; "user.h"	while (xms)
                                           	MOVAR	r0x1053
                                           	ORAR	r0x1052
                                           	JBCLR	PFLAG,2
                                           	GOTO	_00111_DS_
                                           ;	.line	398; "user.h"	while (i--)
                                           	MOVAI	0x3c
                                           	MOVRA	r0x1054
                                           	MOVAI	0x02
                                           	MOVRA	r0x1055
                                           _00105_DS_
                                           	MOVAR	r0x1054
                                           	MOVRA	r0x1056
                                           	MOVAR	r0x1055
                                           	MOVRA	r0x1057
                                           	MOVAI	0xff
                                           	ADDRA	r0x1054
                                           	JBSET	PFLAG,0
                                           	DECR	r0x1055
                                           	MOVAR	r0x1056
                                           	ORAR	r0x1057
                                           	JBCLR	PFLAG,2
                                           	GOTO	_00107_DS_
                                           ;	.line	400; "user.h"	Nop();
                                           	nop	
                                           	GOTO	_00105_DS_
                                           _00107_DS_
                                           ;	.line	402; "user.h"	xms--; // °Ń --˛Ů×÷·ĹÔÚwhile()ĹĐ¶ĎĚőĽţÍâĂćŁ¬¸ü˝ÚĘˇżŐĽä
                                           	MOVAI	0xff
                                           	ADDRA	r0x1053
                                           	JBSET	PFLAG,0
                                           	DECR	r0x1052
                                           ;	.line	406; "user.h"	__endasm;
                                           	;
                                           	clrwdt;
                                           	
                                           	GOTO	_00108_DS_
                                           _00111_DS_
                                           ;	.line	408; "user.h"	}
                                           	RETURN	
                                           ; exit point of _delay_ms
                                           
                                           
                                           ;	code size estimation:
                                           ;	 1751+    0 =  1751 instructions ( 3502 byte)
                                           
                                           	end


MEMORY USAGE MAP ('X' = Used,  '-' = Unused)

0000 : XX-------------- XXXXXXXXXXXXXXXX XXXXXXXXXXXXXXXX XXXXXXXXXXXXXXXX
0040 : XXXXXXXXXXXXXXXX XXXXXXXXXXXXXXXX XXXXXXXXXXXXXXXX XXXXXXXXXXXXXXXX
0080 : XXXXXXXXXXXXXXXX XXXXXXXXXXXXXXXX XXXXXXXXXXXXXXXX XXXXXXXXXXXXXXXX
00C0 : XXXXXXXXXXXXXXXX XXXXXXXXXXXXXXXX XXXXXXXXXXXXXXXX XXXXXXXXXXXXXXXX
0100 : XXXXXXXXXXXXXXXX XXXXXXXXXXXXXXXX XXXXXXXXXXXXXXXX XXXXXXXXXXXXXXXX
0140 : XXXXXXXXXXXXXXXX XXXXXXXXXXXXXXXX XXXXXXXXXXXXXXXX XXXXXXXXXXXXXXXX
0180 : XXXXXXXXXXXXXXXX XXXXXXXXXXXXXXXX XXXXXXXXXXXXXXXX XXXXXXXXXXXXXXXX
01C0 : XXXXXXXXXXXXXXXX XXXXXXXXXXXXXXXX XXXXXXXXXXXXXXXX XXXXXXXXXXXXXXXX
0200 : XXXXXXXXXXXXXXXX XXXXXXXXXXXXXXXX XXXXXXXXXXXXXXXX XXXXXXXXXXXXXXXX
0240 : XXXXXXXXXXXXXXXX XXXXXXXXXXXXXXXX XXXXXXXXXXXXXXXX XXXXXXXXXXXXXXXX
0280 : XXXXXXXXXXXXXXXX XXXXXXXXXXXXXXXX XXXXXXXXXXXXXXXX XXXXXXXXXXXXXXXX
02C0 : XXXXXXXXXXXXXXXX XXXXXXXXXXXXXXXX XXXXXXXXXXXXXXXX XXXXXXXXXXXXXXXX
0300 : XXXXXXXXXXXXXXXX XXXXXXXXXXXXXXXX XXXXXXXXXXXXXXXX XXXXXXXXXXXXXXXX
0340 : XXXXXXXXXXXXXXXX XXXXXXXXXXXXXXXX XXXXXXXXXXXXXXXX XXXXXXXXXXXXXXXX
0380 : XXXXXXXXXXXXXXXX XXXXXXXXXXXXXXXX XXXXXXXXXXXXXXXX XXXXXXXXXXXXXXXX
03C0 : XXXXXXXXXXXXXXXX XXXXXXXXXXXXXXXX XXXXXXXXXXXXXXXX XXXXXXXXXXXXXXXX
0400 : XXXXXXXXXXXXXXXX XXXXXXXXXXXXXXXX XXXXXXXXXXXXXXXX XXXXXXXXXXXXXXXX
0440 : XXXXXXXXXXXXXXXX XXXXXXXXXXXXXXXX XXXXXXXXXXXXXXXX XXXXXXXXXXXXXXXX
0480 : XXXXXXXXXXXXXXXX XXXXXXXXXXXXXXXX XXXXXXXXXXXXXXXX XXXXXXXXXXXXXXXX
04C0 : XXXXXXXXXXXXXXXX XXXXXXXXXXXXXXXX XXXXXXXXXXXXXXXX XXXXXXXXXXXXXXXX
0500 : XXXXXXXXXXXXXXXX XXXXXXXXXXXXXXXX XXXXXXXXXXXXXXXX XXXXXXXXXXXXXXXX
0540 : XXXXXXXXXXXXXXXX XXXXXXXXXXXXXXXX XXXXXXXXXXXXXXXX XXXXXXXXXXXXXXXX
0580 : XXXXXXXXXXXXXXXX XXXXXXXXXXXXXXXX XXXXXXXXXXXXXXXX XXXXXXXXXXXXXXXX
05C0 : XXXXXXXXXXXXXXXX XXXXXXXXXXXXXXXX XXXXXXXXXXXXXXXX XXXXXXXXXXXXXXXX
0600 : XXXXXXXXXXXXXXXX XXXXXXXXXXXXXXXX XXXXXXXXXXXXXXXX XXXXXXXXXXXXXXXX
0640 : XXXXXXXXXXXXXXXX XXXXXXXXXXXXXXXX XXXXXXXXXXXXXXXX XXXXXXXXXXXXXXXX
0680 : XXXXXXXXXXXXXXXX XXXXXXXXXXXXXXXX XXXXXXXXXXXXXXXX XXXXXXXXXXXXXXXX
06C0 : XXXXXXXXXXXXXXXX XXXXXXXXXXXXXXXX XXXXXXXXXXXXXXXX XXXXXXXXXXXXXXXX
0700 : XXXXXXXXXXXXXXXX XXXXXXXXXXXXXXXX XXXXXXXXXXXXXXXX XXXXXXXXXXXXXXXX
0740 : XXXXXXXXXXXXXXXX XXXXXXXXXXXXXXXX XXXXXXXXXXXXXXXX XXXXXXXXXXXXXXXX
0780 : XXXXXXXXXXXXXXXX XXXXXXXXXXXXXXXX XXXXXXXXXXXXXXXX XXXXXXXXXXXXXXXX
07C0 : XXXXXXXXXXXXXXXX XXXXXXXXXXXXXXXX XXXXXXXXXXXXXXXX XXXXXXXXXXXXXXXX
0800 : XXXXXXXXXXXXXXXX XXXXXXXXXXXXXXXX XXXXXXXXXXXXXXXX XXXXXXXXXXXXXXXX
0840 : XXXXXXXXXXXXXXXX XXXXXXXXXXXXXXXX XXXXXXXXXXXXXXXX XXXXXXXXXXXXXXXX
0880 : XXXXXXXXXXXXXXXX XXXXXXXXXXXXXXXX XXXXXXXXXXXXXXXX XXXXXXXXXXXXXXXX
08C0 : XXXXXXXXXXXXXXXX XXXXXXXXXXXXXXXX XXXXXXXXXXXXXXXX XXXXXXXXXXXXXXXX
0900 : XXXXXXXXXXXXXXXX XXXXXXXXXXXXXXXX XXXXXXXXXXXXXXXX XXXXXXXXXXXXXXXX
0940 : XXXXXXXXXXXXXXXX XXXXXXXXXXXXXXXX XXXXXXXXXXXXXXXX XXXXXXXXXXXXXXXX
0980 : XXXXXXXXXXXXXXXX XXXXXXXXXXXXXXXX XXXXXXXXXXXXXXXX XXXXXXXXXXXXXXXX
09C0 : XXXXXXXXXXXXXXXX XXXXXXXXXXXXXXXX XXXXXXXXXXXXXXXX XXXXXXXXXXXXXXXX
0A00 : XXXXXXXXXXXXXXXX XXXXXXXXXXXXXXXX XXXXXXXXXXXXXXXX XXXXXXXXXXXXXXXX
0A40 : XXXXXXXXXXXXXXXX XXXXXXXXXXXXXXXX XXXXXXXXXXXXXXXX XXXXXXXXXXXXXXXX
0A80 : XXXXXXXXXXXXXXXX XXXXXXXXXXXXXXXX XXXXXXXXXXXXXXXX XXXXXXXXXXXXXXXX
0AC0 : XXXXXXXXXXXXXXXX XXXXXXXXXXXXXXXX XXXXXXXXXXXXXXXX XXXXXXXXXXXXXXXX
0B00 : XXXXXXXXXXXXXXXX XXXXXXXXXXXXXXXX XXXXXXXXXXXXXXXX XXXXXXXXXXXXXXXX
0B40 : XXXXXXXXXXXXXXXX XXXXXXXXXXXXXXXX XXXXXXXXXXXXXXXX XXXXXXXXXXXXXXXX
0B80 : XXXXXXXXXXXXXXXX XXXXXXXXXXXXXXXX XXXXXXXXXXXXXXXX XXXXXXXXXXXXXXXX
0BC0 : XXXXXXXXXXXXXXXX XXXXXXXXXXXXXXXX XXXXXXXXXXXXXXXX XXXXXXXXXXXXXXXX
0C00 : XXXXXXXXXXXXXXXX XXXXXXXXXXXXXXXX XXXXXXXXXXXXXXXX XXXXXXXXXXXXXXXX
0C40 : XXXXXXXXXXXXXXXX XXXXXXXXXXXXXXXX XXXXXXXXXXXXXXXX XXXXXXXXXXXXXXXX
0C80 : XXXXXXXXXXXXXXXX XXXXXXXXXXXXXXXX XXXXXXXXXXXXXXXX XXXXXXXXXXXXXXXX
0CC0 : XXXXXXXXXXXXXXXX XXXXXXXXXXXXXXXX XXXXXXXXXXXXXXXX XXXXXXXXXXXXXXXX
0D00 : XXXXXXXXXXXXXXXX XXXXXXXXXXXXXXXX XXXXXXXXXXXXXXXX XXXXXXXXXXXXXXXX
0D40 : XXXXXXXXXXXXXXXX XXXXXXXXXXXXXXXX XXXXXXXXXXXXXXXX XXXXXXXXXXXXXXXX
0D80 : XXXXXXXXXXXXXXXX XXXXXXXXXXXXXXXX XXXXXXXXXXXXXXXX XXXXXXXXXXXXXXXX
0DC0 : XXXXXXXXXXXXXXXX XXXXXXXXXXXXXXXX XXXXXXXXXXXXXXXX XXXXXXXXXXXXXXXX
0E00 : XXXXXXXXXXXXXXXX XXXXXXXXXXXXXXXX XXXXXXXXXXXXXXXX XXXXXXXXXXXXXXXX
0E40 : XXXXXXXXXXXXXXXX XXXXXXXXXXXXXXXX XXXXXXXXXXXXXXXX XXXXXXXXXXXXXXXX
0E80 : XXXXXXXXXXXXXXXX XXXXXXXXXXXXXXXX XXXXXXXXXXXXXXXX XXXXXXXXXXXXXXXX
0EC0 : XXXXXXXXXXXXXXXX XXXXXXXXXXXXXXXX XXXXXXXXXXXXXXXX XXXXXXXXXXXXXXXX
0F00 : XXXXXXXXXXXXXXXX XXXXXXXXXXXXXXXX XXXXXXXXXXXXXXXX XXXXXXXXXXXXXXXX
0F40 : XXXXXXXXXXXXXXXX XXXXXXXXXXXXXXXX XXXXXXXXXXXXXXXX XXXXXXXXXXXXXXXX
0F80 : XXXXXXXXXXXXXXXX XXXXXXXXXXXXXXXX XXXXXXXXXXXXXXXX XXXXXXXXXXXXXXXX
0FC0 : XXXXXXXXXXXXXXXX XXXXXXXXXXXXXXXX XX-------------- ----------------

All other memory blocks unused.

Program Memory Words Used:  2026

